   1               		.file	"app.c"
   2               		.arch atmega128rfa1
   3               	__SREG__ = 0x3f
   4               	__SP_H__ = 0x3e
   5               	__SP_L__ = 0x3d
   6               	__tmp_reg__ = 0
   7               	__zero_reg__ = 1
   8               		.global __do_copy_data
   9               		.global __do_clear_bss
  17               	.Ltext0:
  18               		.section	.text.__nesc_atomic_start,"ax",@progbits
  19               	.global	__nesc_atomic_start
  21               	__nesc_atomic_start:
  22               	.LFB3:
  23               	.LSM0:
  24               	/* prologue: frame size=0 */
  25               	/* prologue end (size=0) */
  26               	.LSM1:
  27 0000 8FB7      		in r24,95-0x20
  28               	.LVL0:
  29               	.LBB2746:
  30               	.LBB2747:
  31               	.LSM2:
  32               	/* #APP */
  33 0002 F894      		cli
  34               	/* #NOAPP */
  35               	.LBE2747:
  36               	.LBE2746:
  37               	.LSM3:
  38               	.LSM4:
  39 0004 9927      		clr r25
  40               	.LVL1:
  41               	/* epilogue: frame size=0 */
  42 0006 0895      		ret
  43               	/* epilogue end (size=1) */
  44               	/* function __nesc_atomic_start size 7 (6) */
  45               	.LFE3:
  47               		.section	.text.__nesc_atomic_end,"ax",@progbits
  48               	.global	__nesc_atomic_end
  50               	__nesc_atomic_end:
  51               	.LFB4:
  52               	.LSM5:
  53               	/* prologue: frame size=0 */
  54               	/* prologue end (size=0) */
  55               	.LVL2:
  56               	.LSM6:
  57               	.LSM7:
  58 0000 8FBF      		out 95-0x20,r24
  59               	/* epilogue: frame size=0 */
  60 0002 0895      		ret
  61               	/* epilogue end (size=1) */
  62               	/* function __nesc_atomic_end size 4 (3) */
  63               	.LFE4:
  65               		.section	.text.MetadataFlagsLayerC__0__PacketFlag__clear,"ax",@progbits
  67               	MetadataFlagsLayerC__0__PacketFlag__clear:
  68               	.LFB78:
  69               	.LSM8:
  70               	/* prologue: frame size=0 */
  71               	/* prologue end (size=0) */
  72               	.LVL3:
  73 0000 FB01      		movw r30,r22
  74               	.LSM9:
  75 0002 21E0      		ldi r18,lo8(1)
  76 0004 30E0      		ldi r19,hi8(1)
  77 0006 00C0      		rjmp 2f
  78 0008 220F      	1:	lsl r18
  79 000a 331F      		rol r19
  80 000c 8A95      	2:	dec r24
  81 000e 02F4      		brpl 1b
  82 0010 2095      		com r18
  83 0012 87A5      		ldd r24,Z+47
  84               	.LVL4:
  85 0014 8223      		and r24,r18
  86 0016 87A7      		std Z+47,r24
  87               	/* epilogue: frame size=0 */
  88 0018 0895      		ret
  89               	/* epilogue end (size=1) */
  90               	/* function MetadataFlagsLayerC__0__PacketFlag__clear size 14 (13) */
  91               	.LFE78:
  93               		.section	.text.__nesc_hton_uint32,"ax",@progbits
  95               	__nesc_hton_uint32:
  96               	.LFB245:
  97               	.LSM10:
  98               	/* prologue: frame size=0 */
  99               	/* prologue end (size=0) */
 100               	.LVL5:
 101 0000 FC01      		movw r30,r24
 102               	.LSM11:
 103 0002 4383      		std Z+3,r20
 104               	.LSM12:
 105 0004 BB27      		clr r27
 106 0006 A72F      		mov r26,r23
 107 0008 962F      		mov r25,r22
 108 000a 852F      		mov r24,r21
 109               	.LVL6:
 110 000c 8283      		std Z+2,r24
 111               	.LSM13:
 112 000e CB01      		movw r24,r22
 113 0010 AA27      		clr r26
 114 0012 BB27      		clr r27
 115 0014 8183      		std Z+1,r24
 116               	.LSM14:
 117 0016 872F      		mov r24,r23
 118 0018 9927      		clr r25
 119 001a AA27      		clr r26
 120 001c BB27      		clr r27
 121 001e 8083      		st Z,r24
 122               	.LSM15:
 123 0020 CB01      		movw r24,r22
 124 0022 BA01      		movw r22,r20
 125               	/* epilogue: frame size=0 */
 126 0024 0895      		ret
 127               	/* epilogue end (size=1) */
 128               	/* function __nesc_hton_uint32 size 19 (18) */
 129               	.LFE245:
 131               		.section	.text.MessageBufferLayerP__0__Tasklet__suspend,"ax",@progbits
 133               	MessageBufferLayerP__0__Tasklet__suspend:
 134               	.LFB315:
 135               	.LSM16:
 136               	/* prologue: frame size=0 */
 137               	/* prologue end (size=0) */
 138               	.LBB2757:
 139               	.LBB2758:
 140               	.LBB2759:
 141               	.LBB2760:
 142               	.LBB2761:
 143               	.LSM17:
 144 0000 2FB7      		in r18,95-0x20
 145               	.LVL7:
 146               	.LBB2762:
 147               	.LBB2763:
 148               	.LSM18:
 149               	/* #APP */
 150 0002 F894      		cli
 151               	/* #NOAPP */
 152               	.LBE2763:
 153               	.LBE2762:
 154               	.LSM19:
 155               	.LBE2761:
 156               	.LBE2760:
 157               	.LSM20:
 158 0004 3327      		clr r19
 159 0006 8091 0000 		lds r24,TaskletC__state
 160 000a 8F5F      		subi r24,lo8(-(1))
 161 000c 8093 0000 		sts TaskletC__state,r24
 162               	.LBB2764:
 163               	.LBB2765:
 164               	.LSM21:
 165               	.LSM22:
 166 0010 2FBF      		out 95-0x20,r18
 167               	.LBE2765:
 168               	.LBE2764:
 169               	.LBE2759:
 170               	.LBE2758:
 171               	.LBE2757:
 172               	/* epilogue: frame size=0 */
 173 0012 0895      		ret
 174               	/* epilogue end (size=1) */
 175               	/* function MessageBufferLayerP__0__Tasklet__suspend size 15 (14) */
 176               	.LFE315:
 178               		.section	.text.PacketLinkLayerP__0__getMeta,"ax",@progbits
 180               	PacketLinkLayerP__0__getMeta:
 181               	.LFB356:
 182               	.LSM23:
 183               	/* prologue: frame size=0 */
 184               	/* prologue end (size=0) */
 185               	.LVL8:
 186               	.LSM24:
 187 0000 8796      		adiw r24,39
 188               	.LVL9:
 189               	/* epilogue: frame size=0 */
 190 0002 0895      		ret
 191               	/* epilogue end (size=1) */
 192               	/* function PacketLinkLayerP__0__getMeta size 2 (1) */
 193               	.LFE356:
 195               		.section	.text.Atm128AdcP__isPrecise,"ax",@progbits
 197               	Atm128AdcP__isPrecise:
 198               	.LFB436:
 199               	.LSM25:
 200               	/* prologue: frame size=0 */
 201               	/* prologue end (size=0) */
 202               	.LVL10:
 203 0000 782F      		mov r23,r24
 204 0002 7F71      		andi r23,lo8(31)
 205               	.LSM26:
 206 0004 5527      		clr r21
 207 0006 8295      		swap r24
 208 0008 8695      		lsr r24
 209 000a 8695      		lsr r24
 210 000c 8370      		andi r24,0x3
 211 000e 9927      		clr r25
 212               	.LVL11:
 213 0010 4817      		cp r20,r24
 214 0012 5907      		cpc r21,r25
 215 0014 01F0      		breq .L15
 216               	.LSM27:
 217 0016 80E0      		ldi r24,lo8(0)
 218 0018 90E0      		ldi r25,hi8(0)
 219 001a 00C0      		rjmp .L17
 220               	.L15:
 221 001c 862F      		mov r24,r22
 222 001e 8850      		subi r24,lo8(-(-8))
 223 0020 8631      		cpi r24,lo8(22)
 224 0022 00F0      		brlo .L18
 225 0024 81E0      		ldi r24,lo8(1)
 226 0026 90E0      		ldi r25,hi8(1)
 227 0028 00C0      		rjmp .L17
 228               	.L18:
 229 002a 40E0      		ldi r20,lo8(0)
 230 002c 50E0      		ldi r21,hi8(0)
 231               	.LVL12:
 232 002e 262F      		mov r18,r22
 233 0030 3327      		clr r19
 234 0032 872F      		mov r24,r23
 235 0034 9927      		clr r25
 236 0036 2817      		cp r18,r24
 237 0038 3907      		cpc r19,r25
 238 003a 01F4      		brne .L20
 239               	.LVL13:
 240 003c 41E0      		ldi r20,lo8(1)
 241 003e 50E0      		ldi r21,hi8(1)
 242               	.L20:
 243 0040 CA01      		movw r24,r20
 244               	.LVL14:
 245               	.L17:
 246               	.LSM28:
 247 0042 9927      		clr r25
 248               	/* epilogue: frame size=0 */
 249 0044 0895      		ret
 250               	/* epilogue end (size=1) */
 251               	/* function Atm128AdcP__isPrecise size 35 (34) */
 252               	.LFE436:
 254               		.section	.text.Atm128AdcP__HplAtm128Adc__getAdmux,"ax",@progbits
 256               	Atm128AdcP__HplAtm128Adc__getAdmux:
 257               	.LFB438:
 258               	.LSM29:
 259               	/* prologue: frame size=0 */
 260               	/* prologue end (size=0) */
 261 0000 8091 7C00 		lds r24,124
 262               	/* epilogue: frame size=0 */
 263 0004 0895      		ret
 264               	/* epilogue end (size=1) */
 265               	/* function Atm128AdcP__HplAtm128Adc__getAdmux size 3 (2) */
 266               	.LFE438:
 268               		.section	.text.SchedulerBasicP__popTask,"ax",@progbits
 270               	SchedulerBasicP__popTask:
 271               	.LFB553:
 272               	.LSM30:
 273               	/* prologue: frame size=0 */
 274               	/* prologue end (size=0) */
 275               	.LSM31:
 276 0000 8091 0000 		lds r24,SchedulerBasicP__m_head
 277 0004 8F3F      		cpi r24,lo8(-1)
 278 0006 01F4      		brne .L25
 279               	.LSM32:
 280 0008 2FEF      		ldi r18,lo8(255)
 281 000a 30E0      		ldi r19,hi8(255)
 282 000c 00C0      		rjmp .L27
 283               	.L25:
 284               	.LBB2766:
 285               	.LSM33:
 286 000e 282F      		mov r18,r24
 287 0010 3327      		clr r19
 288 0012 F901      		movw r30,r18
 289 0014 E050      		subi r30,lo8(-(SchedulerBasicP__m_next))
 290 0016 F040      		sbci r31,hi8(-(SchedulerBasicP__m_next))
 291 0018 8081      		ld r24,Z
 292 001a 8093 0000 		sts SchedulerBasicP__m_head,r24
 293               	.LSM34:
 294 001e 8F3F      		cpi r24,lo8(-1)
 295 0020 01F4      		brne .L28
 296               	.LSM35:
 297 0022 8093 0000 		sts SchedulerBasicP__m_tail,r24
 298               	.L28:
 299               	.LSM36:
 300 0026 8FEF      		ldi r24,lo8(-1)
 301 0028 8083      		st Z,r24
 302               	.L27:
 303               	.LBE2766:
 304               	.LSM37:
 305 002a C901      		movw r24,r18
 306               	/* epilogue: frame size=0 */
 307 002c 0895      		ret
 308               	/* epilogue end (size=1) */
 309               	/* function SchedulerBasicP__popTask size 23 (22) */
 310               	.LFE553:
 312               		.section	.text.SchedulerBasicP__TaskBasic__postTask,"ax",@progbits
 314               	SchedulerBasicP__TaskBasic__postTask:
 315               	.LFB573:
 316               	.LSM38:
 317               	/* prologue: frame size=0 */
 318               	/* prologue end (size=0) */
 319               	.LVL15:
 320 0000 282F      		mov r18,r24
 321               	.LBB2779:
 322               	.LBB2780:
 323               	.LBB2781:
 324               	.LSM39:
 325 0002 9FB7      		in r25,95-0x20
 326               	.LVL16:
 327               	.LBB2782:
 328               	.LBB2783:
 329               	.LSM40:
 330               	/* #APP */
 331 0004 F894      		cli
 332               	/* #NOAPP */
 333               	.LBE2783:
 334               	.LBE2782:
 335               	.LSM41:
 336               	.LBE2781:
 337               	.LBE2780:
 338               	.LBB2784:
 339               	.LBB2785:
 340               	.LBB2786:
 341               	.LBB2787:
 342               	.LBB2788:
 343               	.LSM42:
 344 0006 E82F      		mov r30,r24
 345 0008 FF27      		clr r31
 346 000a E050      		subi r30,lo8(-(SchedulerBasicP__m_next))
 347 000c F040      		sbci r31,hi8(-(SchedulerBasicP__m_next))
 348 000e 8081      		ld r24,Z
 349               	.LVL17:
 350 0010 8F3F      		cpi r24,lo8(-1)
 351 0012 01F4      		brne .L32
 352               	.LSM43:
 353 0014 E091 0000 		lds r30,SchedulerBasicP__m_tail
 354               	.LVL18:
 355 0018 E217      		cp r30,r18
 356 001a 01F4      		brne .L40
 357 001c 00C0      		rjmp .L32
 358               	.L35:
 359               	.LBE2788:
 360               	.LBE2787:
 361               	.LSM44:
 362 001e 2093 0000 		sts SchedulerBasicP__m_head,r18
 363 0022 00C0      		rjmp .L42
 364               	.L41:
 365               	.LSM45:
 366 0024 FF27      		clr r31
 367 0026 E050      		subi r30,lo8(-(SchedulerBasicP__m_next))
 368 0028 F040      		sbci r31,hi8(-(SchedulerBasicP__m_next))
 369 002a 2083      		st Z,r18
 370               	.L42:
 371               	.LSM46:
 372 002c 2093 0000 		sts SchedulerBasicP__m_tail,r18
 373 0030 20E0      		ldi r18,lo8(0)
 374               	.LVL19:
 375 0032 00C0      		rjmp .L38
 376               	.LVL20:
 377               	.L32:
 378 0034 25E0      		ldi r18,lo8(5)
 379               	.LVL21:
 380 0036 00C0      		rjmp .L38
 381               	.LVL22:
 382               	.L40:
 383               	.LSM47:
 384 0038 8091 0000 		lds r24,SchedulerBasicP__m_head
 385 003c 8F3F      		cpi r24,lo8(-1)
 386 003e 01F4      		brne .L41
 387 0040 00C0      		rjmp .L35
 388               	.LVL23:
 389               	.L38:
 390               	.LBE2786:
 391               	.LBE2785:
 392               	.LBB2789:
 393               	.LBB2790:
 394               	.LSM48:
 395               	.LBE2790:
 396               	.LBE2789:
 397               	.LBE2784:
 398               	.LSM49:
 399 0042 892F      		mov r24,r25
 400 0044 9927      		clr r25
 401               	.LBB2791:
 402               	.LBB2792:
 403               	.LBB2793:
 404               	.LSM50:
 405 0046 8FBF      		out 95-0x20,r24
 406               	.LBE2793:
 407               	.LBE2792:
 408               	.LBE2791:
 409               	.LBE2779:
 410               	.LSM51:
 411 0048 822F      		mov r24,r18
 412 004a 9927      		clr r25
 413               	/* epilogue: frame size=0 */
 414 004c 0895      		ret
 415               	/* epilogue end (size=1) */
 416               	/* function SchedulerBasicP__TaskBasic__postTask size 44 (43) */
 417               	.LFE573:
 419               		.section	.text.ArbiterP__0__grantedTask__postTask,"ax",@progbits
 421               	ArbiterP__0__grantedTask__postTask:
 422               	.LFB499:
 423               	.LSM52:
 424               	/* prologue: frame size=0 */
 425               	/* prologue end (size=0) */
 426 0000 8BE0      		ldi r24,lo8(11)
 427 0002 0E94 0000 		call SchedulerBasicP__TaskBasic__postTask
 428 0006 9927      		clr r25
 429               	/* epilogue: frame size=0 */
 430 0008 0895      		ret
 431               	/* epilogue end (size=1) */
 432               	/* function ArbiterP__0__grantedTask__postTask size 5 (4) */
 433               	.LFE499:
 435               		.section	.text.VirtualizeTimerC__0__updateFromTimer__postTask,"ax",@progbits
 437               	VirtualizeTimerC__0__updateFromTimer__postTask:
 438               	.LFB374:
 439               	.LSM53:
 440               	/* prologue: frame size=0 */
 441               	/* prologue end (size=0) */
 442 0000 8AE0      		ldi r24,lo8(10)
 443 0002 0E94 0000 		call SchedulerBasicP__TaskBasic__postTask
 444 0006 9927      		clr r25
 445               	/* epilogue: frame size=0 */
 446 0008 0895      		ret
 447               	/* epilogue end (size=1) */
 448               	/* function VirtualizeTimerC__0__updateFromTimer__postTask size 5 (4) */
 449               	.LFE374:
 451               		.section	.text.MessageBufferLayerP__0__sendTask__postTask,"ax",@progbits
 453               	MessageBufferLayerP__0__sendTask__postTask:
 454               	.LFB358:
 455               	.LSM54:
 456               	/* prologue: frame size=0 */
 457               	/* prologue end (size=0) */
 458 0000 80E1      		ldi r24,lo8(16)
 459 0002 0E94 0000 		call SchedulerBasicP__TaskBasic__postTask
 460 0006 9927      		clr r25
 461               	/* epilogue: frame size=0 */
 462 0008 0895      		ret
 463               	/* epilogue end (size=1) */
 464               	/* function MessageBufferLayerP__0__sendTask__postTask size 5 (4) */
 465               	.LFE358:
 467               		.section	.text.PacketLinkLayerP__0__send__postTask,"ax",@progbits
 469               	PacketLinkLayerP__0__send__postTask:
 470               	.LFB306:
 471               	.LSM55:
 472               	/* prologue: frame size=0 */
 473               	/* prologue end (size=0) */
 474 0000 8EE0      		ldi r24,lo8(14)
 475 0002 0E94 0000 		call SchedulerBasicP__TaskBasic__postTask
 476 0006 9927      		clr r25
 477               	/* epilogue: frame size=0 */
 478 0008 0895      		ret
 479               	/* epilogue end (size=1) */
 480               	/* function PacketLinkLayerP__0__send__postTask size 5 (4) */
 481               	.LFE306:
 483               		.section	.text.__vector_36,"ax",@progbits
 484               	.global	__vector_36
 486               	__vector_36:
 487               	.LFB572:
 488               	.LSM56:
 489               	/* prologue: frame size=0 */
 490 0000 1F92      		push __zero_reg__
 491 0002 0F92      		push __tmp_reg__
 492 0004 0FB6      		in __tmp_reg__,__SREG__
 493 0006 0F92      		push __tmp_reg__
 494 0008 1124      		clr __zero_reg__
 495 000a 2F93      		push r18
 496 000c 3F93      		push r19
 497 000e 4F93      		push r20
 498 0010 5F93      		push r21
 499 0012 6F93      		push r22
 500 0014 7F93      		push r23
 501 0016 8F93      		push r24
 502 0018 9F93      		push r25
 503 001a AF93      		push r26
 504 001c BF93      		push r27
 505 001e EF93      		push r30
 506 0020 FF93      		push r31
 507               	/* prologue end (size=17) */
 508               	.LSM57:
 509 0022 8091 C800 		lds r24,200
 510 0026 87FF      		sbrs r24,7
 511 0028 00C0      		rjmp .L59
 512               	.LSM58:
 513 002a 4091 CE00 		lds r20,206
 514 002e 4093 0000 		sts Atm128Rfa1Uart1InterruptsP__privReceivedByte,r20
 515               	.LBB2806:
 516               	.LBB2807:
 517               	.LBB2808:
 518               	.LBB2809:
 519               	.LSM59:
 520 0032 E091 0000 		lds r30,Atm128Rfa1SerialP__rxBuf
 521 0036 F091 0000 		lds r31,(Atm128Rfa1SerialP__rxBuf)+1
 522 003a 3097      		sbiw r30,0
 523 003c 01F0      		breq .L54
 524               	.LSM60:
 525 003e 2091 0000 		lds r18,Atm128Rfa1SerialP__rxPos
 526 0042 3091 0000 		lds r19,(Atm128Rfa1SerialP__rxPos)+1
 527 0046 8091 0000 		lds r24,Atm128Rfa1SerialP__rxLen
 528 004a 9091 0000 		lds r25,(Atm128Rfa1SerialP__rxLen)+1
 529 004e 2817      		cp r18,r24
 530 0050 3907      		cpc r19,r25
 531 0052 00F4      		brsh .L56
 532               	.LSM61:
 533 0054 E20F      		add r30,r18
 534 0056 F31F      		adc r31,r19
 535 0058 4083      		st Z,r20
 536               	.LSM62:
 537 005a 8091 0000 		lds r24,Atm128Rfa1SerialP__rxPos
 538 005e 9091 0000 		lds r25,(Atm128Rfa1SerialP__rxPos)+1
 539 0062 0196      		adiw r24,1
 540 0064 9093 0000 		sts (Atm128Rfa1SerialP__rxPos)+1,r25
 541 0068 8093 0000 		sts Atm128Rfa1SerialP__rxPos,r24
 542               	.LSM63:
 543 006c 2091 0000 		lds r18,Atm128Rfa1SerialP__rxLen
 544 0070 3091 0000 		lds r19,(Atm128Rfa1SerialP__rxLen)+1
 545 0074 8217      		cp r24,r18
 546 0076 9307      		cpc r25,r19
 547 0078 01F4      		brne .L56
 548               	.LBB2810:
 549               	.LSM64:
 550 007a 83E0      		ldi r24,lo8(3)
 551 007c 00C0      		rjmp .L60
 552               	.L54:
 553               	.LBE2810:
 554               	.LSM65:
 555 007e 4093 0000 		sts Atm128Rfa1SerialP__rxUnexpectedByte,r20
 556               	.LBB2811:
 557               	.LSM66:
 558 0082 84E0      		ldi r24,lo8(4)
 559               	.L60:
 560 0084 0E94 0000 		call SchedulerBasicP__TaskBasic__postTask
 561               	.L56:
 562               	.LBE2811:
 563               	.LBB2812:
 564               	.LBB2813:
 565               	.LBB2814:
 566               	.LBB2815:
 567               	.LSM67:
 568 0088 8091 C800 		lds r24,200
 569 008c 8F77      		andi r24,lo8(127)
 570 008e 8093 C800 		sts 200,r24
 571               	.L59:
 572               	.LBE2815:
 573               	.LBE2814:
 574               	.LBE2813:
 575               	.LBE2812:
 576               	.LBE2809:
 577               	.LBE2808:
 578               	.LBE2807:
 579               	.LBE2806:
 580               	/* epilogue: frame size=0 */
 581 0092 FF91      		pop r31
 582 0094 EF91      		pop r30
 583 0096 BF91      		pop r27
 584 0098 AF91      		pop r26
 585 009a 9F91      		pop r25
 586 009c 8F91      		pop r24
 587 009e 7F91      		pop r23
 588 00a0 6F91      		pop r22
 589 00a2 5F91      		pop r21
 590 00a4 4F91      		pop r20
 591 00a6 3F91      		pop r19
 592 00a8 2F91      		pop r18
 593 00aa 0F90      		pop __tmp_reg__
 594 00ac 0FBE      		out __SREG__,__tmp_reg__
 595 00ae 0F90      		pop __tmp_reg__
 596 00b0 1F90      		pop __zero_reg__
 597 00b2 1895      		reti
 598               	/* epilogue end (size=17) */
 599               	/* function __vector_36 size 90 (56) */
 600               	.LFE572:
 602               		.section	.text.__vector_38,"ax",@progbits
 603               	.global	__vector_38
 605               	__vector_38:
 606               	.LFB574:
 607               	.LSM68:
 608               	/* prologue: frame size=0 */
 609 0000 1F92      		push __zero_reg__
 610 0002 0F92      		push __tmp_reg__
 611 0004 0FB6      		in __tmp_reg__,__SREG__
 612 0006 0F92      		push __tmp_reg__
 613 0008 1124      		clr __zero_reg__
 614 000a 2F93      		push r18
 615 000c 3F93      		push r19
 616 000e 4F93      		push r20
 617 0010 5F93      		push r21
 618 0012 6F93      		push r22
 619 0014 7F93      		push r23
 620 0016 8F93      		push r24
 621 0018 9F93      		push r25
 622 001a AF93      		push r26
 623 001c BF93      		push r27
 624 001e EF93      		push r30
 625 0020 FF93      		push r31
 626               	/* prologue end (size=17) */
 627               	.LBB2826:
 628               	.LBB2827:
 629               	.LBB2828:
 630               	.LBB2829:
 631               	.LSM69:
 632 0022 E091 0000 		lds r30,Atm128Rfa1SerialP__txBuf
 633 0026 F091 0000 		lds r31,(Atm128Rfa1SerialP__txBuf)+1
 634 002a 3097      		sbiw r30,0
 635 002c 01F0      		breq .L62
 636               	.LSM70:
 637 002e 2091 0000 		lds r18,Atm128Rfa1SerialP__txPos
 638 0032 3091 0000 		lds r19,(Atm128Rfa1SerialP__txPos)+1
 639 0036 8091 0000 		lds r24,Atm128Rfa1SerialP__txLen
 640 003a 9091 0000 		lds r25,(Atm128Rfa1SerialP__txLen)+1
 641 003e 2817      		cp r18,r24
 642 0040 3907      		cpc r19,r25
 643 0042 00F4      		brsh .L64
 644               	.L69:
 645               	.LSM71:
 646 0044 8091 C800 		lds r24,200
 647 0048 85FF      		sbrs r24,5
 648 004a 00C0      		rjmp .L69
 649               	.LSM72:
 650 004c E20F      		add r30,r18
 651 004e F31F      		adc r31,r19
 652 0050 8081      		ld r24,Z
 653 0052 8093 CE00 		sts 206,r24
 654               	.LSM73:
 655 0056 2F5F      		subi r18,lo8(-(1))
 656 0058 3F4F      		sbci r19,hi8(-(1))
 657 005a 3093 0000 		sts (Atm128Rfa1SerialP__txPos)+1,r19
 658 005e 2093 0000 		sts Atm128Rfa1SerialP__txPos,r18
 659 0062 00C0      		rjmp .L62
 660               	.L64:
 661               	.LSM74:
 662 0064 2817      		cp r18,r24
 663 0066 3907      		cpc r19,r25
 664 0068 01F4      		brne .L62
 665               	.LSM75:
 666 006a 1092 0000 		sts (Atm128Rfa1SerialP__txLen)+1,__zero_reg__
 667 006e 1092 0000 		sts Atm128Rfa1SerialP__txLen,__zero_reg__
 668               	.LSM76:
 669 0072 1092 0000 		sts (Atm128Rfa1SerialP__txPos)+1,__zero_reg__
 670 0076 1092 0000 		sts Atm128Rfa1SerialP__txPos,__zero_reg__
 671               	.LSM77:
 672 007a 1092 0000 		sts (Atm128Rfa1SerialP__txBuf)+1,__zero_reg__
 673 007e 1092 0000 		sts Atm128Rfa1SerialP__txBuf,__zero_reg__
 674               	.LSM78:
 675 0082 1092 0000 		sts Atm128Rfa1SerialP__txBusy,__zero_reg__
 676               	.LBB2830:
 677               	.LSM79:
 678 0086 82E0      		ldi r24,lo8(2)
 679 0088 0E94 0000 		call SchedulerBasicP__TaskBasic__postTask
 680               	.L62:
 681               	.LBE2830:
 682               	.LBB2831:
 683               	.LBB2832:
 684               	.LBB2833:
 685               	.LBB2834:
 686               	.LSM80:
 687 008c 8091 C800 		lds r24,200
 688 0090 8F7B      		andi r24,lo8(-65)
 689 0092 8093 C800 		sts 200,r24
 690               	.LBE2834:
 691               	.LBE2833:
 692               	.LBE2832:
 693               	.LBE2831:
 694               	.LBE2829:
 695               	.LBE2828:
 696               	.LBE2827:
 697               	.LBE2826:
 698               	/* epilogue: frame size=0 */
 699 0096 FF91      		pop r31
 700 0098 EF91      		pop r30
 701 009a BF91      		pop r27
 702 009c AF91      		pop r26
 703 009e 9F91      		pop r25
 704 00a0 8F91      		pop r24
 705 00a2 7F91      		pop r23
 706 00a4 6F91      		pop r22
 707 00a6 5F91      		pop r21
 708 00a8 4F91      		pop r20
 709 00aa 3F91      		pop r19
 710 00ac 2F91      		pop r18
 711 00ae 0F90      		pop __tmp_reg__
 712 00b0 0FBE      		out __SREG__,__tmp_reg__
 713 00b2 0F90      		pop __tmp_reg__
 714 00b4 1F90      		pop __zero_reg__
 715 00b6 1895      		reti
 716               	/* epilogue end (size=17) */
 717               	/* function __vector_38 size 92 (58) */
 718               	.LFE574:
 720               		.section	.text.__vector_68,"ax",@progbits
 721               	.global	__vector_68
 723               	__vector_68:
 724               	.LFB575:
 725               	.LSM81:
 726               	/* prologue: frame size=0 */
 727 0000 1F92      		push __zero_reg__
 728 0002 0F92      		push __tmp_reg__
 729 0004 0FB6      		in __tmp_reg__,__SREG__
 730 0006 0F92      		push __tmp_reg__
 731 0008 1124      		clr __zero_reg__
 732 000a 8F93      		push r24
 733               	/* prologue end (size=6) */
 734               	.LBB2857:
 735               	.LBB2858:
 736               	.LBB2859:
 737               	.LBB2860:
 738               	.LBB2861:
 739               	.LBB2862:
 740               	.LBB2863:
 741               	.LBB2864:
 742               	.LSM82:
 743 000c 8091 0000 		lds r24,TransformCounterC__0__m_upper
 744 0010 8F5F      		subi r24,lo8(-(1))
 745 0012 8093 0000 		sts TransformCounterC__0__m_upper,r24
 746               	.LBE2864:
 747               	.LBE2863:
 748               	.LBE2862:
 749               	.LBE2861:
 750               	.LBE2860:
 751               	.LBE2859:
 752               	.LBE2858:
 753               	.LBE2857:
 754               	/* epilogue: frame size=0 */
 755 0016 8F91      		pop r24
 756 0018 0F90      		pop __tmp_reg__
 757 001a 0FBE      		out __SREG__,__tmp_reg__
 758 001c 0F90      		pop __tmp_reg__
 759 001e 1F90      		pop __zero_reg__
 760 0020 1895      		reti
 761               	/* epilogue end (size=6) */
 762               	/* function __vector_68 size 17 (5) */
 763               	.LFE575:
 765               		.section	.text.HplAtmRfa1TimerMacP__Counter__get,"ax",@progbits
 767               	HplAtmRfa1TimerMacP__Counter__get:
 768               	.LFB579:
 769               	.LSM83:
 770               	/* prologue: frame size=0 */
 771               	/* prologue end (size=0) */
 772               	.LBB2865:
 773               	.LBB2866:
 774               	.LBB2867:
 775               	.LSM84:
 776 0000 4FB7      		in r20,95-0x20
 777               	.LVL24:
 778               	.LBB2868:
 779               	.LBB2869:
 780               	.LSM85:
 781               	/* #APP */
 782 0002 F894      		cli
 783               	/* #NOAPP */
 784               	.LBE2869:
 785               	.LBE2868:
 786               	.LSM86:
 787               	.LBE2867:
 788               	.LBE2866:
 789               	.LSM87:
 790 0004 5527      		clr r21
 791               	.LSM88:
 792 0006 2091 E100 		lds r18,225
 793 000a 622F      		mov r22,r18
 794               	.LVL25:
 795               	.LSM89:
 796 000c 2091 E200 		lds r18,226
 797 0010 722F      		mov r23,r18
 798               	.LVL26:
 799               	.LSM90:
 800 0012 2091 E300 		lds r18,227
 801 0016 822F      		mov r24,r18
 802               	.LVL27:
 803               	.LSM91:
 804 0018 2091 E400 		lds r18,228
 805 001c 922F      		mov r25,r18
 806               	.LVL28:
 807               	.LBB2870:
 808               	.LBB2871:
 809               	.LSM92:
 810               	.LSM93:
 811 001e 4FBF      		out 95-0x20,r20
 812               	.LVL29:
 813               	.LBE2871:
 814               	.LBE2870:
 815               	.LBE2865:
 816               	/* epilogue: frame size=0 */
 817 0020 0895      		ret
 818               	/* epilogue end (size=1) */
 819               	/* function HplAtmRfa1TimerMacP__Counter__get size 22 (21) */
 820               	.LFE579:
 822               		.section	.text.AtmegaCompareP__1__AtmegaCounter__get,"ax",@progbits
 824               	AtmegaCompareP__1__AtmegaCounter__get:
 825               	.LFB84:
 826               	.LSM94:
 827               	/* prologue: frame size=0 */
 828               	/* prologue end (size=0) */
 829 0000 0E94 0000 		call HplAtmRfa1TimerMacP__Counter__get
 830               	/* epilogue: frame size=0 */
 831 0004 0895      		ret
 832               	/* epilogue end (size=1) */
 833               	/* function AtmegaCompareP__1__AtmegaCounter__get size 3 (2) */
 834               	.LFE84:
 836               		.section	.text.RandomCollisionLayerP__0__RadioAlarm__getNow,"ax",@progbits
 838               	RandomCollisionLayerP__0__RadioAlarm__getNow:
 839               	.LFB88:
 840               	.LSM95:
 841               	/* prologue: frame size=0 */
 842               	/* prologue end (size=0) */
 843               	.LBB2878:
 844               	.LBB2879:
 845               	.LBB2880:
 846               	.LBB2881:
 847               	.LBB2882:
 848               	.LSM96:
 849 0000 0E94 0000 		call AtmegaCompareP__1__AtmegaCounter__get
 850               	.LBE2882:
 851               	.LBE2881:
 852               	.LBE2880:
 853               	.LBE2879:
 854               	.LBE2878:
 855               	/* epilogue: frame size=0 */
 856 0004 0895      		ret
 857               	/* epilogue end (size=1) */
 858               	/* function RandomCollisionLayerP__0__RadioAlarm__getNow size 3 (2) */
 859               	.LFE88:
 861               		.section	.text.AtmegaCounterP__0__Counter__get,"ax",@progbits
 863               	AtmegaCounterP__0__Counter__get:
 864               	.LFB41:
 865               	.LSM97:
 866               	/* prologue: frame size=0 */
 867               	/* prologue end (size=0) */
 868               	.LBB2885:
 869               	.LSM98:
 870 0000 0E94 0000 		call HplAtmRfa1TimerMacP__Counter__get
 871               	.LBE2885:
 872               	/* epilogue: frame size=0 */
 873 0004 0895      		ret
 874               	/* epilogue end (size=1) */
 875               	/* function AtmegaCounterP__0__Counter__get size 3 (2) */
 876               	.LFE41:
 878               		.section	.text.CounterToLocalTimeC__1__LocalTime__get,"ax",@progbits
 880               	CounterToLocalTimeC__1__LocalTime__get:
 881               	.LFB144:
 882               	.LSM99:
 883               	/* prologue: frame size=0 */
 884               	/* prologue end (size=0) */
 885               	.LBB2888:
 886               	.LSM100:
 887 0000 0E94 0000 		call AtmegaCounterP__0__Counter__get
 888               	.LBE2888:
 889               	/* epilogue: frame size=0 */
 890 0004 0895      		ret
 891               	/* epilogue end (size=1) */
 892               	/* function CounterToLocalTimeC__1__LocalTime__get size 3 (2) */
 893               	.LFE144:
 895               		.section	.text.TransformCounterC__0__CounterFrom__get,"ax",@progbits
 897               	TransformCounterC__0__CounterFrom__get:
 898               	.LFB42:
 899               	.LSM101:
 900               	/* prologue: frame size=0 */
 901               	/* prologue end (size=0) */
 902 0000 0E94 0000 		call AtmegaCounterP__0__Counter__get
 903               	/* epilogue: frame size=0 */
 904 0004 0895      		ret
 905               	/* epilogue end (size=1) */
 906               	/* function TransformCounterC__0__CounterFrom__get size 3 (2) */
 907               	.LFE42:
 909               		.section	.text.TransformAlarmC__0__Counter__get,"ax",@progbits
 911               	TransformAlarmC__0__Counter__get:
 912               	.LFB361:
 913               	.LSM102:
 914               	/* prologue: frame size=0 */
 915 0000 0F93      		push r16
 916 0002 1F93      		push r17
 917               	/* prologue end (size=2) */
 918               	.LBB2909:
 919               	.LBB2910:
 920               	.LBB2911:
 921               	.LBB2912:
 922               	.LBB2913:
 923               	.LSM103:
 924 0004 0FB7      		in r16,95-0x20
 925               	.LVL30:
 926               	.LBB2914:
 927               	.LBB2915:
 928               	.LSM104:
 929               	/* #APP */
 930 0006 F894      		cli
 931               	/* #NOAPP */
 932               	.LBE2915:
 933               	.LBE2914:
 934               	.LSM105:
 935               	.LBE2913:
 936               	.LBE2912:
 937               	.LBB2916:
 938               	.LSM106:
 939 0008 1091 0000 		lds r17,TransformCounterC__0__m_upper
 940               	.LVL31:
 941               	.LBE2916:
 942               	.LBE2911:
 943               	.LBE2910:
 944               	.LSM107:
 945 000c 0E94 0000 		call TransformCounterC__0__CounterFrom__get
 946 0010 9B01      		movw r18,r22
 947 0012 AC01      		movw r20,r24
 948               	.LVL32:
 949               	.LBB2917:
 950               	.LBB2918:
 951               	.LBB2919:
 952               	.LBB2920:
 953               	.LBB2921:
 954               	.LBB2922:
 955               	.LBB2923:
 956               	.LBB2924:
 957               	.LBB2925:
 958               	.LBB2926:
 959               	.LBB2927:
 960               	.LBB2928:
 961               	.LSM108:
 962 0014 8091 E000 		lds r24,224
 963               	.LBE2928:
 964               	.LBE2927:
 965               	.LBE2926:
 966               	.LBE2925:
 967               	.LBE2924:
 968               	.LBE2923:
 969               	.LBE2922:
 970               	.LBE2921:
 971               	.LBE2920:
 972               	.LSM109:
 973 0018 83FF      		sbrs r24,3
 974 001a 00C0      		rjmp .L87
 975               	.LSM110:
 976 001c 1F5F      		subi r17,lo8(-(1))
 977               	.LBE2919:
 978               	.LBE2918:
 979               	.LBE2917:
 980               	.LSM111:
 981 001e 0E94 0000 		call TransformCounterC__0__CounterFrom__get
 982               	.LVL33:
 983 0022 9B01      		movw r18,r22
 984 0024 AC01      		movw r20,r24
 985               	.LVL34:
 986               	.L87:
 987               	.LBB2929:
 988               	.LBB2930:
 989               	.LBB2931:
 990               	.LBB2932:
 991               	.LSM112:
 992               	.LBE2932:
 993               	.LBE2931:
 994               	.LSM113:
 995 0026 802F      		mov r24,r16
 996 0028 9927      		clr r25
 997               	.LBB2933:
 998               	.LBB2934:
 999               	.LSM114:
 1000 002a 8FBF      		out 95-0x20,r24
 1001 002c 612F      		mov r22,r17
 1002 002e 7727      		clr r23
 1003 0030 8827      		clr r24
 1004 0032 9927      		clr r25
 1005 0034 FAE1      		ldi r31,26
 1006 0036 660F      	1:	lsl r22
 1007 0038 771F      		rol r23
 1008 003a 881F      		rol r24
 1009 003c 991F      		rol r25
 1010 003e FA95      		dec r31
 1011 0040 01F4      		brne 1b
 1012 0042 E6E0      		ldi r30,6
 1013 0044 5695      	1:	lsr r21
 1014 0046 4795      		ror r20
 1015 0048 3795      		ror r19
 1016 004a 2795      		ror r18
 1017 004c EA95      		dec r30
 1018 004e 01F4      		brne 1b
 1019 0050 622B      		or r22,r18
 1020 0052 732B      		or r23,r19
 1021 0054 842B      		or r24,r20
 1022 0056 952B      		or r25,r21
 1023               	.LBE2934:
 1024               	.LBE2933:
 1025               	.LBE2930:
 1026               	.LBE2929:
 1027               	.LBE2909:
 1028               	/* epilogue: frame size=0 */
 1029 0058 1F91      		pop r17
 1030 005a 0F91      		pop r16
 1031 005c 0895      		ret
 1032               	/* epilogue end (size=3) */
 1033               	/* function TransformAlarmC__0__Counter__get size 52 (47) */
 1034               	.LFE361:
 1036               		.section	.text.TransformAlarmC__0__set_alarm,"ax",@progbits
 1038               	TransformAlarmC__0__set_alarm:
 1039               	.LFB577:
 1040               	.LSM115:
 1041               	/* prologue: frame size=0 */
 1042 0000 AF92      		push r10
 1043 0002 BF92      		push r11
 1044 0004 CF92      		push r12
 1045 0006 DF92      		push r13
 1046 0008 EF92      		push r14
 1047 000a FF92      		push r15
 1048 000c 0F93      		push r16
 1049 000e 1F93      		push r17
 1050               	/* prologue end (size=8) */
 1051               	.LSM116:
 1052 0010 0E94 0000 		call TransformAlarmC__0__Counter__get
 1053 0014 7B01      		movw r14,r22
 1054 0016 8C01      		movw r16,r24
 1055               	.LVL35:
 1056               	.LSM117:
 1057 0018 2091 0000 		lds r18,TransformAlarmC__0__m_t0
 1058 001c 3091 0000 		lds r19,(TransformAlarmC__0__m_t0)+1
 1059 0020 4091 0000 		lds r20,(TransformAlarmC__0__m_t0)+2
 1060 0024 5091 0000 		lds r21,(TransformAlarmC__0__m_t0)+3
 1061 0028 8091 0000 		lds r24,TransformAlarmC__0__m_dt
 1062 002c 9091 0000 		lds r25,(TransformAlarmC__0__m_dt)+1
 1063 0030 A091 0000 		lds r26,(TransformAlarmC__0__m_dt)+2
 1064 0034 B091 0000 		lds r27,(TransformAlarmC__0__m_dt)+3
 1065               	.LVL36:
 1066 0038 820F      		add r24,r18
 1067 003a 931F      		adc r25,r19
 1068 003c A41F      		adc r26,r20
 1069 003e B51F      		adc r27,r21
 1070               	.LSM118:
 1071 0040 E216      		cp r14,r18
 1072 0042 F306      		cpc r15,r19
 1073 0044 0407      		cpc r16,r20
 1074 0046 1507      		cpc r17,r21
 1075 0048 00F0      		brlo .L91
 1076               	.LSM119:
 1077 004a 8217      		cp r24,r18
 1078 004c 9307      		cpc r25,r19
 1079 004e A407      		cpc r26,r20
 1080 0050 B507      		cpc r27,r21
 1081 0052 00F0      		brlo .L93
 1082 0054 00C0      		rjmp .L103
 1083               	.L91:
 1084               	.LSM120:
 1085 0056 8217      		cp r24,r18
 1086 0058 9307      		cpc r25,r19
 1087 005a A407      		cpc r26,r20
 1088 005c B507      		cpc r27,r21
 1089 005e 00F4      		brsh .L95
 1090               	.L103:
 1091 0060 E816      		cp r14,r24
 1092 0062 F906      		cpc r15,r25
 1093 0064 0A07      		cpc r16,r26
 1094 0066 1B07      		cpc r17,r27
 1095 0068 00F4      		brsh .L95
 1096               	.L93:
 1097               	.LSM121:
 1098 006a 9C01      		movw r18,r24
 1099 006c AD01      		movw r20,r26
 1100               	.LVL37:
 1101 006e 2E19      		sub r18,r14
 1102 0070 3F09      		sbc r19,r15
 1103 0072 400B      		sbc r20,r16
 1104 0074 510B      		sbc r21,r17
 1105               	.LSM122:
 1106 0076 2130      		cpi r18,lo8(33554433)
 1107 0078 60E0      		ldi r22,hi8(33554433)
 1108 007a 3607      		cpc r19,r22
 1109 007c 60E0      		ldi r22,hlo8(33554433)
 1110 007e 4607      		cpc r20,r22
 1111 0080 62E0      		ldi r22,hhi8(33554433)
 1112 0082 5607      		cpc r21,r22
 1113 0084 00F0      		brlo .L97
 1114               	.LSM123:
 1115 0086 80E0      		ldi r24,lo8(33554432)
 1116 0088 90E0      		ldi r25,hi8(33554432)
 1117 008a A0E0      		ldi r26,hlo8(33554432)
 1118 008c B2E0      		ldi r27,hhi8(33554432)
 1119               	.LVL38:
 1120 008e E80E      		add r14,r24
 1121 0090 F91E      		adc r15,r25
 1122 0092 0A1F      		adc r16,r26
 1123 0094 1B1F      		adc r17,r27
 1124 0096 E092 0000 		sts TransformAlarmC__0__m_t0,r14
 1125 009a F092 0000 		sts (TransformAlarmC__0__m_t0)+1,r15
 1126 009e 0093 0000 		sts (TransformAlarmC__0__m_t0)+2,r16
 1127 00a2 1093 0000 		sts (TransformAlarmC__0__m_t0)+3,r17
 1128 00a6 80E0      		ldi r24,lo8(-33554432)
 1129 00a8 90E0      		ldi r25,hi8(-33554432)
 1130 00aa A0E0      		ldi r26,hlo8(-33554432)
 1131 00ac BEEF      		ldi r27,hhi8(-33554432)
 1132 00ae E80E      		add r14,r24
 1133 00b0 F91E      		adc r15,r25
 1134 00b2 0A1F      		adc r16,r26
 1135 00b4 1B1F      		adc r17,r27
 1136               	.LSM124:
 1137 00b6 2050      		subi r18,lo8(-(-33554432))
 1138 00b8 3040      		sbci r19,hi8(-(-33554432))
 1139 00ba 4040      		sbci r20,hlo8(-(-33554432))
 1140 00bc 5240      		sbci r21,hhi8(-(-33554432))
 1141 00be 2093 0000 		sts TransformAlarmC__0__m_dt,r18
 1142 00c2 3093 0000 		sts (TransformAlarmC__0__m_dt)+1,r19
 1143 00c6 4093 0000 		sts (TransformAlarmC__0__m_dt)+2,r20
 1144 00ca 5093 0000 		sts (TransformAlarmC__0__m_dt)+3,r21
 1145 00ce 20E0      		ldi r18,lo8(33554432)
 1146 00d0 30E0      		ldi r19,hi8(33554432)
 1147 00d2 40E0      		ldi r20,hlo8(33554432)
 1148 00d4 52E0      		ldi r21,hhi8(33554432)
 1149 00d6 00C0      		rjmp .L99
 1150               	.LVL39:
 1151               	.L95:
 1152 00d8 20E0      		ldi r18,lo8(0)
 1153 00da 30E0      		ldi r19,hi8(0)
 1154 00dc 40E0      		ldi r20,hlo8(0)
 1155 00de 50E0      		ldi r21,hhi8(0)
 1156               	.LVL40:
 1157               	.L97:
 1158               	.LSM125:
 1159 00e0 8093 0000 		sts TransformAlarmC__0__m_t0,r24
 1160 00e4 9093 0000 		sts (TransformAlarmC__0__m_t0)+1,r25
 1161 00e8 A093 0000 		sts (TransformAlarmC__0__m_t0)+2,r26
 1162 00ec B093 0000 		sts (TransformAlarmC__0__m_t0)+3,r27
 1163               	.LSM126:
 1164 00f0 1092 0000 		sts TransformAlarmC__0__m_dt,__zero_reg__
 1165 00f4 1092 0000 		sts (TransformAlarmC__0__m_dt)+1,__zero_reg__
 1166 00f8 1092 0000 		sts (TransformAlarmC__0__m_dt)+2,__zero_reg__
 1167 00fc 1092 0000 		sts (TransformAlarmC__0__m_dt)+3,__zero_reg__
 1168               	.L99:
 1169               	.LSM127:
 1170 0100 5901      		movw r10,r18
 1171 0102 6A01      		movw r12,r20
 1172               	.LVL41:
 1173 0104 B6E0      		ldi r27,6
 1174 0106 AA0C      	1:	lsl r10
 1175 0108 BB1C      		rol r11
 1176 010a CC1C      		rol r12
 1177 010c DD1C      		rol r13
 1178 010e BA95      		dec r27
 1179 0110 01F4      		brne 1b
 1180 0112 A6E0      		ldi r26,6
 1181 0114 EE0C      	1:	lsl r14
 1182 0116 FF1C      		rol r15
 1183 0118 001F      		rol r16
 1184 011a 111F      		rol r17
 1185 011c AA95      		dec r26
 1186 011e 01F4      		brne 1b
 1187               	.LVL42:
 1188               	.LBB2960:
 1189               	.LBB2961:
 1190               	.LBB2962:
 1191               	.LBB2963:
 1192               	.LBB2964:
 1193               	.LBB2965:
 1194               	.LSM128:
 1195 0120 0E94 0000 		call HplAtmRfa1TimerMacP__Counter__get
 1196               	.LVL43:
 1197 0124 9B01      		movw r18,r22
 1198 0126 AC01      		movw r20,r24
 1199               	.LVL44:
 1200               	.LBE2965:
 1201               	.LSM129:
 1202 0128 2E5F      		subi r18,lo8(-(2))
 1203 012a 3F4F      		sbci r19,hi8(-(2))
 1204 012c 4F4F      		sbci r20,hlo8(-(2))
 1205 012e 5F4F      		sbci r21,hhi8(-(2))
 1206               	.LSM130:
 1207 0130 DA01      		movw r26,r20
 1208 0132 C901      		movw r24,r18
 1209 0134 8E19      		sub r24,r14
 1210 0136 9F09      		sbc r25,r15
 1211 0138 A00B      		sbc r26,r16
 1212 013a B10B      		sbc r27,r17
 1213 013c 8A15      		cp r24,r10
 1214 013e 9B05      		cpc r25,r11
 1215 0140 AC05      		cpc r26,r12
 1216 0142 BD05      		cpc r27,r13
 1217 0144 00F4      		brsh .L100
 1218               	.LSM131:
 1219 0146 A801      		movw r20,r16
 1220 0148 9701      		movw r18,r14
 1221 014a 2A0D      		add r18,r10
 1222 014c 3B1D      		adc r19,r11
 1223 014e 4C1D      		adc r20,r12
 1224 0150 5D1D      		adc r21,r13
 1225               	.L100:
 1226               	.LVL45:
 1227               	.LBB2966:
 1228               	.LBB2967:
 1229               	.LBB2968:
 1230               	.LBB2969:
 1231               	.LBB2970:
 1232               	.LBB2971:
 1233               	.LSM132:
 1234 0152 5093 F800 		sts 248,r21
 1235               	.LVL46:
 1236               	.LSM133:
 1237 0156 4093 F700 		sts 247,r20
 1238               	.LVL47:
 1239               	.LSM134:
 1240 015a 3093 F600 		sts 246,r19
 1241               	.LSM135:
 1242 015e 2093 F500 		sts 245,r18
 1243               	.LBE2971:
 1244               	.LBE2970:
 1245               	.LBE2969:
 1246               	.LBE2968:
 1247               	.LBB2972:
 1248               	.LBB2973:
 1249               	.LBB2974:
 1250               	.LBB2975:
 1251               	.LSM136:
 1252 0162 81E0      		ldi r24,lo8(1)
 1253 0164 8093 E000 		sts 224,r24
 1254               	.LBE2975:
 1255               	.LBE2974:
 1256               	.LBE2973:
 1257               	.LBE2972:
 1258               	.LBB2976:
 1259               	.LBB2977:
 1260               	.LBB2978:
 1261               	.LBB2979:
 1262               	.LSM137:
 1263 0168 8091 DF00 		lds r24,223
 1264 016c 8160      		ori r24,lo8(1)
 1265 016e 8093 DF00 		sts 223,r24
 1266               	.LBB2980:
 1267               	.LBB2981:
 1268               	.LBB2982:
 1269               	.LBB2983:
 1270               	.LSM138:
 1271 0172 8FEF      		ldi r24,lo8(-1)
 1272 0174 8093 0000 		sts McuSleepC__powerState,r24
 1273               	.LBE2983:
 1274               	.LBE2982:
 1275               	.LBE2981:
 1276               	.LBE2980:
 1277               	.LBE2979:
 1278               	.LBE2978:
 1279               	.LBE2977:
 1280               	.LBE2976:
 1281               	.LBE2967:
 1282               	.LBE2966:
 1283               	.LBE2964:
 1284               	.LBE2963:
 1285               	.LBE2962:
 1286               	.LBE2961:
 1287               	.LBE2960:
 1288               	/* epilogue: frame size=0 */
 1289 0178 1F91      		pop r17
 1290 017a 0F91      		pop r16
 1291 017c FF90      		pop r15
 1292 017e EF90      		pop r14
 1293 0180 DF90      		pop r13
 1294 0182 CF90      		pop r12
 1295 0184 BF90      		pop r11
 1296 0186 AF90      		pop r10
 1297 0188 0895      		ret
 1298               	/* epilogue end (size=9) */
 1299               	/* function TransformAlarmC__0__set_alarm size 197 (180) */
 1300               	.LFE577:
 1302               		.section	.text.__vector_65,"ax",@progbits
 1303               	.global	__vector_65
 1305               	__vector_65:
 1306               	.LFB576:
 1307               	.LSM139:
 1308               	/* prologue: frame size=0 */
 1309 0000 1F92      		push __zero_reg__
 1310 0002 0F92      		push __tmp_reg__
 1311 0004 0FB6      		in __tmp_reg__,__SREG__
 1312 0006 0F92      		push __tmp_reg__
 1313 0008 1124      		clr __zero_reg__
 1314 000a 2F93      		push r18
 1315 000c 3F93      		push r19
 1316 000e 4F93      		push r20
 1317 0010 5F93      		push r21
 1318 0012 6F93      		push r22
 1319 0014 7F93      		push r23
 1320 0016 8F93      		push r24
 1321 0018 9F93      		push r25
 1322 001a AF93      		push r26
 1323 001c BF93      		push r27
 1324 001e EF93      		push r30
 1325 0020 FF93      		push r31
 1326               	/* prologue end (size=17) */
 1327               	.LBB3006:
 1328               	.LBB3007:
 1329               	.LBB3008:
 1330               	.LBB3009:
 1331               	.LBB3010:
 1332               	.LBB3011:
 1333               	.LBB3012:
 1334               	.LBB3013:
 1335               	.LSM140:
 1336 0022 8091 DF00 		lds r24,223
 1337 0026 8E7F      		andi r24,lo8(-2)
 1338 0028 8093 DF00 		sts 223,r24
 1339               	.LBB3014:
 1340               	.LBB3015:
 1341               	.LBB3016:
 1342               	.LBB3017:
 1343               	.LSM141:
 1344 002c 8FEF      		ldi r24,lo8(-1)
 1345 002e 8093 0000 		sts McuSleepC__powerState,r24
 1346               	.LBE3017:
 1347               	.LBE3016:
 1348               	.LBE3015:
 1349               	.LBE3014:
 1350               	.LBE3013:
 1351               	.LBE3012:
 1352               	.LBE3011:
 1353               	.LBE3010:
 1354               	.LBB3018:
 1355               	.LBB3019:
 1356               	.LBB3020:
 1357               	.LBB3021:
 1358               	.LSM142:
 1359 0032 8091 0000 		lds r24,TransformAlarmC__0__m_dt
 1360 0036 9091 0000 		lds r25,(TransformAlarmC__0__m_dt)+1
 1361 003a A091 0000 		lds r26,(TransformAlarmC__0__m_dt)+2
 1362 003e B091 0000 		lds r27,(TransformAlarmC__0__m_dt)+3
 1363 0042 0097      		sbiw r24,0
 1364 0044 A105      		cpc r26,__zero_reg__
 1365 0046 B105      		cpc r27,__zero_reg__
 1366 0048 01F4      		brne .L105
 1367               	.LBB3022:
 1368               	.LBB3023:
 1369               	.LBB3024:
 1370               	.LBB3025:
 1371               	.LBB3026:
 1372               	.LSM143:
 1373 004a 89E0      		ldi r24,lo8(9)
 1374 004c 0E94 0000 		call SchedulerBasicP__TaskBasic__postTask
 1375 0050 00C0      		rjmp .L108
 1376               	.L105:
 1377               	.LBE3026:
 1378               	.LBE3025:
 1379               	.LBE3024:
 1380               	.LBE3023:
 1381               	.LBE3022:
 1382               	.LSM144:
 1383 0052 0E94 0000 		call TransformAlarmC__0__set_alarm
 1384               	.L108:
 1385               	.LBE3021:
 1386               	.LBE3020:
 1387               	.LBE3019:
 1388               	.LBE3018:
 1389               	.LBE3009:
 1390               	.LBE3008:
 1391               	.LBE3007:
 1392               	.LBE3006:
 1393               	/* epilogue: frame size=0 */
 1394 0056 FF91      		pop r31
 1395 0058 EF91      		pop r30
 1396 005a BF91      		pop r27
 1397 005c AF91      		pop r26
 1398 005e 9F91      		pop r25
 1399 0060 8F91      		pop r24
 1400 0062 7F91      		pop r23
 1401 0064 6F91      		pop r22
 1402 0066 5F91      		pop r21
 1403 0068 4F91      		pop r20
 1404 006a 3F91      		pop r19
 1405 006c 2F91      		pop r18
 1406 006e 0F90      		pop __tmp_reg__
 1407 0070 0FBE      		out __SREG__,__tmp_reg__
 1408 0072 0F90      		pop __tmp_reg__
 1409 0074 1F90      		pop __zero_reg__
 1410 0076 1895      		reti
 1411               	/* epilogue end (size=17) */
 1412               	/* function __vector_65 size 60 (26) */
 1413               	.LFE576:
 1415               		.section	.text.VirtualizeTimerC__0__TimerFrom__getNow,"ax",@progbits
 1417               	VirtualizeTimerC__0__TimerFrom__getNow:
 1418               	.LFB365:
 1419               	.LSM145:
 1420               	/* prologue: frame size=0 */
 1421               	/* prologue end (size=0) */
 1422               	.LBB3033:
 1423               	.LBB3034:
 1424               	.LBB3035:
 1425               	.LBB3036:
 1426               	.LBB3037:
 1427               	.LSM146:
 1428 0000 0E94 0000 		call TransformAlarmC__0__Counter__get
 1429               	.LBE3037:
 1430               	.LBE3036:
 1431               	.LBE3035:
 1432               	.LBE3034:
 1433               	.LBE3033:
 1434               	/* epilogue: frame size=0 */
 1435 0004 0895      		ret
 1436               	/* epilogue end (size=1) */
 1437               	/* function VirtualizeTimerC__0__TimerFrom__getNow size 3 (2) */
 1438               	.LFE365:
 1440               		.section	.text.MetadataFlagsLayerC__0__PacketFlag__set,"ax",@progbits
 1442               	MetadataFlagsLayerC__0__PacketFlag__set:
 1443               	.LFB583:
 1444               	.LSM147:
 1445               	/* prologue: frame size=0 */
 1446               	/* prologue end (size=0) */
 1447               	.LVL48:
 1448 0000 FB01      		movw r30,r22
 1449               	.LSM148:
 1450 0002 21E0      		ldi r18,lo8(1)
 1451 0004 30E0      		ldi r19,hi8(1)
 1452 0006 00C0      		rjmp 2f
 1453 0008 220F      	1:	lsl r18
 1454 000a 331F      		rol r19
 1455 000c 8A95      	2:	dec r24
 1456 000e 02F4      		brpl 1b
 1457 0010 87A5      		ldd r24,Z+47
 1458               	.LVL49:
 1459 0012 822B      		or r24,r18
 1460 0014 87A7      		std Z+47,r24
 1461               	/* epilogue: frame size=0 */
 1462 0016 0895      		ret
 1463               	/* epilogue end (size=1) */
 1464               	/* function MetadataFlagsLayerC__0__PacketFlag__set size 13 (12) */
 1465               	.LFE583:
 1467               		.section	.text.RFA1DriverLayerP__PacketTimeStamp__set,"ax",@progbits
 1469               	RFA1DriverLayerP__PacketTimeStamp__set:
 1470               	.LFB215:
 1471               	.LSM149:
 1472               	/* prologue: frame size=0 */
 1473 0000 CF92      		push r12
 1474 0002 DF92      		push r13
 1475 0004 EF92      		push r14
 1476 0006 FF92      		push r15
 1477 0008 0F93      		push r16
 1478 000a 1F93      		push r17
 1479               	/* prologue end (size=6) */
 1480               	.LVL50:
 1481 000c 6C01      		movw r12,r24
 1482 000e 7A01      		movw r14,r20
 1483 0010 8B01      		movw r16,r22
 1484               	.LBB3058:
 1485               	.LBB3059:
 1486               	.LBB3060:
 1487               	.LBB3061:
 1488               	.LSM150:
 1489 0012 BC01      		movw r22,r24
 1490 0014 81E0      		ldi r24,lo8(1)
 1491               	.LVL51:
 1492 0016 0E94 0000 		call MetadataFlagsLayerC__0__PacketFlag__set
 1493               	.LVL52:
 1494               	.LBE3061:
 1495               	.LBE3060:
 1496               	.LSM151:
 1497 001a F601      		movw r30,r12
 1498 001c E3A6      		std Z+43,r14
 1499 001e F4A6      		std Z+44,r15
 1500 0020 05A7      		std Z+45,r16
 1501 0022 16A7      		std Z+46,r17
 1502               	.LBE3059:
 1503               	.LBE3058:
 1504               	/* epilogue: frame size=0 */
 1505 0024 1F91      		pop r17
 1506 0026 0F91      		pop r16
 1507 0028 FF90      		pop r15
 1508 002a EF90      		pop r14
 1509 002c DF90      		pop r13
 1510 002e CF90      		pop r12
 1511 0030 0895      		ret
 1512               	/* epilogue end (size=7) */
 1513               	/* function RFA1DriverLayerP__PacketTimeStamp__set size 25 (12) */
 1514               	.LFE215:
 1516               		.section	.text.Ieee154PacketLayerP__0__Ieee154PacketLayer__getAckRequired,"ax",@progbits
 1518               	Ieee154PacketLayerP__0__Ieee154PacketLayer__getAckRequired:
 1519               	.LFB586:
 1520               	.LSM152:
 1521               	/* prologue: frame size=0 */
 1522               	/* prologue end (size=0) */
 1523               	.LVL53:
 1524 0000 FC01      		movw r30,r24
 1525               	.LBB3062:
 1526               	.LBB3063:
 1527               	.LSM153:
 1528 0002 8281      		ldd r24,Z+2
 1529               	.LVL54:
 1530 0004 9927      		clr r25
 1531 0006 982F      		mov r25,r24
 1532 0008 8827      		clr r24
 1533 000a 2181      		ldd r18,Z+1
 1534 000c 3327      		clr r19
 1535 000e 822B      		or r24,r18
 1536 0010 932B      		or r25,r19
 1537 0012 25E0      		ldi r18,5
 1538 0014 9695      	1:	lsr r25
 1539 0016 8795      		ror r24
 1540 0018 2A95      		dec r18
 1541 001a 01F4      		brne 1b
 1542               	.LBE3063:
 1543               	.LBE3062:
 1544               	.LSM154:
 1545 001c 8170      		andi r24,lo8(1)
 1546 001e 9070      		andi r25,hi8(1)
 1547               	/* epilogue: frame size=0 */
 1548 0020 0895      		ret
 1549               	/* epilogue end (size=1) */
 1550               	/* function Ieee154PacketLayerP__0__Ieee154PacketLayer__getAckRequired size 17 (16) */
 1551               	.LFE586:
 1553               		.section	.text.Ieee154PacketLayerP__0__Ieee154PacketLayer__isDataFrame,"ax",@progbits
 1555               	Ieee154PacketLayerP__0__Ieee154PacketLayer__isDataFrame:
 1556               	.LFB587:
 1557               	.LSM155:
 1558               	/* prologue: frame size=0 */
 1559               	/* prologue end (size=0) */
 1560               	.LVL55:
 1561 0000 FC01      		movw r30,r24
 1562               	.LBB3064:
 1563               	.LBB3065:
 1564               	.LSM156:
 1565 0002 40E0      		ldi r20,lo8(0)
 1566 0004 50E0      		ldi r21,hi8(0)
 1567 0006 8281      		ldd r24,Z+2
 1568               	.LVL56:
 1569 0008 9927      		clr r25
 1570 000a 982F      		mov r25,r24
 1571 000c 8827      		clr r24
 1572 000e 2181      		ldd r18,Z+1
 1573 0010 3327      		clr r19
 1574 0012 822B      		or r24,r18
 1575 0014 932B      		or r25,r19
 1576 0016 8774      		andi r24,lo8(-13241)
 1577 0018 9C7C      		andi r25,hi8(-13241)
 1578 001a 8154      		subi r24,lo8(-30655)
 1579 001c 9848      		sbci r25,hi8(-30655)
 1580 001e 01F4      		brne .L119
 1581               	.LSM157:
 1582 0020 41E0      		ldi r20,lo8(1)
 1583 0022 50E0      		ldi r21,hi8(1)
 1584               	.L119:
 1585               	.LBE3065:
 1586               	.LBE3064:
 1587               	.LSM158:
 1588 0024 CA01      		movw r24,r20
 1589               	/* epilogue: frame size=0 */
 1590 0026 0895      		ret
 1591               	/* epilogue end (size=1) */
 1592               	/* function Ieee154PacketLayerP__0__Ieee154PacketLayer__isDataFrame size 21 (20) */
 1593               	.LFE587:
 1595               		.section	.text.Ieee154PacketLayerP__0__Ieee154PacketLayer__getDestAddr,"ax",@progbits
 1597               	Ieee154PacketLayerP__0__Ieee154PacketLayer__getDestAddr:
 1598               	.LFB588:
 1599               	.LSM159:
 1600               	/* prologue: frame size=0 */
 1601               	/* prologue end (size=0) */
 1602               	.LVL57:
 1603 0000 FC01      		movw r30,r24
 1604               	.LBB3066:
 1605               	.LBB3067:
 1606               	.LSM160:
 1607 0002 8781      		ldd r24,Z+7
 1608               	.LVL58:
 1609 0004 9927      		clr r25
 1610 0006 982F      		mov r25,r24
 1611 0008 8827      		clr r24
 1612 000a 2681      		ldd r18,Z+6
 1613 000c 3327      		clr r19
 1614               	.LBE3067:
 1615               	.LBE3066:
 1616               	.LSM161:
 1617 000e 822B      		or r24,r18
 1618 0010 932B      		or r25,r19
 1619               	/* epilogue: frame size=0 */
 1620 0012 0895      		ret
 1621               	/* epilogue end (size=1) */
 1622               	/* function Ieee154PacketLayerP__0__Ieee154PacketLayer__getDestAddr size 10 (9) */
 1623               	.LFE588:
 1625               		.section	.text.RadioAlarmP__0__RadioAlarm__wait,"ax",@progbits
 1627               	RadioAlarmP__0__RadioAlarm__wait:
 1628               	.LFB199:
 1629               	.LSM162:
 1630               	/* prologue: frame size=0 */
 1631 0000 EF92      		push r14
 1632 0002 FF92      		push r15
 1633 0004 0F93      		push r16
 1634 0006 1F93      		push r17
 1635 0008 CF93      		push r28
 1636 000a DF93      		push r29
 1637               	/* prologue end (size=6) */
 1638               	.LVL59:
 1639 000c 7A01      		movw r14,r20
 1640 000e 8B01      		movw r16,r22
 1641               	.LSM163:
 1642 0010 8093 0000 		sts RadioAlarmP__0__alarm,r24
 1643               	.LSM164:
 1644 0014 81E0      		ldi r24,lo8(1)
 1645               	.LVL60:
 1646 0016 8093 0000 		sts RadioAlarmP__0__state,r24
 1647               	.LBB3098:
 1648               	.LBB3099:
 1649               	.LBB3100:
 1650               	.LBB3101:
 1651               	.LBB3102:
 1652               	.LBB3103:
 1653               	.LBB3104:
 1654               	.LSM165:
 1655 001a 8FB7      		in r24,95-0x20
 1656               	.LVL61:
 1657               	.LBB3105:
 1658               	.LBB3106:
 1659               	.LSM166:
 1660               	/* #APP */
 1661 001c F894      		cli
 1662               	/* #NOAPP */
 1663               	.LBE3106:
 1664               	.LBE3105:
 1665               	.LSM167:
 1666               	.LBE3104:
 1667               	.LBE3103:
 1668               	.LSM168:
 1669 001e C82F      		mov r28,r24
 1670 0020 DD27      		clr r29
 1671               	.LBE3102:
 1672               	.LBE3101:
 1673               	.LSM169:
 1674 0022 0E94 0000 		call AtmegaCompareP__1__AtmegaCounter__get
 1675               	.LVL62:
 1676 0026 9B01      		movw r18,r22
 1677 0028 AC01      		movw r20,r24
 1678               	.LVL63:
 1679               	.LBB3107:
 1680               	.LBB3108:
 1681               	.LBB3109:
 1682               	.LBB3110:
 1683               	.LBB3111:
 1684               	.LBB3112:
 1685               	.LBB3113:
 1686               	.LBB3114:
 1687               	.LBB3115:
 1688               	.LSM170:
 1689 002a C801      		movw r24,r16
 1690 002c B701      		movw r22,r14
 1691 002e 6230      		cpi r22,lo8(2)
 1692 0030 7105      		cpc r23,__zero_reg__
 1693 0032 8105      		cpc r24,__zero_reg__
 1694 0034 9105      		cpc r25,__zero_reg__
 1695 0036 00F4      		brsh .L125
 1696               	.LVL64:
 1697               	.LSM171:
 1698 0038 62E0      		ldi r22,lo8(2)
 1699 003a 70E0      		ldi r23,hi8(2)
 1700 003c 80E0      		ldi r24,hlo8(2)
 1701 003e 90E0      		ldi r25,hhi8(2)
 1702               	.L125:
 1703 0040 260F      		add r18,r22
 1704 0042 371F      		adc r19,r23
 1705 0044 481F      		adc r20,r24
 1706 0046 591F      		adc r21,r25
 1707 0048 DA01      		movw r26,r20
 1708 004a C901      		movw r24,r18
 1709               	.LSM172:
 1710 004c B093 F400 		sts 244,r27
 1711               	.LSM173:
 1712 0050 A093 F300 		sts 243,r26
 1713               	.LSM174:
 1714 0054 9093 F200 		sts 242,r25
 1715               	.LVL65:
 1716               	.LSM175:
 1717 0058 2093 F100 		sts 241,r18
 1718               	.LBE3115:
 1719               	.LBE3114:
 1720               	.LBE3113:
 1721               	.LBE3112:
 1722               	.LBB3116:
 1723               	.LBB3117:
 1724               	.LBB3118:
 1725               	.LBB3119:
 1726               	.LSM176:
 1727 005c 82E0      		ldi r24,lo8(2)
 1728 005e 8093 E000 		sts 224,r24
 1729               	.LBE3119:
 1730               	.LBE3118:
 1731               	.LBE3117:
 1732               	.LBE3116:
 1733               	.LBB3120:
 1734               	.LBB3121:
 1735               	.LBB3122:
 1736               	.LBB3123:
 1737               	.LSM177:
 1738 0062 8091 DF00 		lds r24,223
 1739 0066 8260      		ori r24,lo8(2)
 1740 0068 8093 DF00 		sts 223,r24
 1741               	.LBB3124:
 1742               	.LBB3125:
 1743               	.LBB3126:
 1744               	.LBB3127:
 1745               	.LSM178:
 1746 006c 8FEF      		ldi r24,lo8(-1)
 1747 006e 8093 0000 		sts McuSleepC__powerState,r24
 1748               	.LBE3127:
 1749               	.LBE3126:
 1750               	.LBE3125:
 1751               	.LBE3124:
 1752               	.LBE3123:
 1753               	.LBE3122:
 1754               	.LBE3121:
 1755               	.LBE3120:
 1756               	.LBE3111:
 1757               	.LBE3110:
 1758               	.LBE3109:
 1759               	.LBB3128:
 1760               	.LBB3129:
 1761               	.LSM179:
 1762               	.LSM180:
 1763 0072 CFBF      		out 95-0x20,r28
 1764               	.LBE3129:
 1765               	.LBE3128:
 1766               	.LBE3108:
 1767               	.LBE3107:
 1768               	.LBE3100:
 1769               	.LBE3099:
 1770               	.LBE3098:
 1771               	/* epilogue: frame size=0 */
 1772 0074 DF91      		pop r29
 1773 0076 CF91      		pop r28
 1774 0078 1F91      		pop r17
 1775 007a 0F91      		pop r16
 1776 007c FF90      		pop r15
 1777 007e EF90      		pop r14
 1778 0080 0895      		ret
 1779               	/* epilogue end (size=7) */
 1780               	/* function RadioAlarmP__0__RadioAlarm__wait size 70 (57) */
 1781               	.LFE199:
 1783               		.section	.text.RandomCollisionLayerP__0__RadioSend__sendDone,"ax",@progbits
 1785               	RandomCollisionLayerP__0__RadioSend__sendDone:
 1786               	.LFB64:
 1787               	.LSM181:
 1788               	/* prologue: frame size=0 */
 1789               	/* prologue end (size=0) */
 1790               	.LVL66:
 1791               	.LBB3132:
 1792               	.LBB3133:
 1793               	.LSM182:
 1794 0000 8093 0000 		sts MessageBufferLayerP__0__txError,r24
 1795               	.LSM183:
 1796 0004 8823      		tst r24
 1797 0006 01F4      		brne .L128
 1798               	.LSM184:
 1799 0008 84E0      		ldi r24,lo8(4)
 1800               	.LVL67:
 1801 000a 00C0      		rjmp .L132
 1802               	.LVL68:
 1803               	.L128:
 1804               	.LSM185:
 1805 000c 81E0      		ldi r24,lo8(1)
 1806               	.LVL69:
 1807               	.L132:
 1808 000e 8093 0000 		sts MessageBufferLayerP__0__state,r24
 1809               	.LSM186:
 1810 0012 0E94 0000 		call MessageBufferLayerP__0__sendTask__postTask
 1811               	.LBE3133:
 1812               	.LBE3132:
 1813               	/* epilogue: frame size=0 */
 1814 0016 0895      		ret
 1815               	/* epilogue end (size=1) */
 1816               	/* function RandomCollisionLayerP__0__RadioSend__sendDone size 12 (11) */
 1817               	.LFE64:
 1819               		.section	.text.SoftwareAckLayerC__0__RadioSend__sendDone,"ax",@progbits
 1821               	SoftwareAckLayerC__0__RadioSend__sendDone:
 1822               	.LFB66:
 1823               	.LSM187:
 1824               	/* prologue: frame size=0 */
 1825               	/* prologue end (size=0) */
 1826               	.LVL70:
 1827               	.LBB3136:
 1828               	.LBB3137:
 1829               	.LSM188:
 1830 0000 1092 0000 		sts RandomCollisionLayerP__0__state,__zero_reg__
 1831               	.LSM189:
 1832 0004 0E94 0000 		call RandomCollisionLayerP__0__RadioSend__sendDone
 1833               	.LVL71:
 1834               	.LBE3137:
 1835               	.LBE3136:
 1836               	/* epilogue: frame size=0 */
 1837 0008 0895      		ret
 1838               	/* epilogue end (size=1) */
 1839               	/* function SoftwareAckLayerC__0__RadioSend__sendDone size 5 (4) */
 1840               	.LFE66:
 1842               		.section	.text.SoftwareAckLayerC__0__Config__isAckPacket,"ax",@progbits
 1844               	SoftwareAckLayerC__0__Config__isAckPacket:
 1845               	.LFB174:
 1846               	.LSM190:
 1847               	/* prologue: frame size=0 */
 1848               	/* prologue end (size=0) */
 1849               	.LVL72:
 1850               	.LBB3168:
 1851               	.LBB3169:
 1852               	.LBB3170:
 1853               	.LBB3171:
 1854               	.LBB3172:
 1855               	.LBB3173:
 1856               	.LBB3174:
 1857               	.LBB3175:
 1858               	.LSM191:
 1859 0000 20E0      		ldi r18,lo8(0)
 1860 0002 FC01      		movw r30,r24
 1861 0004 8181      		ldd r24,Z+1
 1862               	.LVL73:
 1863 0006 8770      		andi r24,lo8(7)
 1864 0008 8230      		cpi r24,lo8(2)
 1865 000a 01F4      		brne .L136
 1866               	.LSM192:
 1867 000c 21E0      		ldi r18,lo8(1)
 1868               	.L136:
 1869               	.LBE3175:
 1870               	.LBE3174:
 1871               	.LBE3173:
 1872               	.LBE3172:
 1873               	.LBE3171:
 1874               	.LBE3170:
 1875               	.LBE3169:
 1876               	.LBE3168:
 1877               	.LSM193:
 1878 000e 822F      		mov r24,r18
 1879 0010 9927      		clr r25
 1880               	/* epilogue: frame size=0 */
 1881 0012 0895      		ret
 1882               	/* epilogue end (size=1) */
 1883               	/* function SoftwareAckLayerC__0__Config__isAckPacket size 10 (9) */
 1884               	.LFE174:
 1886               		.section	.text.RFA1RadioP__Ieee154PacketLayer__requiresAckReply,"ax",@progbits
 1888               	RFA1RadioP__Ieee154PacketLayer__requiresAckReply:
 1889               	.LFB142:
 1890               	.LSM194:
 1891               	/* prologue: frame size=0 */
 1892 0000 CF93      		push r28
 1893 0002 DF93      		push r29
 1894               	/* prologue end (size=2) */
 1895               	.LVL74:
 1896 0004 EC01      		movw r28,r24
 1897               	.LBB3191:
 1898               	.LSM195:
 1899 0006 0E94 0000 		call Ieee154PacketLayerP__0__Ieee154PacketLayer__getAckRequired
 1900               	.LVL75:
 1901 000a 8823      		tst r24
 1902 000c 01F0      		breq .L139
 1903               	.LSM196:
 1904 000e CE01      		movw r24,r28
 1905 0010 0E94 0000 		call Ieee154PacketLayerP__0__Ieee154PacketLayer__isDataFrame
 1906 0014 8823      		tst r24
 1907 0016 01F0      		breq .L139
 1908 0018 CE01      		movw r24,r28
 1909 001a 0E94 0000 		call Ieee154PacketLayerP__0__Ieee154PacketLayer__getDestAddr
 1910               	.LBB3192:
 1911               	.LBB3193:
 1912               	.LBB3194:
 1913               	.LBB3195:
 1914               	.LBB3196:
 1915               	.LBB3197:
 1916               	.LBB3198:
 1917               	.LBB3199:
 1918               	.LBB3200:
 1919               	.LBB3201:
 1920               	.LSM197:
 1921 001e 2FB7      		in r18,95-0x20
 1922               	.LVL76:
 1923               	.LBB3202:
 1924               	.LBB3203:
 1925               	.LSM198:
 1926               	/* #APP */
 1927 0020 F894      		cli
 1928               	/* #NOAPP */
 1929               	.LBE3203:
 1930               	.LBE3202:
 1931               	.LSM199:
 1932               	.LBE3201:
 1933               	.LBE3200:
 1934               	.LSM200:
 1935 0022 3327      		clr r19
 1936 0024 4091 0000 		lds r20,ActiveMessageAddressC__addr
 1937 0028 5091 0000 		lds r21,(ActiveMessageAddressC__addr)+1
 1938               	.LVL77:
 1939               	.LBB3204:
 1940               	.LBB3205:
 1941               	.LSM201:
 1942               	.LSM202:
 1943 002c 2FBF      		out 95-0x20,r18
 1944 002e 20E0      		ldi r18,lo8(0)
 1945               	.LVL78:
 1946 0030 8417      		cp r24,r20
 1947 0032 9507      		cpc r25,r21
 1948 0034 01F0      		breq .L142
 1949 0036 21E0      		ldi r18,lo8(1)
 1950               	.L142:
 1951 0038 81E0      		ldi r24,lo8(1)
 1952 003a 2827      		eor r18,r24
 1953 003c 822F      		mov r24,r18
 1954 003e 9927      		clr r25
 1955 0040 00C0      		rjmp .L143
 1956               	.LVL79:
 1957               	.L139:
 1958 0042 80E0      		ldi r24,lo8(0)
 1959 0044 90E0      		ldi r25,hi8(0)
 1960               	.LVL80:
 1961               	.L143:
 1962               	.LBE3205:
 1963               	.LBE3204:
 1964               	.LBE3199:
 1965               	.LBE3198:
 1966               	.LBE3197:
 1967               	.LBE3196:
 1968               	.LBE3195:
 1969               	.LBE3194:
 1970               	.LBE3193:
 1971               	.LBE3192:
 1972               	.LBE3191:
 1973               	/* epilogue: frame size=0 */
 1974 0046 DF91      		pop r29
 1975 0048 CF91      		pop r28
 1976 004a 0895      		ret
 1977               	/* epilogue end (size=3) */
 1978               	/* function RFA1RadioP__Ieee154PacketLayer__requiresAckReply size 43 (38) */
 1979               	.LFE142:
 1981               		.section	.text.MetadataFlagsLayerC__0__PacketFlag__get,"ax",@progbits
 1983               	MetadataFlagsLayerC__0__PacketFlag__get:
 1984               	.LFB596:
 1985               	.LSM203:
 1986               	/* prologue: frame size=0 */
 1987               	/* prologue end (size=0) */
 1988               	.LVL81:
 1989 0000 FB01      		movw r30,r22
 1990 0002 21E0      		ldi r18,lo8(1)
 1991 0004 30E0      		ldi r19,hi8(1)
 1992 0006 00C0      		rjmp 2f
 1993 0008 220F      	1:	lsl r18
 1994 000a 331F      		rol r19
 1995 000c 8A95      	2:	dec r24
 1996 000e 02F4      		brpl 1b
 1997 0010 87A5      		ldd r24,Z+47
 1998               	.LVL82:
 1999 0012 8223      		and r24,r18
 2000               	.LSM204:
 2001 0014 9927      		clr r25
 2002               	/* epilogue: frame size=0 */
 2003 0016 0895      		ret
 2004               	/* epilogue end (size=1) */
 2005               	/* function MetadataFlagsLayerC__0__PacketFlag__get size 13 (12) */
 2006               	.LFE596:
 2008               		.section	.text.RandomCollisionLayerP__0__RadioAlarm__wait,"ax",@progbits
 2010               	RandomCollisionLayerP__0__RadioAlarm__wait:
 2011               	.LFB598:
 2012               	.LSM205:
 2013               	/* prologue: frame size=0 */
 2014               	/* prologue end (size=0) */
 2015               	.LVL83:
 2016 0000 AB01      		movw r20,r22
 2017 0002 BC01      		movw r22,r24
 2018 0004 80E0      		ldi r24,lo8(0)
 2019 0006 0E94 0000 		call RadioAlarmP__0__RadioAlarm__wait
 2020               	.LVL84:
 2021               	/* epilogue: frame size=0 */
 2022 000a 0895      		ret
 2023               	/* epilogue end (size=1) */
 2024               	/* function RandomCollisionLayerP__0__RadioAlarm__wait size 6 (5) */
 2025               	.LFE598:
 2027               		.section	.text.RandomCollisionLayerP__0__RadioSend__ready,"ax",@progbits
 2029               	RandomCollisionLayerP__0__RadioSend__ready:
 2030               	.LFB83:
 2031               	.LSM206:
 2032               	/* prologue: frame size=0 */
 2033               	/* prologue end (size=0) */
 2034               	.LBB3208:
 2035               	.LBB3209:
 2036               	.LSM207:
 2037 0000 8091 0000 		lds r24,MessageBufferLayerP__0__state
 2038 0004 8230      		cpi r24,lo8(2)
 2039 0006 01F4      		brne .L152
 2040               	.LSM208:
 2041 0008 81E0      		ldi r24,lo8(1)
 2042 000a 8093 0000 		sts MessageBufferLayerP__0__state,r24
 2043               	.LSM209:
 2044 000e 0E94 0000 		call MessageBufferLayerP__0__sendTask__postTask
 2045               	.L152:
 2046 0012 0895      		ret
 2047               	.LBE3209:
 2048               	.LBE3208:
 2049               	/* epilogue: frame size=0 */
 2050               	/* epilogue: noreturn */
 2051               	/* epilogue end (size=0) */
 2052               	/* function RandomCollisionLayerP__0__RadioSend__ready size 10 (10) */
 2053               	.LFE83:
 2055               		.section	.text.RandomCollisionLayerP__0__getBackoff,"ax",@progbits
 2057               	RandomCollisionLayerP__0__getBackoff:
 2058               	.LFB600:
 2059               	.LSM210:
 2060               	/* prologue: frame size=0 */
 2061 0000 EF92      		push r14
 2062 0002 FF92      		push r15
 2063 0004 0F93      		push r16
 2064 0006 1F93      		push r17
 2065               	/* prologue end (size=4) */
 2066               	.LVL85:
 2067 0008 7C01      		movw r14,r24
 2068               	.LBB3223:
 2069               	.LBB3224:
 2070               	.LBB3225:
 2071               	.LSM211:
 2072 000a 8FB7      		in r24,95-0x20
 2073               	.LVL86:
 2074               	.LBB3226:
 2075               	.LBB3227:
 2076               	.LSM212:
 2077               	/* #APP */
 2078 000c F894      		cli
 2079               	/* #NOAPP */
 2080               	.LBE3227:
 2081               	.LBE3226:
 2082               	.LSM213:
 2083               	.LBE3225:
 2084               	.LBE3224:
 2085               	.LSM214:
 2086 000e 9927      		clr r25
 2087               	.LSM215:
 2088 0010 0091 0000 		lds r16,RandomCollisionLayerP__0__nextRandom
 2089 0014 1091 0000 		lds r17,(RandomCollisionLayerP__0__nextRandom)+1
 2090               	.LVL87:
 2091               	.LSM216:
 2092 0018 0F5E      		subi r16,lo8(-(273))
 2093 001a 1E4F      		sbci r17,hi8(-(273))
 2094 001c 1093 0000 		sts (RandomCollisionLayerP__0__nextRandom)+1,r17
 2095 0020 0093 0000 		sts RandomCollisionLayerP__0__nextRandom,r16
 2096 0024 0151      		subi r16,lo8(-(-273))
 2097 0026 1140      		sbci r17,hi8(-(-273))
 2098               	.LBB3228:
 2099               	.LBB3229:
 2100               	.LSM217:
 2101               	.LSM218:
 2102 0028 8FBF      		out 95-0x20,r24
 2103               	.LBE3229:
 2104               	.LBE3228:
 2105               	.LBE3223:
 2106               	.LBB3230:
 2107               	.LSM219:
 2108 002a 82E1      		ldi r24,lo8(18)
 2109               	.LVL88:
 2110 002c 0E94 0000 		call SchedulerBasicP__TaskBasic__postTask
 2111 0030 C801      		movw r24,r16
 2112 0032 B701      		movw r22,r14
 2113 0034 0E94 0000 		call __udivmodhi4
 2114               	.LBE3230:
 2115               	.LSM220:
 2116 0038 4496      		adiw r24,20
 2117               	/* epilogue: frame size=0 */
 2118 003a 1F91      		pop r17
 2119 003c 0F91      		pop r16
 2120 003e FF90      		pop r15
 2121 0040 EF90      		pop r14
 2122 0042 0895      		ret
 2123               	/* epilogue end (size=5) */
 2124               	/* function RandomCollisionLayerP__0__getBackoff size 39 (30) */
 2125               	.LFE600:
 2127               		.section	.text.__vector_67,"ax",@progbits
 2128               	.global	__vector_67
 2130               	__vector_67:
 2131               	.LFB601:
 2132               	.LSM221:
 2133               	/* prologue: frame size=0 */
 2134 0000 1F92      		push __zero_reg__
 2135 0002 0F92      		push __tmp_reg__
 2136 0004 0FB6      		in __tmp_reg__,__SREG__
 2137 0006 0F92      		push __tmp_reg__
 2138 0008 1124      		clr __zero_reg__
 2139               	/* prologue end (size=5) */
 2140               	/* epilogue: frame size=0 */
 2141 000a 0F90      		pop __tmp_reg__
 2142 000c 0FBE      		out __SREG__,__tmp_reg__
 2143 000e 0F90      		pop __tmp_reg__
 2144 0010 1F90      		pop __zero_reg__
 2145 0012 1895      		reti
 2146               	/* epilogue end (size=5) */
 2147               	/* function __vector_67 size 10 (0) */
 2148               	.LFE601:
 2150               		.section	.text.VirtualizeTimerC__0__startTimer,"ax",@progbits
 2152               	VirtualizeTimerC__0__startTimer:
 2153               	.LFB608:
 2154               	.LSM222:
 2155               	/* prologue: frame size=0 */
 2156 0000 EF92      		push r14
 2157 0002 0F93      		push r16
 2158 0004 1F93      		push r17
 2159               	/* prologue end (size=3) */
 2160               	.LVL89:
 2161 0006 AE2D      		mov r26,r14
 2162               	.LSM223:
 2163 0008 99E0      		ldi r25,lo8(9)
 2164 000a 899F      		mul r24,r25
 2165 000c F001      		movw r30,r0
 2166 000e 1124      		clr r1
 2167               	.LVL90:
 2168 0010 E050      		subi r30,lo8(-(VirtualizeTimerC__0__m_timers))
 2169 0012 F040      		sbci r31,hi8(-(VirtualizeTimerC__0__m_timers))
 2170               	.LSM224:
 2171 0014 4083      		st Z,r20
 2172 0016 5183      		std Z+1,r21
 2173 0018 6283      		std Z+2,r22
 2174 001a 7383      		std Z+3,r23
 2175               	.LSM225:
 2176 001c 0483      		std Z+4,r16
 2177 001e 1583      		std Z+5,r17
 2178 0020 2683      		std Z+6,r18
 2179 0022 3783      		std Z+7,r19
 2180               	.LSM226:
 2181 0024 A170      		andi r26,lo8(1)
 2182 0026 8085      		ldd r24,Z+8
 2183               	.LVL91:
 2184 0028 8E7F      		andi r24,lo8(-2)
 2185 002a 8A2B      		or r24,r26
 2186               	.LSM227:
 2187 002c 8260      		ori r24,lo8(2)
 2188 002e 8087      		std Z+8,r24
 2189               	.LSM228:
 2190 0030 0E94 0000 		call VirtualizeTimerC__0__updateFromTimer__postTask
 2191               	.LVL92:
 2192               	/* epilogue: frame size=0 */
 2193 0034 1F91      		pop r17
 2194 0036 0F91      		pop r16
 2195 0038 EF90      		pop r14
 2196 003a 0895      		ret
 2197               	/* epilogue end (size=4) */
 2198               	/* function VirtualizeTimerC__0__startTimer size 30 (23) */
 2199               	.LFE608:
 2201               		.section	.text.RoundRobinResourceQueueC__0__RoundRobinQueue__isEnqueued,"ax",@progbits
 2203               	RoundRobinResourceQueueC__0__RoundRobinQueue__isEnqueued:
 2204               	.LFB610:
 2205               	.LSM229:
 2206               	/* prologue: frame size=0 */
 2207               	/* prologue end (size=0) */
 2208               	.LVL93:
 2209 0000 982F      		mov r25,r24
 2210 0002 9695      		lsr r25
 2211 0004 9695      		lsr r25
 2212 0006 9695      		lsr r25
 2213 0008 E0E0      		ldi r30,lo8(RoundRobinResourceQueueC__0__resQ)
 2214 000a F0E0      		ldi r31,hi8(RoundRobinResourceQueueC__0__resQ)
 2215 000c E90F      		add r30,r25
 2216 000e F11D      		adc r31,__zero_reg__
 2217 0010 8770      		andi r24,lo8(7)
 2218 0012 21E0      		ldi r18,lo8(1)
 2219 0014 30E0      		ldi r19,hi8(1)
 2220 0016 00C0      		rjmp 2f
 2221 0018 220F      	1:	lsl r18
 2222 001a 331F      		rol r19
 2223 001c 8A95      	2:	dec r24
 2224 001e 02F4      		brpl 1b
 2225 0020 8081      		ld r24,Z
 2226               	.LVL94:
 2227 0022 8223      		and r24,r18
 2228               	.LSM230:
 2229 0024 9927      		clr r25
 2230               	/* epilogue: frame size=0 */
 2231 0026 0895      		ret
 2232               	/* epilogue end (size=1) */
 2233               	/* function RoundRobinResourceQueueC__0__RoundRobinQueue__isEnqueued size 21 (20) */
 2234               	.LFE610:
 2236               		.section	.text.ArbiterP__0__Resource__release,"ax",@progbits
 2238               	ArbiterP__0__Resource__release:
 2239               	.LFB609:
 2240               	.LSM231:
 2241               	/* prologue: frame size=0 */
 2242 0000 EF92      		push r14
 2243 0002 FF92      		push r15
 2244 0004 0F93      		push r16
 2245 0006 1F93      		push r17
 2246 0008 CF93      		push r28
 2247 000a DF93      		push r29
 2248               	/* prologue end (size=6) */
 2249               	.LVL95:
 2250 000c 982F      		mov r25,r24
 2251               	.LBB3287:
 2252               	.LBB3288:
 2253               	.LBB3289:
 2254               	.LSM232:
 2255 000e 8FB7      		in r24,95-0x20
 2256               	.LVL96:
 2257               	.LBB3290:
 2258               	.LBB3291:
 2259               	.LSM233:
 2260               	/* #APP */
 2261 0010 F894      		cli
 2262               	/* #NOAPP */
 2263               	.LBE3291:
 2264               	.LBE3290:
 2265               	.LSM234:
 2266               	.LBE3289:
 2267               	.LBE3288:
 2268               	.LSM235:
 2269 0012 E82E      		mov r14,r24
 2270               	.LVL97:
 2271               	.LSM236:
 2272 0014 8091 0000 		lds r24,ArbiterP__0__state
 2273               	.LVL98:
 2274 0018 8330      		cpi r24,lo8(3)
 2275 001a 01F0      		breq .+2
 2276 001c 00C0      		rjmp .L162
 2277               	.LSM237:
 2278 001e 8091 0000 		lds r24,ArbiterP__0__resId
 2279 0022 8917      		cp r24,r25
 2280 0024 01F0      		breq .+2
 2281 0026 00C0      		rjmp .L162
 2282               	.LBB3292:
 2283               	.LBB3293:
 2284               	.LBB3294:
 2285               	.LBB3295:
 2286               	.LSM238:
 2287 0028 8091 0000 		lds r24,RoundRobinResourceQueueC__0__resQ
 2288 002c 8823      		tst r24
 2289 002e 01F0      		breq .+2
 2290 0030 00C0      		rjmp .L165
 2291 0032 00C0      		rjmp .L179
 2292               	.LVL99:
 2293               	.L178:
 2294               	.LBE3295:
 2295               	.LBE3294:
 2296               	.LBE3293:
 2297               	.LBE3292:
 2298               	.LBB3296:
 2299               	.LBB3297:
 2300               	.LBB3298:
 2301               	.LBB3299:
 2302               	.LBB3300:
 2303               	.LBB3301:
 2304               	.LSM239:
 2305 0034 EF2D      		mov r30,r15
 2306 0036 E695      		lsr r30
 2307 0038 E695      		lsr r30
 2308 003a E695      		lsr r30
 2309 003c FF27      		clr r31
 2310 003e 4F2D      		mov r20,r15
 2311 0040 5527      		clr r21
 2312 0042 E050      		subi r30,lo8(-(RoundRobinResourceQueueC__0__resQ))
 2313 0044 F040      		sbci r31,hi8(-(RoundRobinResourceQueueC__0__resQ))
 2314 0046 9A01      		movw r18,r20
 2315 0048 2770      		andi r18,lo8(7)
 2316 004a 3070      		andi r19,hi8(7)
 2317 004c 81E0      		ldi r24,lo8(1)
 2318 004e 90E0      		ldi r25,hi8(1)
 2319 0050 00C0      		rjmp 2f
 2320 0052 880F      	1:	lsl r24
 2321 0054 991F      		rol r25
 2322 0056 2A95      	2:	dec r18
 2323 0058 02F4      		brpl 1b
 2324 005a 8095      		com r24
 2325 005c 2081      		ld r18,Z
 2326 005e 2823      		and r18,r24
 2327 0060 2083      		st Z,r18
 2328               	.LBE3301:
 2329               	.LBE3300:
 2330               	.LSM240:
 2331 0062 C093 0000 		sts RoundRobinResourceQueueC__0__last,r28
 2332 0066 00C0      		rjmp .L172
 2333               	.LVL100:
 2334               	.L180:
 2335               	.LSM241:
 2336 0068 2196      		adiw r28,1
 2337               	.LSM242:
 2338 006a C330      		cpi r28,3
 2339 006c D105      		cpc r29,__zero_reg__
 2340 006e 01F4      		brne .L168
 2341 0070 C0E0      		ldi r28,lo8(0)
 2342 0072 D0E0      		ldi r29,hi8(0)
 2343               	.L168:
 2344               	.LSM243:
 2345 0074 FC2E      		mov r15,r28
 2346               	.LBE3299:
 2347 0076 8C2F      		mov r24,r28
 2348 0078 0E94 0000 		call RoundRobinResourceQueueC__0__RoundRobinQueue__isEnqueued
 2349               	.LVL101:
 2350 007c 8823      		tst r24
 2351 007e 01F4      		brne .L178
 2352               	.LBB3302:
 2353               	.LSM244:
 2354 0080 C017      		cp r28,r16
 2355 0082 D107      		cpc r29,r17
 2356 0084 01F4      		brne .L180
 2357               	.LSM245:
 2358 0086 4FEF      		ldi r20,lo8(255)
 2359 0088 50E0      		ldi r21,hi8(255)
 2360               	.L172:
 2361               	.LBE3302:
 2362               	.LBE3298:
 2363               	.LBE3297:
 2364               	.LBE3296:
 2365               	.LSM246:
 2366 008a 4093 0000 		sts ArbiterP__0__reqResId,r20
 2367               	.LSM247:
 2368 008e 8FEF      		ldi r24,lo8(-1)
 2369 0090 8093 0000 		sts ArbiterP__0__resId,r24
 2370               	.LSM248:
 2371 0094 81E0      		ldi r24,lo8(1)
 2372 0096 8093 0000 		sts ArbiterP__0__state,r24
 2373               	.LSM249:
 2374 009a 0E94 0000 		call ArbiterP__0__grantedTask__postTask
 2375               	.LVL102:
 2376               	.L175:
 2377               	.LBB3303:
 2378               	.LBB3304:
 2379               	.LBB3305:
 2380               	.LSM250:
 2381               	.LSM251:
 2382 009e EFBE      		out 95-0x20,r14
 2383 00a0 80E0      		ldi r24,lo8(0)
 2384 00a2 90E0      		ldi r25,hi8(0)
 2385 00a4 00C0      		rjmp .L176
 2386               	.LVL103:
 2387               	.L162:
 2388               	.LBE3305:
 2389               	.LBE3304:
 2390               	.LBE3303:
 2391               	.LBB3306:
 2392               	.LBB3307:
 2393               	.LSM252:
 2394               	.LSM253:
 2395 00a6 EFBE      		out 95-0x20,r14
 2396 00a8 81E0      		ldi r24,lo8(1)
 2397 00aa 90E0      		ldi r25,hi8(1)
 2398 00ac 00C0      		rjmp .L176
 2399               	.L179:
 2400               	.LBE3307:
 2401               	.LBE3306:
 2402               	.LSM254:
 2403 00ae 83E0      		ldi r24,lo8(3)
 2404 00b0 8093 0000 		sts ArbiterP__0__resId,r24
 2405               	.LSM255:
 2406 00b4 1092 0000 		sts ArbiterP__0__state,__zero_reg__
 2407               	.LBB3308:
 2408               	.LBB3309:
 2409               	.LBB3310:
 2410               	.LBB3311:
 2411               	.LBB3312:
 2412               	.LBB3313:
 2413               	.LBB3314:
 2414               	.LBB3315:
 2415               	.LBB3316:
 2416               	.LBB3317:
 2417               	.LBB3318:
 2418               	.LBB3319:
 2419               	.LSM256:
 2420 00b8 8091 7A00 		lds r24,122
 2421 00bc 8F77      		andi r24,lo8(127)
 2422 00be 8093 7A00 		sts 122,r24
 2423               	.LBB3320:
 2424               	.LBB3321:
 2425               	.LBB3322:
 2426               	.LBB3323:
 2427               	.LSM257:
 2428 00c2 8FEF      		ldi r24,lo8(-1)
 2429 00c4 8093 0000 		sts McuSleepC__powerState,r24
 2430 00c8 00C0      		rjmp .L175
 2431               	.L165:
 2432               	.LBE3323:
 2433               	.LBE3322:
 2434               	.LBE3321:
 2435               	.LBE3320:
 2436               	.LBE3319:
 2437               	.LBE3318:
 2438               	.LBE3317:
 2439               	.LBE3316:
 2440               	.LBE3315:
 2441               	.LBE3314:
 2442               	.LBE3313:
 2443               	.LBE3312:
 2444               	.LBE3311:
 2445               	.LBE3310:
 2446               	.LBE3309:
 2447               	.LBE3308:
 2448               	.LBB3324:
 2449               	.LBB3325:
 2450               	.LBB3326:
 2451               	.LBB3327:
 2452               	.LSM258:
 2453 00ca 8091 0000 		lds r24,RoundRobinResourceQueueC__0__last
 2454 00ce 082F      		mov r16,r24
 2455 00d0 1127      		clr r17
 2456 00d2 E801      		movw r28,r16
 2457               	.LVL104:
 2458 00d4 00C0      		rjmp .L180
 2459               	.L176:
 2460               	.LBE3327:
 2461               	.LBE3326:
 2462               	.LBE3325:
 2463               	.LBE3324:
 2464               	.LBE3287:
 2465               	/* epilogue: frame size=0 */
 2466 00d6 DF91      		pop r29
 2467 00d8 CF91      		pop r28
 2468 00da 1F91      		pop r17
 2469 00dc 0F91      		pop r16
 2470 00de FF90      		pop r15
 2471 00e0 EF90      		pop r14
 2472 00e2 0895      		ret
 2473               	/* epilogue end (size=7) */
 2474               	/* function ArbiterP__0__Resource__release size 122 (109) */
 2475               	.LFE609:
 2477               		.section	.text.BlinkC__SerialStream__send,"ax",@progbits
 2479               	BlinkC__SerialStream__send:
 2480               	.LFB383:
 2481               	.LSM259:
 2482               	/* prologue: frame size=0 */
 2483               	/* prologue end (size=0) */
 2484               	.LVL105:
 2485 0000 AC01      		movw r20,r24
 2486               	.LBB3365:
 2487               	.LBB3366:
 2488               	.LBB3367:
 2489               	.LBB3368:
 2490               	.LBB3369:
 2491               	.LBB3370:
 2492               	.LBB3371:
 2493               	.LSM260:
 2494 0002 8FB7      		in r24,95-0x20
 2495               	.LVL106:
 2496               	.LBB3372:
 2497               	.LBB3373:
 2498               	.LSM261:
 2499               	/* #APP */
 2500 0004 F894      		cli
 2501               	/* #NOAPP */
 2502               	.LBE3373:
 2503               	.LBE3372:
 2504               	.LSM262:
 2505               	.LBE3371:
 2506               	.LBE3370:
 2507               	.LSM263:
 2508 0006 282F      		mov r18,r24
 2509 0008 3327      		clr r19
 2510               	.LSM264:
 2511 000a 8091 0000 		lds r24,Atm128Rfa1SerialP__txBusy
 2512               	.LVL107:
 2513 000e 8823      		tst r24
 2514 0010 01F0      		breq .L182
 2515               	.LBB3374:
 2516               	.LBB3375:
 2517               	.LBB3376:
 2518               	.LSM265:
 2519               	.LSM266:
 2520 0012 2FBF      		out 95-0x20,r18
 2521 0014 85E0      		ldi r24,lo8(5)
 2522 0016 90E0      		ldi r25,hi8(5)
 2523 0018 0895      		ret
 2524               	.L182:
 2525               	.LBE3376:
 2526               	.LBE3375:
 2527               	.LBE3374:
 2528               	.LSM267:
 2529 001a 81E0      		ldi r24,lo8(1)
 2530 001c 8093 0000 		sts Atm128Rfa1SerialP__txBusy,r24
 2531               	.LBB3377:
 2532               	.LBB3378:
 2533               	.LSM268:
 2534               	.LSM269:
 2535 0020 2FBF      		out 95-0x20,r18
 2536               	.LBE3378:
 2537               	.LBE3377:
 2538               	.LBE3369:
 2539               	.LSM270:
 2540 0022 5093 0000 		sts (Atm128Rfa1SerialP__txBuf)+1,r21
 2541 0026 4093 0000 		sts Atm128Rfa1SerialP__txBuf,r20
 2542               	.LSM271:
 2543 002a 7093 0000 		sts (Atm128Rfa1SerialP__txLen)+1,r23
 2544 002e 6093 0000 		sts Atm128Rfa1SerialP__txLen,r22
 2545 0032 20E0      		ldi r18,lo8(0)
 2546 0034 30E0      		ldi r19,hi8(0)
 2547               	.LVL108:
 2548 0036 FA01      		movw r30,r20
 2549 0038 00C0      		rjmp .L185
 2550               	.LVL109:
 2551               	.L186:
 2552               	.LBB3379:
 2553               	.LBB3380:
 2554               	.LBB3381:
 2555               	.LBB3382:
 2556               	.LSM272:
 2557 003a 8091 C900 		lds r24,201
 2558 003e 8F7B      		andi r24,lo8(-65)
 2559 0040 8093 C900 		sts 201,r24
 2560               	.L187:
 2561               	.LBE3382:
 2562               	.LBE3381:
 2563               	.LBE3380:
 2564               	.LBE3379:
 2565               	.LSM273:
 2566 0044 8091 C800 		lds r24,200
 2567 0048 85FF      		sbrs r24,5
 2568 004a 00C0      		rjmp .L187
 2569               	.LSM274:
 2570 004c 8081      		ld r24,Z
 2571 004e 8093 CE00 		sts 206,r24
 2572               	.L189:
 2573               	.LBB3383:
 2574               	.LBB3384:
 2575               	.LBB3385:
 2576               	.LBB3386:
 2577               	.LSM275:
 2578 0052 8091 C800 		lds r24,200
 2579               	.LBE3386:
 2580               	.LBE3385:
 2581               	.LBE3384:
 2582               	.LBE3383:
 2583               	.LSM276:
 2584 0056 86FF      		sbrs r24,6
 2585 0058 00C0      		rjmp .L189
 2586               	.LBB3387:
 2587               	.LBB3388:
 2588               	.LBB3389:
 2589               	.LBB3390:
 2590               	.LSM277:
 2591 005a 8091 C800 		lds r24,200
 2592 005e 8064      		ori r24,lo8(64)
 2593 0060 8093 C800 		sts 200,r24
 2594               	.LSM278:
 2595 0064 8091 C900 		lds r24,201
 2596 0068 8064      		ori r24,lo8(64)
 2597 006a 8093 C900 		sts 201,r24
 2598               	.LBE3390:
 2599               	.LBE3389:
 2600               	.LBE3388:
 2601               	.LBE3387:
 2602               	.LSM279:
 2603 006e 2F5F      		subi r18,lo8(-(1))
 2604 0070 3F4F      		sbci r19,hi8(-(1))
 2605 0072 3196      		adiw r30,1
 2606               	.L185:
 2607 0074 2617      		cp r18,r22
 2608 0076 3707      		cpc r19,r23
 2609 0078 01F4      		brne .L186
 2610               	.LBB3391:
 2611               	.LBB3392:
 2612               	.LBB3393:
 2613               	.LSM280:
 2614 007a 8FB7      		in r24,95-0x20
 2615               	.LVL110:
 2616               	.LBB3394:
 2617               	.LBB3395:
 2618               	.LSM281:
 2619               	/* #APP */
 2620 007c F894      		cli
 2621               	/* #NOAPP */
 2622               	.LBE3395:
 2623               	.LBE3394:
 2624               	.LSM282:
 2625               	.LBE3393:
 2626               	.LBE3392:
 2627               	.LSM283:
 2628 007e 9927      		clr r25
 2629               	.LSM284:
 2630 0080 1092 0000 		sts Atm128Rfa1SerialP__txBusy,__zero_reg__
 2631               	.LBB3396:
 2632               	.LBB3397:
 2633               	.LSM285:
 2634               	.LSM286:
 2635 0084 8FBF      		out 95-0x20,r24
 2636               	.LBE3397:
 2637               	.LBE3396:
 2638               	.LBE3391:
 2639               	.LSM287:
 2640 0086 1092 0000 		sts Atm128Rfa1SerialP__txResult,__zero_reg__
 2641               	.LBB3398:
 2642               	.LSM288:
 2643 008a 80E0      		ldi r24,lo8(0)
 2644               	.LVL111:
 2645 008c 0E94 0000 		call SchedulerBasicP__TaskBasic__postTask
 2646               	.LVL112:
 2647 0090 80E0      		ldi r24,lo8(0)
 2648 0092 90E0      		ldi r25,hi8(0)
 2649               	.LBE3398:
 2650               	.LBE3368:
 2651               	.LBE3367:
 2652               	.LBE3366:
 2653               	.LBE3365:
 2654               	.LSM289:
 2655 0094 0895      		ret
 2656               	/* epilogue: frame size=0 */
 2657               	/* epilogue: noreturn */
 2658               	/* epilogue end (size=0) */
 2659               	/* function BlinkC__SerialStream__send size 87 (87) */
 2660               	.LFE383:
 2662               		.section	.text.BlinkC__Leds__led2Toggle,"ax",@progbits
 2664               	BlinkC__Leds__led2Toggle:
 2665               	.LFB387:
 2666               	.LSM290:
 2667               	/* prologue: frame size=0 */
 2668               	/* prologue end (size=0) */
 2669               	.LBB3412:
 2670               	.LBB3413:
 2671               	.LBB3414:
 2672               	.LBB3415:
 2673               	.LBB3416:
 2674               	.LBB3417:
 2675               	.LBB3418:
 2676               	.LBB3419:
 2677               	.LBB3420:
 2678               	.LSM291:
 2679 0000 8FB7      		in r24,95-0x20
 2680               	.LVL113:
 2681               	.LBB3421:
 2682               	.LBB3422:
 2683               	.LSM292:
 2684               	/* #APP */
 2685 0002 F894      		cli
 2686               	/* #NOAPP */
 2687               	.LBE3422:
 2688               	.LBE3421:
 2689               	.LSM293:
 2690               	.LBE3420:
 2691               	.LBE3419:
 2692               	.LSM294:
 2693 0004 9927      		clr r25
 2694 0006 2EB1      		in r18,46-0x20
 2695 0008 30E1      		ldi r19,lo8(16)
 2696 000a 2327      		eor r18,r19
 2697 000c 2EB9      		out 46-0x20,r18
 2698               	.LBB3423:
 2699               	.LBB3424:
 2700               	.LSM295:
 2701               	.LSM296:
 2702 000e 8FBF      		out 95-0x20,r24
 2703               	.LBE3424:
 2704               	.LBE3423:
 2705               	.LBE3418:
 2706               	.LBE3417:
 2707               	.LBE3416:
 2708               	.LBE3415:
 2709               	.LBE3414:
 2710               	.LBE3413:
 2711               	.LBE3412:
 2712               	/* epilogue: frame size=0 */
 2713 0010 0895      		ret
 2714               	/* epilogue end (size=1) */
 2715               	/* function BlinkC__Leds__led2Toggle size 14 (13) */
 2716               	.LFE387:
 2718               		.section	.text.BlinkC__Leds__led1Toggle,"ax",@progbits
 2720               	BlinkC__Leds__led1Toggle:
 2721               	.LFB382:
 2722               	.LSM297:
 2723               	/* prologue: frame size=0 */
 2724               	/* prologue end (size=0) */
 2725               	.LBB3438:
 2726               	.LBB3439:
 2727               	.LBB3440:
 2728               	.LBB3441:
 2729               	.LBB3442:
 2730               	.LBB3443:
 2731               	.LBB3444:
 2732               	.LBB3445:
 2733               	.LBB3446:
 2734               	.LSM298:
 2735 0000 8FB7      		in r24,95-0x20
 2736               	.LVL114:
 2737               	.LBB3447:
 2738               	.LBB3448:
 2739               	.LSM299:
 2740               	/* #APP */
 2741 0002 F894      		cli
 2742               	/* #NOAPP */
 2743               	.LBE3448:
 2744               	.LBE3447:
 2745               	.LSM300:
 2746               	.LBE3446:
 2747               	.LBE3445:
 2748               	.LSM301:
 2749 0004 9927      		clr r25
 2750 0006 2EB1      		in r18,46-0x20
 2751 0008 38E0      		ldi r19,lo8(8)
 2752 000a 2327      		eor r18,r19
 2753 000c 2EB9      		out 46-0x20,r18
 2754               	.LBB3449:
 2755               	.LBB3450:
 2756               	.LSM302:
 2757               	.LSM303:
 2758 000e 8FBF      		out 95-0x20,r24
 2759               	.LBE3450:
 2760               	.LBE3449:
 2761               	.LBE3444:
 2762               	.LBE3443:
 2763               	.LBE3442:
 2764               	.LBE3441:
 2765               	.LBE3440:
 2766               	.LBE3439:
 2767               	.LBE3438:
 2768               	/* epilogue: frame size=0 */
 2769 0010 0895      		ret
 2770               	/* epilogue end (size=1) */
 2771               	/* function BlinkC__Leds__led1Toggle size 14 (13) */
 2772               	.LFE382:
 2774               		.section	.text.AdcP__sample,"ax",@progbits
 2776               	AdcP__sample:
 2777               	.LFB614:
 2778               	.LSM304:
 2779               	/* prologue: frame size=0 */
 2780 0000 BF92      		push r11
 2781 0002 CF92      		push r12
 2782 0004 DF92      		push r13
 2783 0006 EF92      		push r14
 2784 0008 FF92      		push r15
 2785 000a 0F93      		push r16
 2786 000c 1F93      		push r17
 2787               	/* prologue end (size=7) */
 2788               	.LBB3513:
 2789               	.LBB3514:
 2790               	.LSM305:
 2791 000e 8091 0000 		lds r24,AdcP__client
 2792               	.LVL115:
 2793               	.LBB3515:
 2794               	.LBB3516:
 2795               	.LSM306:
 2796 0012 8130      		cpi r24,lo8(1)
 2797 0014 01F4      		brne .+2
 2798 0016 00C0      		rjmp .L204
 2799               	.LSM307:
 2800 0018 8130      		cpi r24,lo8(1)
 2801 001a 00F4      		brsh .+2
 2802 001c 00C0      		rjmp .L205
 2803 001e 8230      		cpi r24,lo8(2)
 2804 0020 01F4      		brne .+2
 2805 0022 00C0      		rjmp .L205
 2806               	.LBE3516:
 2807               	.LBE3515:
 2808               	.LBE3514:
 2809               	.LBE3513:
 2810               	.LBB3517:
 2811               	.LBB3518:
 2812               	.LBB3519:
 2813               	.LBB3520:
 2814               	.LSM308:
 2815 0024 8130      		cpi r24,lo8(1)
 2816 0026 01F0      		breq .L208
 2817 0028 8130      		cpi r24,lo8(1)
 2818 002a 00F0      		brlo .L207
 2819 002c 8230      		cpi r24,lo8(2)
 2820 002e 01F4      		brne .L206
 2821 0030 00C0      		rjmp .L207
 2822               	.L208:
 2823 0032 BB24      		clr r11
 2824               	.LVL116:
 2825 0034 00C0      		rjmp .L211
 2826               	.LVL117:
 2827               	.L207:
 2828 0036 BB24      		clr r11
 2829               	.LVL118:
 2830 0038 00C0      		rjmp .L210
 2831               	.LVL119:
 2832               	.L206:
 2833               	.LBE3520:
 2834               	.LBE3519:
 2835               	.LBE3518:
 2836               	.LBE3517:
 2837               	.LBB3521:
 2838               	.LBB3522:
 2839               	.LBB3523:
 2840               	.LBB3524:
 2841               	.LSM309:
 2842 003a 8130      		cpi r24,lo8(1)
 2843 003c 01F0      		breq .L215
 2844 003e 8130      		cpi r24,lo8(1)
 2845 0040 00F0      		brlo .L216
 2846 0042 8230      		cpi r24,lo8(2)
 2847 0044 01F0      		breq .L216
 2848 0046 8EE1      		ldi r24,lo8(30)
 2849               	.LVL120:
 2850 0048 BB24      		clr r11
 2851               	.LVL121:
 2852 004a CC24      		clr r12
 2853               	.LVL122:
 2854 004c 00C0      		rjmp .L217
 2855               	.LVL123:
 2856               	.L215:
 2857 004e BB24      		clr r11
 2858               	.LVL124:
 2859 0050 CC24      		clr r12
 2860               	.LVL125:
 2861               	.L219:
 2862 0052 80E0      		ldi r24,lo8(0)
 2863               	.LVL126:
 2864 0054 00C0      		rjmp .L217
 2865               	.LVL127:
 2866               	.L216:
 2867 0056 BB24      		clr r11
 2868               	.LVL128:
 2869 0058 CC24      		clr r12
 2870               	.LVL129:
 2871               	.L218:
 2872 005a 89E2      		ldi r24,lo8(41)
 2873               	.LVL130:
 2874               	.L217:
 2875               	.LBE3524:
 2876               	.LBE3523:
 2877               	.LBE3522:
 2878               	.LBE3521:
 2879               	.LSM310:
 2880 005c E82E      		mov r14,r24
 2881 005e FF24      		clr r15
 2882               	.LBB3525:
 2883               	.LBB3526:
 2884               	.LBB3527:
 2885               	.LBB3528:
 2886               	.LBB3529:
 2887               	.LBB3530:
 2888               	.LBB3531:
 2889               	.LSM311:
 2890 0060 DFB6      		in r13,95-0x20
 2891               	.LVL131:
 2892               	.LBB3532:
 2893               	.LBB3533:
 2894               	.LSM312:
 2895               	/* #APP */
 2896 0062 F894      		cli
 2897               	/* #NOAPP */
 2898               	.LBE3533:
 2899               	.LBE3532:
 2900               	.LSM313:
 2901               	.LBE3531:
 2902               	.LBE3530:
 2903               	.LSM314:
 2904 0064 1091 0000 		lds r17,Atm128AdcP__f
 2905 0068 812F      		mov r24,r17
 2906               	.LVL132:
 2907 006a 8E7F      		andi r24,lo8(-2)
 2908 006c 8093 0000 		sts Atm128AdcP__f,r24
 2909               	.LBB3534:
 2910               	.LSM315:
 2911 0070 0E94 0000 		call Atm128AdcP__HplAtm128Adc__getAdmux
 2912               	.LSM316:
 2913 0074 4C2D      		mov r20,r12
 2914 0076 6E2D      		mov r22,r14
 2915               	.LVL133:
 2916 0078 0E94 0000 		call Atm128AdcP__isPrecise
 2917               	.LVL134:
 2918 007c 8170      		andi r24,lo8(1)
 2919 007e 880F      		lsl r24
 2920 0080 1078      		andi r17,lo8(-128)
 2921               	.LVL135:
 2922               	.LBB3535:
 2923               	.LSM317:
 2924 0082 2E2D      		mov r18,r14
 2925 0084 2F71      		andi r18,lo8(31)
 2926 0086 922F      		mov r25,r18
 2927 0088 990F      		lsl r25
 2928 008a 990F      		lsl r25
 2929 008c 182B      		or r17,r24
 2930 008e 192B      		or r17,r25
 2931 0090 1093 0000 		sts Atm128AdcP__f,r17
 2932               	.LSM318:
 2933 0094 E5FE      		sbrs r14,5
 2934 0096 00C0      		rjmp .L220
 2935               	.LSM319:
 2936 0098 8091 7B00 		lds r24,123
 2937 009c 8860      		ori r24,lo8(8)
 2938 009e 00C0      		rjmp .L224
 2939               	.L220:
 2940               	.LSM320:
 2941 00a0 8091 7B00 		lds r24,123
 2942 00a4 877F      		andi r24,lo8(-9)
 2943 00a6 00C0      		rjmp .L224
 2944               	.LVL136:
 2945               	.L204:
 2946               	.LBE3535:
 2947               	.LBE3534:
 2948               	.LBB3536:
 2949               	.LBB3537:
 2950               	.LBB3538:
 2951               	.LSM321:
 2952 00a8 B7E0      		ldi r27,lo8(7)
 2953 00aa BB2E      		mov r11,r27
 2954               	.LVL137:
 2955               	.L211:
 2956 00ac A3E0      		ldi r26,lo8(3)
 2957 00ae CA2E      		mov r12,r26
 2958               	.LVL138:
 2959 00b0 00C0      		rjmp .L219
 2960               	.LVL139:
 2961               	.L205:
 2962 00b2 F7E0      		ldi r31,lo8(7)
 2963 00b4 BF2E      		mov r11,r31
 2964               	.LVL140:
 2965               	.L210:
 2966 00b6 E3E0      		ldi r30,lo8(3)
 2967 00b8 CE2E      		mov r12,r30
 2968               	.LVL141:
 2969 00ba 00C0      		rjmp .L218
 2970               	.LVL142:
 2971               	.L224:
 2972               	.LBE3538:
 2973               	.LBE3537:
 2974               	.LBE3536:
 2975               	.LBB3539:
 2976               	.LBB3540:
 2977               	.LSM322:
 2978 00bc 8093 7B00 		sts 123,r24
 2979 00c0 CC0C      		lsl r12
 2980 00c2 CC0C      		lsl r12
 2981 00c4 CC0C      		lsl r12
 2982 00c6 CC0C      		lsl r12
 2983 00c8 CC0C      		lsl r12
 2984 00ca CC0C      		lsl r12
 2985 00cc 2C29      		or r18,r12
 2986               	.LBB3541:
 2987               	.LBB3542:
 2988               	.LBB3543:
 2989               	.LBB3544:
 2990               	.LSM323:
 2991 00ce 822F      		mov r24,r18
 2992 00d0 9927      		clr r25
 2993               	.LVL143:
 2994 00d2 8093 7C00 		sts 124,r24
 2995               	.LVL144:
 2996 00d6 1879      		andi r17,lo8(-104)
 2997 00d8 1B29      		or r17,r11
 2998 00da 1869      		ori r17,lo8(-104)
 2999               	.LBE3544:
 3000               	.LBE3543:
 3001               	.LBE3542:
 3002               	.LBE3541:
 3003               	.LBB3545:
 3004               	.LBB3546:
 3005               	.LBB3547:
 3006               	.LBB3548:
 3007               	.LSM324:
 3008 00dc 812F      		mov r24,r17
 3009 00de 9927      		clr r25
 3010               	.LVL145:
 3011 00e0 8093 7A00 		sts 122,r24
 3012               	.LBE3548:
 3013               	.LBE3547:
 3014               	.LBE3546:
 3015               	.LBE3545:
 3016               	.LBE3540:
 3017               	.LBE3539:
 3018               	.LBB3549:
 3019               	.LBB3550:
 3020               	.LBB3551:
 3021               	.LSM325:
 3022               	.LBE3551:
 3023               	.LBE3550:
 3024               	.LBE3549:
 3025               	.LSM326:
 3026 00e4 8D2D      		mov r24,r13
 3027 00e6 9927      		clr r25
 3028               	.LVL146:
 3029               	.LBB3552:
 3030               	.LBB3553:
 3031               	.LBB3554:
 3032               	.LSM327:
 3033 00e8 8FBF      		out 95-0x20,r24
 3034               	.LBE3554:
 3035               	.LBE3553:
 3036               	.LBE3552:
 3037               	.LBE3529:
 3038               	.LBE3528:
 3039               	.LBE3527:
 3040               	.LBE3526:
 3041               	.LBE3525:
 3042               	/* epilogue: frame size=0 */
 3043 00ea 1F91      		pop r17
 3044 00ec 0F91      		pop r16
 3045 00ee FF90      		pop r15
 3046 00f0 EF90      		pop r14
 3047 00f2 DF90      		pop r13
 3048 00f4 CF90      		pop r12
 3049 00f6 BF90      		pop r11
 3050 00f8 0895      		ret
 3051               	/* epilogue end (size=8) */
 3052               	/* function AdcP__sample size 130 (115) */
 3053               	.LFE614:
 3055               		.section	.text.ArbitratedReadC__0__Resource__granted,"ax",@progbits
 3057               	ArbitratedReadC__0__Resource__granted:
 3058               	.LFB424:
 3059               	.LSM328:
 3060               	/* prologue: frame size=0 */
 3061               	/* prologue end (size=0) */
 3062               	.LVL147:
 3063               	.LBB3561:
 3064               	.LBB3562:
 3065               	.LBB3563:
 3066               	.LBB3564:
 3067               	.LBB3565:
 3068               	.LBB3566:
 3069               	.LSM329:
 3070 0000 91E0      		ldi r25,lo8(1)
 3071 0002 9093 0000 		sts AdcP__state,r25
 3072               	.LSM330:
 3073 0006 8093 0000 		sts AdcP__client,r24
 3074               	.LSM331:
 3075 000a 0E94 0000 		call AdcP__sample
 3076               	.LVL148:
 3077               	.LBE3566:
 3078               	.LBE3565:
 3079               	.LBE3564:
 3080               	.LBE3563:
 3081               	.LBE3562:
 3082               	.LBE3561:
 3083               	/* epilogue: frame size=0 */
 3084 000e 0895      		ret
 3085               	/* epilogue end (size=1) */
 3086               	/* function ArbitratedReadC__0__Resource__granted size 8 (7) */
 3087               	.LFE424:
 3089               		.section	.text.VirtualizeTimerC__0__fireTimers,"ax",@progbits
 3091               	VirtualizeTimerC__0__fireTimers:
 3092               	.LFB615:
 3093               	.LSM332:
 3094               	/* prologue: frame size=0 */
 3095 0000 AF92      		push r10
 3096 0002 BF92      		push r11
 3097 0004 CF92      		push r12
 3098 0006 DF92      		push r13
 3099 0008 EF92      		push r14
 3100 000a FF92      		push r15
 3101 000c 0F93      		push r16
 3102 000e 1F93      		push r17
 3103 0010 CF93      		push r28
 3104 0012 DF93      		push r29
 3105               	/* prologue end (size=10) */
 3106               	.LVL149:
 3107 0014 5B01      		movw r10,r22
 3108 0016 6C01      		movw r12,r24
 3109 0018 C0E0      		ldi r28,lo8(0)
 3110 001a D0E0      		ldi r29,hi8(0)
 3111               	.LVL150:
 3112 001c E0E0      		ldi r30,lo8(VirtualizeTimerC__0__m_timers)
 3113 001e F0E0      		ldi r31,hi8(VirtualizeTimerC__0__m_timers)
 3114               	.LVL151:
 3115               	.L228:
 3116               	.LBB3598:
 3117               	.LSM333:
 3118 0020 6085      		ldd r22,Z+8
 3119 0022 61FF      		sbrs r22,1
 3120 0024 00C0      		rjmp .L229
 3121               	.LBB3599:
 3122               	.LSM334:
 3123 0026 2081      		ld r18,Z
 3124 0028 3181      		ldd r19,Z+1
 3125 002a 4281      		ldd r20,Z+2
 3126 002c 5381      		ldd r21,Z+3
 3127               	.LSM335:
 3128 002e E480      		ldd r14,Z+4
 3129 0030 F580      		ldd r15,Z+5
 3130 0032 0681      		ldd r16,Z+6
 3131 0034 1781      		ldd r17,Z+7
 3132 0036 D601      		movw r26,r12
 3133 0038 C501      		movw r24,r10
 3134 003a 821B      		sub r24,r18
 3135 003c 930B      		sbc r25,r19
 3136 003e A40B      		sbc r26,r20
 3137 0040 B50B      		sbc r27,r21
 3138 0042 8E15      		cp r24,r14
 3139 0044 9F05      		cpc r25,r15
 3140 0046 A007      		cpc r26,r16
 3141 0048 B107      		cpc r27,r17
 3142 004a 00F0      		brlo .L229
 3143               	.LSM336:
 3144 004c 60FF      		sbrs r22,0
 3145 004e 00C0      		rjmp .L232
 3146               	.LSM337:
 3147 0050 6D7F      		andi r22,lo8(-3)
 3148 0052 6087      		std Z+8,r22
 3149 0054 00C0      		rjmp .L234
 3150               	.L232:
 3151               	.LSM338:
 3152 0056 2E0D      		add r18,r14
 3153 0058 3F1D      		adc r19,r15
 3154 005a 401F      		adc r20,r16
 3155 005c 511F      		adc r21,r17
 3156 005e 2083      		st Z,r18
 3157 0060 3183      		std Z+1,r19
 3158 0062 4283      		std Z+2,r20
 3159 0064 5383      		std Z+3,r21
 3160               	.L234:
 3161               	.LBB3600:
 3162               	.LBB3601:
 3163               	.LSM339:
 3164 0066 C130      		cpi r28,lo8(1)
 3165 0068 01F0      		breq .L237
 3166 006a C130      		cpi r28,lo8(1)
 3167 006c 00F0      		brlo .L236
 3168 006e C230      		cpi r28,lo8(2)
 3169 0070 01F0      		breq .L238
 3170 0072 C330      		cpi r28,lo8(3)
 3171 0074 01F4      		brne .L235
 3172 0076 00C0      		rjmp .L239
 3173               	.L236:
 3174               	.LBB3602:
 3175               	.LBB3603:
 3176               	.LBB3604:
 3177               	.LBB3605:
 3178               	.LBB3606:
 3179               	.LBB3607:
 3180               	.LBB3608:
 3181               	.LBB3609:
 3182               	.LBB3610:
 3183               	.LBB3611:
 3184               	.LBB3612:
 3185               	.LBB3613:
 3186               	.LBB3614:
 3187               	.LSM340:
 3188 0078 8FB7      		in r24,95-0x20
 3189               	.LVL152:
 3190               	.LBB3615:
 3191               	.LBB3616:
 3192               	.LSM341:
 3193               	/* #APP */
 3194 007a F894      		cli
 3195               	/* #NOAPP */
 3196               	.LBE3616:
 3197               	.LBE3615:
 3198               	.LSM342:
 3199               	.LBE3614:
 3200               	.LBE3613:
 3201               	.LSM343:
 3202 007c 9927      		clr r25
 3203 007e 2EB1      		in r18,46-0x20
 3204 0080 34E0      		ldi r19,lo8(4)
 3205 0082 2327      		eor r18,r19
 3206 0084 2EB9      		out 46-0x20,r18
 3207               	.LBB3617:
 3208               	.LBB3618:
 3209               	.LSM344:
 3210               	.LSM345:
 3211 0086 8FBF      		out 95-0x20,r24
 3212               	.LBE3618:
 3213               	.LBE3617:
 3214               	.LBE3612:
 3215               	.LBE3611:
 3216               	.LBE3610:
 3217               	.LBE3609:
 3218               	.LBE3608:
 3219               	.LBE3607:
 3220               	.LBE3606:
 3221               	.LBE3605:
 3222               	.LBE3604:
 3223               	.LBB3619:
 3224               	.LSM346:
 3225 0088 85E0      		ldi r24,lo8(5)
 3226               	.LVL153:
 3227 008a 0E94 0000 		call SchedulerBasicP__TaskBasic__postTask
 3228 008e 00C0      		rjmp .L235
 3229               	.L237:
 3230               	.LBE3619:
 3231               	.LBE3603:
 3232               	.LBE3602:
 3233               	.LBB3620:
 3234               	.LBB3621:
 3235               	.LSM347:
 3236 0090 0E94 0000 		call BlinkC__Leds__led1Toggle
 3237 0094 00C0      		rjmp .L235
 3238               	.L238:
 3239               	.LBE3621:
 3240               	.LBE3620:
 3241               	.LBB3622:
 3242               	.LBB3623:
 3243               	.LSM348:
 3244 0096 0E94 0000 		call BlinkC__Leds__led2Toggle
 3245 009a 00C0      		rjmp .L235
 3246               	.L239:
 3247               	.LBE3623:
 3248               	.LBE3622:
 3249               	.LBB3624:
 3250               	.LBB3625:
 3251               	.LSM349:
 3252 009c 0E94 0000 		call PacketLinkLayerP__0__send__postTask
 3253 00a0 00C0      		rjmp .L235
 3254               	.L229:
 3255               	.LBE3625:
 3256               	.LBE3624:
 3257               	.LBE3601:
 3258               	.LBE3600:
 3259               	.LBE3599:
 3260               	.LBE3598:
 3261               	.LSM350:
 3262 00a2 2196      		adiw r28,1
 3263 00a4 3996      		adiw r30,9
 3264 00a6 C430      		cpi r28,4
 3265 00a8 D105      		cpc r29,__zero_reg__
 3266 00aa 01F0      		breq .+2
 3267 00ac 00C0      		rjmp .L228
 3268               	.L235:
 3269               	.LSM351:
 3270 00ae 0E94 0000 		call VirtualizeTimerC__0__updateFromTimer__postTask
 3271               	/* epilogue: frame size=0 */
 3272 00b2 DF91      		pop r29
 3273 00b4 CF91      		pop r28
 3274 00b6 1F91      		pop r17
 3275 00b8 0F91      		pop r16
 3276 00ba FF90      		pop r15
 3277 00bc EF90      		pop r14
 3278 00be DF90      		pop r13
 3279 00c0 CF90      		pop r12
 3280 00c2 BF90      		pop r11
 3281 00c4 AF90      		pop r10
 3282 00c6 0895      		ret
 3283               	/* epilogue end (size=11) */
 3284               	/* function VirtualizeTimerC__0__fireTimers size 105 (84) */
 3285               	.LFE615:
 3287               		.section	.text.AlarmToTimerC__0__start,"ax",@progbits
 3289               	AlarmToTimerC__0__start:
 3290               	.LFB461:
 3291               	.LSM352:
 3292               	/* prologue: frame size=0 */
 3293 0000 0F93      		push r16
 3294 0002 1F93      		push r17
 3295               	/* prologue end (size=2) */
 3296               	.LVL154:
 3297               	.LSM353:
 3298 0004 2093 0000 		sts AlarmToTimerC__0__m_dt,r18
 3299 0008 3093 0000 		sts (AlarmToTimerC__0__m_dt)+1,r19
 3300 000c 4093 0000 		sts (AlarmToTimerC__0__m_dt)+2,r20
 3301 0010 5093 0000 		sts (AlarmToTimerC__0__m_dt)+3,r21
 3302               	.LSM354:
 3303 0014 0093 0000 		sts AlarmToTimerC__0__m_oneshot,r16
 3304               	.LBB3637:
 3305               	.LBB3638:
 3306               	.LBB3639:
 3307               	.LBB3640:
 3308               	.LBB3641:
 3309               	.LBB3642:
 3310               	.LBB3643:
 3311               	.LSM355:
 3312 0018 0FB7      		in r16,95-0x20
 3313               	.LVL155:
 3314               	.LBB3644:
 3315               	.LBB3645:
 3316               	.LSM356:
 3317               	/* #APP */
 3318 001a F894      		cli
 3319               	/* #NOAPP */
 3320               	.LBE3645:
 3321               	.LBE3644:
 3322               	.LSM357:
 3323               	.LBE3643:
 3324               	.LBE3642:
 3325               	.LSM358:
 3326 001c 1127      		clr r17
 3327               	.LSM359:
 3328 001e 6093 0000 		sts TransformAlarmC__0__m_t0,r22
 3329 0022 7093 0000 		sts (TransformAlarmC__0__m_t0)+1,r23
 3330 0026 8093 0000 		sts (TransformAlarmC__0__m_t0)+2,r24
 3331 002a 9093 0000 		sts (TransformAlarmC__0__m_t0)+3,r25
 3332               	.LSM360:
 3333 002e 2093 0000 		sts TransformAlarmC__0__m_dt,r18
 3334 0032 3093 0000 		sts (TransformAlarmC__0__m_dt)+1,r19
 3335 0036 4093 0000 		sts (TransformAlarmC__0__m_dt)+2,r20
 3336 003a 5093 0000 		sts (TransformAlarmC__0__m_dt)+3,r21
 3337               	.LSM361:
 3338 003e 0E94 0000 		call TransformAlarmC__0__set_alarm
 3339               	.LVL156:
 3340               	.LBB3646:
 3341               	.LBB3647:
 3342               	.LSM362:
 3343               	.LSM363:
 3344 0042 0FBF      		out 95-0x20,r16
 3345               	.LBE3647:
 3346               	.LBE3646:
 3347               	.LBE3641:
 3348               	.LBE3640:
 3349               	.LBE3639:
 3350               	.LBE3638:
 3351               	.LBE3637:
 3352               	/* epilogue: frame size=0 */
 3353 0044 1F91      		pop r17
 3354 0046 0F91      		pop r16
 3355 0048 0895      		ret
 3356               	/* epilogue end (size=3) */
 3357               	/* function AlarmToTimerC__0__start size 42 (37) */
 3358               	.LFE461:
 3360               		.section	.text.ArbiterP__0__Resource__request,"ax",@progbits
 3362               	ArbiterP__0__Resource__request:
 3363               	.LFB617:
 3364               	.LSM364:
 3365               	/* prologue: frame size=0 */
 3366 0000 0F93      		push r16
 3367 0002 1F93      		push r17
 3368 0004 CF93      		push r28
 3369 0006 DF93      		push r29
 3370               	/* prologue end (size=4) */
 3371               	.LVL157:
 3372 0008 182F      		mov r17,r24
 3373               	.LBB3711:
 3374               	.LBB3712:
 3375               	.LBB3713:
 3376               	.LSM365:
 3377 000a 8FB7      		in r24,95-0x20
 3378               	.LVL158:
 3379               	.LBB3714:
 3380               	.LBB3715:
 3381               	.LSM366:
 3382               	/* #APP */
 3383 000c F894      		cli
 3384               	/* #NOAPP */
 3385               	.LBE3715:
 3386               	.LBE3714:
 3387               	.LSM367:
 3388               	.LBE3713:
 3389               	.LBE3712:
 3390               	.LSM368:
 3391 000e 282F      		mov r18,r24
 3392 0010 3327      		clr r19
 3393 0012 022F      		mov r16,r18
 3394               	.LVL159:
 3395               	.LSM369:
 3396 0014 8091 0000 		lds r24,ArbiterP__0__state
 3397               	.LVL160:
 3398 0018 8823      		tst r24
 3399 001a 01F4      		brne .L245
 3400               	.LSM370:
 3401 001c 81E0      		ldi r24,lo8(1)
 3402 001e 8093 0000 		sts ArbiterP__0__state,r24
 3403               	.LSM371:
 3404 0022 1093 0000 		sts ArbiterP__0__reqResId,r17
 3405               	.LBB3716:
 3406               	.LBB3717:
 3407               	.LSM372:
 3408               	.LSM373:
 3409 0026 2FBF      		out 95-0x20,r18
 3410               	.LBE3717:
 3411               	.LBE3716:
 3412               	.LBE3711:
 3413               	.LBB3718:
 3414               	.LBB3719:
 3415               	.LBB3720:
 3416               	.LBB3721:
 3417               	.LBB3722:
 3418               	.LBB3723:
 3419               	.LBB3724:
 3420               	.LBB3725:
 3421               	.LBB3726:
 3422               	.LBB3727:
 3423               	.LBB3728:
 3424               	.LSM374:
 3425 0028 2FB7      		in r18,95-0x20
 3426               	.LVL161:
 3427               	.LBB3729:
 3428               	.LBB3730:
 3429               	.LSM375:
 3430               	/* #APP */
 3431 002a F894      		cli
 3432               	/* #NOAPP */
 3433               	.LBE3730:
 3434               	.LBE3729:
 3435               	.LSM376:
 3436               	.LBE3728:
 3437               	.LBE3727:
 3438               	.LSM377:
 3439 002c 3327      		clr r19
 3440               	.LBB3731:
 3441               	.LBB3732:
 3442               	.LBB3733:
 3443               	.LBB3734:
 3444               	.LSM378:
 3445 002e 8091 7A00 		lds r24,122
 3446 0032 8068      		ori r24,lo8(-128)
 3447 0034 8093 7A00 		sts 122,r24
 3448               	.LBB3735:
 3449               	.LBB3736:
 3450               	.LBB3737:
 3451               	.LBB3738:
 3452               	.LSM379:
 3453 0038 8FEF      		ldi r24,lo8(-1)
 3454 003a 8093 0000 		sts McuSleepC__powerState,r24
 3455               	.LBE3738:
 3456               	.LBE3737:
 3457               	.LBE3736:
 3458               	.LBE3735:
 3459               	.LBE3734:
 3460               	.LBE3733:
 3461               	.LBE3732:
 3462               	.LBE3731:
 3463               	.LBB3739:
 3464               	.LBB3740:
 3465               	.LSM380:
 3466               	.LSM381:
 3467 003e 2FBF      		out 95-0x20,r18
 3468               	.LBE3740:
 3469               	.LBE3739:
 3470               	.LBE3726:
 3471               	.LBE3725:
 3472               	.LBE3724:
 3473               	.LBE3723:
 3474               	.LBE3722:
 3475               	.LBB3741:
 3476               	.LBB3742:
 3477               	.LBB3743:
 3478               	.LBB3744:
 3479               	.LBB3745:
 3480               	.LBB3746:
 3481               	.LBB3747:
 3482               	.LSM382:
 3483 0040 8FB7      		in r24,95-0x20
 3484               	.LVL162:
 3485               	.LBB3748:
 3486               	.LBB3749:
 3487               	.LSM383:
 3488               	/* #APP */
 3489 0042 F894      		cli
 3490               	/* #NOAPP */
 3491               	.LBE3749:
 3492               	.LBE3748:
 3493               	.LSM384:
 3494               	.LBE3747:
 3495               	.LBE3746:
 3496               	.LSM385:
 3497 0044 C82F      		mov r28,r24
 3498 0046 DD27      		clr r29
 3499 0048 2C2F      		mov r18,r28
 3500               	.LVL163:
 3501               	.LSM386:
 3502 004a 9091 0000 		lds r25,ArbiterP__0__resId
 3503 004e 9330      		cpi r25,lo8(3)
 3504 0050 01F4      		brne .L261
 3505               	.LVL164:
 3506               	.LSM387:
 3507 0052 8091 0000 		lds r24,ArbiterP__0__state
 3508 0056 8130      		cpi r24,lo8(1)
 3509 0058 01F4      		brne .L249
 3510               	.LSM388:
 3511 005a 0E94 0000 		call ArbiterP__0__grantedTask__postTask
 3512               	.LVL165:
 3513 005e 00C0      		rjmp .L259
 3514               	.LVL166:
 3515               	.L249:
 3516               	.LSM389:
 3517 0060 8230      		cpi r24,lo8(2)
 3518 0062 01F4      		brne .L261
 3519               	.LSM390:
 3520 0064 8091 0000 		lds r24,ArbiterP__0__reqResId
 3521 0068 8093 0000 		sts ArbiterP__0__resId,r24
 3522               	.LSM391:
 3523 006c 9093 0000 		sts ArbiterP__0__state,r25
 3524               	.L259:
 3525               	.LBB3750:
 3526               	.LBB3751:
 3527               	.LBB3752:
 3528               	.LSM392:
 3529               	.LSM393:
 3530 0070 CFBF      		out 95-0x20,r28
 3531               	.LVL167:
 3532               	.L260:
 3533 0072 80E0      		ldi r24,lo8(0)
 3534 0074 90E0      		ldi r25,hi8(0)
 3535 0076 00C0      		rjmp .L251
 3536               	.LVL168:
 3537               	.L245:
 3538               	.LBE3752:
 3539               	.LBE3751:
 3540               	.LBE3750:
 3541               	.LBE3745:
 3542               	.LBE3744:
 3543               	.LBE3743:
 3544               	.LBE3742:
 3545               	.LBE3741:
 3546               	.LBE3721:
 3547               	.LBE3720:
 3548               	.LBE3719:
 3549               	.LBE3718:
 3550               	.LBB3753:
 3551               	.LSM394:
 3552 0078 8091 0000 		lds r24,ArbiterP__0__reqResId
 3553 007c 8117      		cp r24,r17
 3554 007e 01F4      		brne .L253
 3555               	.LVL169:
 3556               	.L261:
 3557               	.LBB3754:
 3558               	.LBB3755:
 3559               	.LBB3756:
 3560               	.LSM395:
 3561               	.LVL170:
 3562               	.LSM396:
 3563 0080 2FBF      		out 95-0x20,r18
 3564 0082 00C0      		rjmp .L260
 3565               	.LVL171:
 3566               	.L253:
 3567               	.LBE3756:
 3568               	.LBE3755:
 3569               	.LBE3754:
 3570               	.LBB3757:
 3571               	.LBB3758:
 3572               	.LBB3759:
 3573               	.LBB3760:
 3574               	.LSM397:
 3575 0084 812F      		mov r24,r17
 3576 0086 0E94 0000 		call RoundRobinResourceQueueC__0__RoundRobinQueue__isEnqueued
 3577               	.LVL172:
 3578 008a 8823      		tst r24
 3579 008c 01F0      		breq .L255
 3580 008e 85E0      		ldi r24,lo8(5)
 3581 0090 90E0      		ldi r25,hi8(5)
 3582 0092 00C0      		rjmp .L257
 3583               	.L255:
 3584               	.LBB3761:
 3585               	.LSM398:
 3586 0094 E12F      		mov r30,r17
 3587 0096 E695      		lsr r30
 3588 0098 E695      		lsr r30
 3589 009a E695      		lsr r30
 3590 009c FF27      		clr r31
 3591 009e E050      		subi r30,lo8(-(RoundRobinResourceQueueC__0__resQ))
 3592 00a0 F040      		sbci r31,hi8(-(RoundRobinResourceQueueC__0__resQ))
 3593 00a2 1770      		andi r17,lo8(7)
 3594 00a4 81E0      		ldi r24,lo8(1)
 3595 00a6 90E0      		ldi r25,hi8(1)
 3596 00a8 00C0      		rjmp 2f
 3597 00aa 880F      	1:	lsl r24
 3598 00ac 991F      		rol r25
 3599 00ae 1A95      	2:	dec r17
 3600 00b0 02F4      		brpl 1b
 3601 00b2 2081      		ld r18,Z
 3602 00b4 282B      		or r18,r24
 3603 00b6 2083      		st Z,r18
 3604 00b8 80E0      		ldi r24,lo8(0)
 3605 00ba 90E0      		ldi r25,hi8(0)
 3606               	.L257:
 3607               	.LBE3761:
 3608               	.LBE3760:
 3609               	.LBE3759:
 3610               	.LBE3758:
 3611               	.LBB3762:
 3612               	.LBB3763:
 3613               	.LSM399:
 3614               	.LSM400:
 3615 00bc 0FBF      		out 95-0x20,r16
 3616               	.LVL173:
 3617               	.L251:
 3618               	.LBE3763:
 3619               	.LBE3762:
 3620               	.LBE3757:
 3621               	.LBE3753:
 3622               	/* epilogue: frame size=0 */
 3623 00be DF91      		pop r29
 3624 00c0 CF91      		pop r28
 3625 00c2 1F91      		pop r17
 3626 00c4 0F91      		pop r16
 3627 00c6 0895      		ret
 3628               	/* epilogue end (size=5) */
 3629               	/* function ArbiterP__0__Resource__request size 120 (111) */
 3630               	.LFE617:
 3632               		.section	.text.ArbitratedReadC__0__Read__read,"ax",@progbits
 3634               	ArbitratedReadC__0__Read__read:
 3635               	.LFB492:
 3636               	.LSM401:
 3637               	/* prologue: frame size=0 */
 3638               	/* prologue end (size=0) */
 3639               	.LVL174:
 3640               	.LBB3768:
 3641               	.LBB3769:
 3642               	.LSM402:
 3643 0000 8130      		cpi r24,lo8(1)
 3644 0002 01F0      		breq .L265
 3645               	.LSM403:
 3646 0004 8130      		cpi r24,lo8(1)
 3647 0006 00F0      		brlo .L264
 3648 0008 8230      		cpi r24,lo8(2)
 3649 000a 01F0      		breq .L266
 3650 000c 81E0      		ldi r24,lo8(1)
 3651               	.LVL175:
 3652 000e 00C0      		rjmp .L267
 3653               	.LVL176:
 3654               	.L264:
 3655               	.LBE3769:
 3656 0010 80E0      		ldi r24,lo8(0)
 3657               	.LVL177:
 3658 0012 00C0      		rjmp .L269
 3659               	.LVL178:
 3660               	.L265:
 3661 0014 81E0      		ldi r24,lo8(1)
 3662               	.LVL179:
 3663 0016 00C0      		rjmp .L269
 3664               	.LVL180:
 3665               	.L266:
 3666 0018 82E0      		ldi r24,lo8(2)
 3667               	.LVL181:
 3668               	.L269:
 3669 001a 0E94 0000 		call ArbiterP__0__Resource__request
 3670               	.LVL182:
 3671               	.L267:
 3672               	.LBE3768:
 3673               	.LSM404:
 3674 001e 9927      		clr r25
 3675               	.LVL183:
 3676               	/* epilogue: frame size=0 */
 3677 0020 0895      		ret
 3678               	/* epilogue end (size=1) */
 3679               	/* function ArbitratedReadC__0__Read__read size 17 (16) */
 3680               	.LFE492:
 3682               		.section	.text.VirtualizeTimerC__0__Timer__startPeriodic,"ax",@progbits
 3684               	VirtualizeTimerC__0__Timer__startPeriodic:
 3685               	.LFB618:
 3686               	.LSM405:
 3687               	/* prologue: frame size=0 */
 3688 0000 AF92      		push r10
 3689 0002 BF92      		push r11
 3690 0004 CF92      		push r12
 3691 0006 DF92      		push r13
 3692 0008 EF92      		push r14
 3693 000a FF92      		push r15
 3694 000c 0F93      		push r16
 3695 000e 1F93      		push r17
 3696               	/* prologue end (size=8) */
 3697               	.LVL184:
 3698 0010 F82E      		mov r15,r24
 3699 0012 5A01      		movw r10,r20
 3700 0014 6B01      		movw r12,r22
 3701               	.LSM406:
 3702 0016 0E94 0000 		call VirtualizeTimerC__0__TimerFrom__getNow
 3703               	.LVL185:
 3704 001a AB01      		movw r20,r22
 3705 001c BC01      		movw r22,r24
 3706 001e EE24      		clr r14
 3707 0020 9601      		movw r18,r12
 3708 0022 8501      		movw r16,r10
 3709 0024 8F2D      		mov r24,r15
 3710 0026 0E94 0000 		call VirtualizeTimerC__0__startTimer
 3711               	/* epilogue: frame size=0 */
 3712 002a 1F91      		pop r17
 3713 002c 0F91      		pop r16
 3714 002e FF90      		pop r15
 3715 0030 EF90      		pop r14
 3716 0032 DF90      		pop r13
 3717 0034 CF90      		pop r12
 3718 0036 BF90      		pop r11
 3719 0038 AF90      		pop r10
 3720 003a 0895      		ret
 3721               	/* epilogue end (size=9) */
 3722               	/* function VirtualizeTimerC__0__Timer__startPeriodic size 30 (13) */
 3723               	.LFE618:
 3725               		.section	.text.__vector_29,"ax",@progbits
 3726               	.global	__vector_29
 3728               	__vector_29:
 3729               	.LFB619:
 3730               	.LSM407:
 3731               	/* prologue: frame size=0 */
 3732 0000 1F92      		push __zero_reg__
 3733 0002 0F92      		push __tmp_reg__
 3734 0004 0FB6      		in __tmp_reg__,__SREG__
 3735 0006 0F92      		push __tmp_reg__
 3736 0008 1124      		clr __zero_reg__
 3737 000a 2F93      		push r18
 3738 000c 3F93      		push r19
 3739 000e 4F93      		push r20
 3740 0010 5F93      		push r21
 3741 0012 6F93      		push r22
 3742 0014 7F93      		push r23
 3743 0016 8F93      		push r24
 3744 0018 9F93      		push r25
 3745 001a AF93      		push r26
 3746 001c BF93      		push r27
 3747 001e EF93      		push r30
 3748 0020 FF93      		push r31
 3749               	/* prologue end (size=17) */
 3750               	.LBB3859:
 3751               	.LBB3860:
 3752               	.LSM408:
 3753 0022 6091 7800 		lds r22,120
 3754 0026 7091 7900 		lds r23,(120)+1
 3755               	.LVL186:
 3756               	.LBE3860:
 3757               	.LBE3859:
 3758               	.LBB3861:
 3759               	.LBB3862:
 3760               	.LSM409:
 3761               	/* #APP */
 3762 002a 7894      		sei
 3763               	/* #NOAPP */
 3764               	.LBE3862:
 3765               	.LBE3861:
 3766               	.LBB3863:
 3767               	.LBB3864:
 3768               	.LBB3865:
 3769               	.LBB3866:
 3770               	.LBB3867:
 3771               	.LBB3868:
 3772               	.LBB3869:
 3773               	.LSM410:
 3774 002c 8FB7      		in r24,95-0x20
 3775               	.LVL187:
 3776               	.LBB3870:
 3777               	.LBB3871:
 3778               	.LSM411:
 3779               	/* #APP */
 3780 002e F894      		cli
 3781               	/* #NOAPP */
 3782               	.LBE3871:
 3783               	.LBE3870:
 3784               	.LSM412:
 3785               	.LBE3869:
 3786               	.LBE3868:
 3787               	.LSM413:
 3788 0030 9927      		clr r25
 3789               	.LSM414:
 3790 0032 2091 0000 		lds r18,Atm128AdcP__f
 3791 0036 422F      		mov r20,r18
 3792 0038 4695      		lsr r20
 3793 003a 4170      		andi r20,lo8(1)
 3794               	.LSM415:
 3795 003c 2170      		andi r18,lo8(1)
 3796               	.LBB3872:
 3797               	.LBB3873:
 3798               	.LSM416:
 3799               	.LSM417:
 3800 003e 8FBF      		out 95-0x20,r24
 3801               	.LBE3873:
 3802               	.LBE3872:
 3803               	.LBE3867:
 3804               	.LSM418:
 3805 0040 2223      		tst r18
 3806 0042 01F4      		brne .L273
 3807               	.LBB3874:
 3808               	.LBB3875:
 3809               	.LBB3876:
 3810               	.LBB3877:
 3811               	.LSM419:
 3812 0044 8091 7A00 		lds r24,122
 3813               	.LVL188:
 3814 0048 877F      		andi r24,lo8(-9)
 3815 004a 8093 7A00 		sts 122,r24
 3816               	.LBE3877:
 3817               	.LBE3876:
 3818               	.LBE3875:
 3819               	.LBE3874:
 3820               	.LBB3878:
 3821               	.LBB3879:
 3822               	.LBB3880:
 3823               	.LSM420:
 3824 004e 2FB7      		in r18,95-0x20
 3825               	.LVL189:
 3826               	.LBB3881:
 3827               	.LBB3882:
 3828               	.LSM421:
 3829               	/* #APP */
 3830 0050 F894      		cli
 3831               	/* #NOAPP */
 3832               	.LBE3882:
 3833               	.LBE3881:
 3834               	.LSM422:
 3835               	.LBE3880:
 3836               	.LBE3879:
 3837               	.LSM423:
 3838 0052 3327      		clr r19
 3839               	.LBB3883:
 3840               	.LBB3884:
 3841               	.LBB3885:
 3842               	.LBB3886:
 3843               	.LSM424:
 3844 0054 8091 7A00 		lds r24,122
 3845 0058 8F77      		andi r24,lo8(127)
 3846 005a 8093 7A00 		sts 122,r24
 3847               	.LBB3887:
 3848               	.LBB3888:
 3849               	.LBB3889:
 3850               	.LBB3890:
 3851               	.LSM425:
 3852 005e 8FEF      		ldi r24,lo8(-1)
 3853 0060 8093 0000 		sts McuSleepC__powerState,r24
 3854               	.LBE3890:
 3855               	.LBE3889:
 3856               	.LBE3888:
 3857               	.LBE3887:
 3858               	.LBE3886:
 3859               	.LBE3885:
 3860               	.LBE3884:
 3861               	.LBE3883:
 3862               	.LBB3891:
 3863               	.LBB3892:
 3864               	.LSM426:
 3865               	.LSM427:
 3866 0064 2FBF      		out 95-0x20,r18
 3867               	.LBE3892:
 3868               	.LBE3891:
 3869               	.LBE3878:
 3870               	.LBB3893:
 3871               	.LBB3894:
 3872               	.LBB3895:
 3873               	.LBB3896:
 3874               	.LSM428:
 3875 0066 8091 0000 		lds r24,AdcP__state
 3876 006a 8130      		cpi r24,lo8(1)
 3877 006c 01F0      		breq .L276
 3878 006e 8230      		cpi r24,lo8(2)
 3879 0070 01F0      		breq .+2
 3880 0072 00C0      		rjmp .L282
 3881 0074 00C0      		rjmp .L277
 3882               	.L276:
 3883               	.LSM429:
 3884 0076 4423      		tst r20
 3885 0078 01F0      		breq .L283
 3886               	.LSM430:
 3887 007a 7093 0000 		sts (AdcP__val)+1,r23
 3888 007e 6093 0000 		sts AdcP__val,r22
 3889               	.LBB3897:
 3890               	.LSM431:
 3891 0082 8CE0      		ldi r24,lo8(12)
 3892 0084 0E94 0000 		call SchedulerBasicP__TaskBasic__postTask
 3893               	.LVL190:
 3894 0088 00C0      		rjmp .L282
 3895               	.LVL191:
 3896               	.L277:
 3897               	.LBE3897:
 3898               	.LSM432:
 3899 008a 4423      		tst r20
 3900 008c 01F4      		brne .L280
 3901               	.L283:
 3902               	.LSM433:
 3903 008e 0E94 0000 		call AdcP__sample
 3904               	.LVL192:
 3905 0092 00C0      		rjmp .L282
 3906               	.LVL193:
 3907               	.L280:
 3908               	.LSM434:
 3909 0094 1092 0000 		sts AdcP__state,__zero_reg__
 3910 0098 00C0      		rjmp .L282
 3911               	.LVL194:
 3912               	.L273:
 3913               	.LBE3896:
 3914               	.LBE3895:
 3915               	.LBE3894:
 3916               	.LBE3893:
 3917               	.LBB3898:
 3918               	.LBB3899:
 3919               	.LBB3900:
 3920               	.LBB3901:
 3921               	.LSM435:
 3922 009a 8FB7      		in r24,95-0x20
 3923               	.LVL195:
 3924               	.LBB3902:
 3925               	.LBB3903:
 3926               	.LSM436:
 3927               	/* #APP */
 3928 009c F894      		cli
 3929               	/* #NOAPP */
 3930               	.LBE3903:
 3931               	.LBE3902:
 3932               	.LSM437:
 3933               	.LBE3901:
 3934               	.LBE3900:
 3935               	.LSM438:
 3936 009e 9927      		clr r25
 3937               	.LBB3904:
 3938               	.LBB3905:
 3939               	.LSM439:
 3940               	.LSM440:
 3941 00a0 8FBF      		out 95-0x20,r24
 3942               	.LBE3905:
 3943               	.LBE3904:
 3944               	.LBE3899:
 3945               	.LBB3906:
 3946               	.LBB3907:
 3947               	.LBB3908:
 3948               	.LSM441:
 3949 00a2 2FB7      		in r18,95-0x20
 3950               	.LVL196:
 3951               	.LBB3909:
 3952               	.LBB3910:
 3953               	.LSM442:
 3954               	/* #APP */
 3955 00a4 F894      		cli
 3956               	/* #NOAPP */
 3957               	.LBE3910:
 3958               	.LBE3909:
 3959               	.LSM443:
 3960               	.LBE3908:
 3961               	.LBE3907:
 3962               	.LSM444:
 3963 00a6 3327      		clr r19
 3964               	.LBB3911:
 3965               	.LBB3912:
 3966               	.LBB3913:
 3967               	.LBB3914:
 3968               	.LBB3915:
 3969               	.LBB3916:
 3970               	.LBB3917:
 3971               	.LSM445:
 3972 00a8 8091 7A00 		lds r24,122
 3973               	.LVL197:
 3974               	.LBE3917:
 3975               	.LBE3916:
 3976               	.LSM446:
 3977 00ac 582F      		mov r21,r24
 3978 00ae 5770      		andi r21,lo8(7)
 3979 00b0 482F      		mov r20,r24
 3980 00b2 4072      		andi r20,lo8(32)
 3981               	.LVL198:
 3982 00b4 987D      		andi r25,lo8(-40)
 3983 00b6 942B      		or r25,r20
 3984 00b8 952B      		or r25,r21
 3985 00ba 8074      		andi r24,lo8(64)
 3986 00bc 977B      		andi r25,lo8(-73)
 3987 00be 982B      		or r25,r24
 3988 00c0 9061      		ori r25,lo8(16)
 3989 00c2 9F77      		andi r25,lo8(127)
 3990               	.LBB3918:
 3991               	.LBB3919:
 3992               	.LSM447:
 3993 00c4 892F      		mov r24,r25
 3994 00c6 9927      		clr r25
 3995               	.LVL199:
 3996 00c8 8093 7A00 		sts 122,r24
 3997               	.LVL200:
 3998 00cc 887D      		andi r24,lo8(-40)
 3999 00ce 842B      		or r24,r20
 4000 00d0 852B      		or r24,r21
 4001 00d2 8773      		andi r24,lo8(55)
 4002 00d4 8061      		ori r24,lo8(16)
 4003               	.LBE3919:
 4004               	.LBE3918:
 4005               	.LBB3920:
 4006               	.LBB3921:
 4007 00d6 9927      		clr r25
 4008               	.LVL201:
 4009 00d8 8093 7A00 		sts 122,r24
 4010               	.LVL202:
 4011 00dc 887D      		andi r24,lo8(-40)
 4012 00de 842B      		or r24,r20
 4013 00e0 852B      		or r24,r21
 4014 00e2 877B      		andi r24,lo8(-73)
 4015 00e4 8069      		ori r24,lo8(-112)
 4016               	.LBE3921:
 4017               	.LBE3920:
 4018               	.LBB3922:
 4019               	.LBB3923:
 4020 00e6 9927      		clr r25
 4021               	.LVL203:
 4022 00e8 8093 7A00 		sts 122,r24
 4023               	.LBE3923:
 4024               	.LBE3922:
 4025               	.LBE3915:
 4026               	.LBE3914:
 4027               	.LBE3913:
 4028               	.LBE3912:
 4029               	.LBE3911:
 4030               	.LBB3924:
 4031               	.LBB3925:
 4032               	.LSM448:
 4033               	.LSM449:
 4034 00ec 2FBF      		out 95-0x20,r18
 4035               	.LVL204:
 4036               	.L282:
 4037               	.LBE3925:
 4038               	.LBE3924:
 4039               	.LBE3906:
 4040               	.LBE3898:
 4041               	.LBE3866:
 4042               	.LBE3865:
 4043               	.LBE3864:
 4044               	.LBE3863:
 4045               	/* epilogue: frame size=0 */
 4046 00ee FF91      		pop r31
 4047 00f0 EF91      		pop r30
 4048 00f2 BF91      		pop r27
 4049 00f4 AF91      		pop r26
 4050 00f6 9F91      		pop r25
 4051 00f8 8F91      		pop r24
 4052 00fa 7F91      		pop r23
 4053 00fc 6F91      		pop r22
 4054 00fe 5F91      		pop r21
 4055 0100 4F91      		pop r20
 4056 0102 3F91      		pop r19
 4057 0104 2F91      		pop r18
 4058 0106 0F90      		pop __tmp_reg__
 4059 0108 0FBE      		out __SREG__,__tmp_reg__
 4060 010a 0F90      		pop __tmp_reg__
 4061 010c 1F90      		pop __zero_reg__
 4062 010e 1895      		reti
 4063               	/* epilogue end (size=17) */
 4064               	/* function __vector_29 size 157 (123) */
 4065               	.LFE619:
 4067               		.section	.text.__vector_58,"ax",@progbits
 4068               	.global	__vector_58
 4070               	__vector_58:
 4071               	.LFB624:
 4072               	.LSM450:
 4073               	/* prologue: frame size=0 */
 4074 0000 1F92      		push __zero_reg__
 4075 0002 0F92      		push __tmp_reg__
 4076 0004 0FB6      		in __tmp_reg__,__SREG__
 4077 0006 0F92      		push __tmp_reg__
 4078 0008 1124      		clr __zero_reg__
 4079               	/* prologue end (size=5) */
 4080               	/* epilogue: frame size=0 */
 4081 000a 0F90      		pop __tmp_reg__
 4082 000c 0FBE      		out __SREG__,__tmp_reg__
 4083 000e 0F90      		pop __tmp_reg__
 4084 0010 1F90      		pop __zero_reg__
 4085 0012 1895      		reti
 4086               	/* epilogue end (size=5) */
 4087               	/* function __vector_58 size 10 (0) */
 4088               	.LFE624:
 4090               		.section	.text.__vector_62,"ax",@progbits
 4091               	.global	__vector_62
 4093               	__vector_62:
 4094               	.LFB627:
 4095               	.LSM451:
 4096               	/* prologue: frame size=0 */
 4097 0000 1F92      		push __zero_reg__
 4098 0002 0F92      		push __tmp_reg__
 4099 0004 0FB6      		in __tmp_reg__,__SREG__
 4100 0006 0F92      		push __tmp_reg__
 4101 0008 1124      		clr __zero_reg__
 4102               	/* prologue end (size=5) */
 4103               	/* epilogue: frame size=0 */
 4104 000a 0F90      		pop __tmp_reg__
 4105 000c 0FBE      		out __SREG__,__tmp_reg__
 4106 000e 0F90      		pop __tmp_reg__
 4107 0010 1F90      		pop __zero_reg__
 4108 0012 1895      		reti
 4109               	/* epilogue end (size=5) */
 4110               	/* function __vector_62 size 10 (0) */
 4111               	.LFE627:
 4113               		.section	.text.SoftwareAckLayerC__0__SubSend__send,"ax",@progbits
 4115               	SoftwareAckLayerC__0__SubSend__send:
 4116               	.LFB80:
 4117               	.LSM452:
 4118               	/* prologue: frame size=4 */
 4119 0000 2F92      		push r2
 4120 0002 3F92      		push r3
 4121 0004 4F92      		push r4
 4122 0006 5F92      		push r5
 4123 0008 6F92      		push r6
 4124 000a 7F92      		push r7
 4125 000c 8F92      		push r8
 4126 000e 9F92      		push r9
 4127 0010 AF92      		push r10
 4128 0012 BF92      		push r11
 4129 0014 CF92      		push r12
 4130 0016 DF92      		push r13
 4131 0018 EF92      		push r14
 4132 001a FF92      		push r15
 4133 001c 0F93      		push r16
 4134 001e 1F93      		push r17
 4135 0020 CF93      		push r28
 4136 0022 DF93      		push r29
 4137 0024 CDB7      		in r28,__SP_L__
 4138 0026 DEB7      		in r29,__SP_H__
 4139 0028 2497      		sbiw r28,4
 4140 002a 0FB6      		in __tmp_reg__,__SREG__
 4141 002c F894      		cli
 4142 002e DEBF      		out __SP_H__,r29
 4143 0030 0FBE      		out __SREG__,__tmp_reg__
 4144 0032 CDBF      		out __SP_L__,r28
 4145               	/* prologue end (size=26) */
 4146               	.LVL205:
 4147 0034 9C83      		std Y+4,r25
 4148 0036 8B83      		std Y+3,r24
 4149               	.LBB4003:
 4150               	.LBB4004:
 4151               	.LSM453:
 4152 0038 8091 0000 		lds r24,RFA1DriverLayerP__cmd
 4153               	.LVL206:
 4154 003c 8823      		tst r24
 4155 003e 01F0      		breq .+2
 4156 0040 00C0      		rjmp .L289
 4157               	.LSM454:
 4158 0042 8091 0000 		lds r24,RFA1DriverLayerP__state
 4159 0046 8530      		cpi r24,lo8(5)
 4160 0048 01F0      		breq .+2
 4161 004a 00C0      		rjmp .L289
 4162 004c 8091 0000 		lds r24,RFA1DriverLayerP__radioIrq
 4163 0050 8823      		tst r24
 4164 0052 01F0      		breq .+2
 4165 0054 00C0      		rjmp .L289
 4166               	.LBB4005:
 4167               	.LBB4006:
 4168               	.LBB4007:
 4169               	.LSM455:
 4170 0056 6B81      		ldd r22,Y+3
 4171 0058 7C81      		ldd r23,Y+4
 4172 005a 82E0      		ldi r24,lo8(2)
 4173 005c 0E94 0000 		call MetadataFlagsLayerC__0__PacketFlag__get
 4174 0060 8823      		tst r24
 4175 0062 01F4      		brne .L293
 4176 0064 90E0      		ldi r25,lo8(0)
 4177               	.LVL207:
 4178 0066 00C0      		rjmp .L295
 4179               	.LVL208:
 4180               	.L293:
 4181               	.LBE4007:
 4182               	.LBE4006:
 4183               	.LBE4005:
 4184               	.LSM456:
 4185 0068 EB81      		ldd r30,Y+3
 4186 006a FC81      		ldd r31,Y+4
 4187 006c 91A9      		ldd r25,Z+49
 4188               	.LVL209:
 4189               	.L295:
 4190               	.LSM457:
 4191 006e 8091 0000 		lds r24,RFA1DriverLayerP__txPower
 4192 0072 9817      		cp r25,r24
 4193 0074 01F0      		breq .L296
 4194               	.LSM458:
 4195 0076 9093 0000 		sts RFA1DriverLayerP__txPower,r25
 4196               	.LSM459:
 4197 007a 9F70      		andi r25,lo8(15)
 4198 007c 906C      		ori r25,lo8(-64)
 4199 007e 9093 4501 		sts 325,r25
 4200               	.L296:
 4201               	.LBB4008:
 4202               	.LBB4009:
 4203               	.LBB4010:
 4204               	.LBB4011:
 4205               	.LBB4012:
 4206               	.LSM460:
 4207 0082 8B81      		ldd r24,Y+3
 4208 0084 9C81      		ldd r25,Y+4
 4209 0086 0E94 0000 		call Ieee154PacketLayerP__0__Ieee154PacketLayer__isDataFrame
 4210               	.LVL210:
 4211 008a 8823      		tst r24
 4212 008c 01F0      		breq .L298
 4213               	.LBE4012:
 4214               	.LBE4011:
 4215               	.LBE4010:
 4216               	.LBE4009:
 4217               	.LBE4008:
 4218               	.LSM461:
 4219 008e 8091 4601 		lds r24,326
 4220 0092 9927      		clr r25
 4221 0094 8F71      		andi r24,lo8(31)
 4222 0096 9070      		andi r25,hi8(31)
 4223 0098 2091 0000 		lds r18,RFA1DriverLayerP__rssiClear
 4224 009c 4091 0000 		lds r20,RFA1DriverLayerP__rssiBusy
 4225 00a0 240F      		add r18,r20
 4226 00a2 312D      		mov r19,__zero_reg__
 4227 00a4 311D      		adc r19,__zero_reg__
 4228 00a6 B3E0      		ldi r27,3
 4229 00a8 3595      	1:	asr r19
 4230 00aa 2795      		ror r18
 4231 00ac BA95      		dec r27
 4232 00ae 01F4      		brne 1b
 4233 00b0 2817      		cp r18,r24
 4234 00b2 3907      		cpc r19,r25
 4235 00b4 04F4      		brge .+2
 4236 00b6 00C0      		rjmp .L289
 4237               	.L298:
 4238               	.LSM462:
 4239 00b8 89E0      		ldi r24,lo8(9)
 4240 00ba 8093 4201 		sts 322,r24
 4241               	.LBB4013:
 4242               	.LBB4014:
 4243               	.LBB4015:
 4244               	.LSM463:
 4245 00be 6B81      		ldd r22,Y+3
 4246 00c0 7C81      		ldd r23,Y+4
 4247 00c2 84E0      		ldi r24,lo8(4)
 4248 00c4 0E94 0000 		call MetadataFlagsLayerC__0__PacketFlag__get
 4249 00c8 8823      		tst r24
 4250 00ca 01F4      		brne .L300
 4251 00cc 6624      		clr r6
 4252 00ce 7724      		clr r7
 4253               	.LVL211:
 4254 00d0 00C0      		rjmp .L302
 4255               	.LVL212:
 4256               	.L300:
 4257               	.LBE4015:
 4258               	.LBE4014:
 4259               	.LBE4013:
 4260               	.LBB4016:
 4261               	.LBB4017:
 4262               	.LBB4018:
 4263               	.LBB4019:
 4264               	.LBB4020:
 4265               	.LBB4021:
 4266               	.LSM464:
 4267 00d2 EB81      		ldd r30,Y+3
 4268 00d4 FC81      		ldd r31,Y+4
 4269 00d6 8081      		ld r24,Z
 4270               	.LBE4021:
 4271               	.LBE4020:
 4272               	.LBE4019:
 4273               	.LBE4018:
 4274               	.LBE4017:
 4275               	.LBE4016:
 4276               	.LSM465:
 4277 00d8 8550      		subi r24,lo8(-(-5))
 4278 00da 3F01      		movw r6,r30
 4279               	.LVL213:
 4280 00dc 680E      		add r6,r24
 4281 00de 711C      		adc r7,__zero_reg__
 4282               	.L302:
 4283               	.LSM466:
 4284 00e0 8091 4101 		lds r24,321
 4285 00e4 8F71      		andi r24,lo8(31)
 4286 00e6 8930      		cpi r24,lo8(9)
 4287 00e8 01F0      		breq .L303
 4288               	.LSM467:
 4289 00ea 87E0      		ldi r24,lo8(7)
 4290 00ec 8093 0000 		sts RFA1DriverLayerP__state,r24
 4291 00f0 00C0      		rjmp .L289
 4292               	.L303:
 4293               	.LSM468:
 4294 00f2 2B80      		ldd r2,Y+3
 4295 00f4 3C80      		ldd r3,Y+4
 4296               	.LVL214:
 4297 00f6 0894      		sec
 4298 00f8 211C      		adc r2,__zero_reg__
 4299 00fa 311C      		adc r3,__zero_reg__
 4300               	.LBB4022:
 4301               	.LBB4023:
 4302               	.LSM469:
 4303 00fc EB81      		ldd r30,Y+3
 4304 00fe FC81      		ldd r31,Y+4
 4305 0100 8081      		ld r24,Z
 4306               	.LBE4023:
 4307               	.LBE4022:
 4308               	.LSM470:
 4309 0102 9927      		clr r25
 4310               	.LSM471:
 4311 0104 8093 8001 		sts 384,r24
 4312               	.LSM472:
 4313 0108 8250      		subi r24,lo8(-(-2))
 4314               	.LVL215:
 4315               	.LSM473:
 4316 010a 8730      		cpi r24,lo8(7)
 4317 010c 00F4      		brsh .L306
 4318 010e 982F      		mov r25,r24
 4319               	.LVL216:
 4320 0110 00C0      		rjmp .L308
 4321               	.LVL217:
 4322               	.L306:
 4323 0112 97E0      		ldi r25,lo8(7)
 4324               	.LVL218:
 4325               	.L308:
 4326               	.LSM474:
 4327 0114 D82E      		mov r13,r24
 4328               	.LVL219:
 4329 0116 D91A      		sub r13,r25
 4330               	.LSM475:
 4331 0118 E92E      		mov r14,r25
 4332 011a FF24      		clr r15
 4333 011c A701      		movw r20,r14
 4334 011e B101      		movw r22,r2
 4335 0120 81E8      		ldi r24,lo8(385)
 4336 0122 91E0      		ldi r25,hi8(385)
 4337               	.LVL220:
 4338 0124 0E94 0000 		call memcpy
 4339               	.LVL221:
 4340               	.LBB4024:
 4341               	.LBB4025:
 4342               	.LBB4026:
 4343               	.LSM476:
 4344 0128 0FB7      		in r16,95-0x20
 4345               	.LVL222:
 4346               	.LBB4027:
 4347               	.LBB4028:
 4348               	.LSM477:
 4349               	/* #APP */
 4350 012a F894      		cli
 4351               	/* #NOAPP */
 4352               	.LBE4028:
 4353               	.LBE4027:
 4354               	.LSM478:
 4355               	.LBE4026:
 4356               	.LBE4025:
 4357               	.LSM479:
 4358 012c 1127      		clr r17
 4359               	.LSM480:
 4360 012e 82E0      		ldi r24,lo8(2)
 4361 0130 8093 4201 		sts 322,r24
 4362               	.LBB4029:
 4363               	.LSM481:
 4364 0134 0E94 0000 		call CounterToLocalTimeC__1__LocalTime__get
 4365 0138 4B01      		movw r8,r22
 4366 013a 5C01      		movw r10,r24
 4367               	.LVL223:
 4368               	.LBE4029:
 4369               	.LBB4030:
 4370               	.LBB4031:
 4371               	.LSM482:
 4372               	.LSM483:
 4373 013c 0FBF      		out 95-0x20,r16
 4374 013e C701      		movw r24,r14
 4375 0140 8F57      		subi r24,lo8(-(385))
 4376 0142 9E4F      		sbci r25,hi8(-(385))
 4377 0144 9A83      		std Y+2,r25
 4378 0146 8983      		std Y+1,r24
 4379 0148 4D2C      		mov r4,r13
 4380 014a 5524      		clr r5
 4381 014c 2E0C      		add r2,r14
 4382 014e 3F1C      		adc r3,r15
 4383               	.LVL224:
 4384               	.LBE4031:
 4385               	.LBE4030:
 4386               	.LBE4024:
 4387               	.LSM484:
 4388 0150 6114      		cp r6,__zero_reg__
 4389 0152 7104      		cpc r7,__zero_reg__
 4390 0154 01F4      		brne .+2
 4391 0156 00C0      		rjmp .L310
 4392               	.LVL225:
 4393               	.LBB4032:
 4394               	.LBB4033:
 4395               	.LSM485:
 4396 0158 F301      		movw r30,r6
 4397 015a 8081      		ld r24,Z
 4398 015c 0181      		ldd r16,Z+1
 4399               	.LVL226:
 4400 015e 4281      		ldd r20,Z+2
 4401 0160 C380      		ldd r12,Z+3
 4402               	.LBE4033:
 4403               	.LBE4032:
 4404               	.LBB4034:
 4405               	.LBB4035:
 4406               	.LSM486:
 4407 0162 5527      		clr r21
 4408 0164 6627      		clr r22
 4409 0166 7727      		clr r23
 4410 0168 762F      		mov r23,r22
 4411 016a 652F      		mov r22,r21
 4412 016c 542F      		mov r21,r20
 4413 016e 4427      		clr r20
 4414 0170 9927      		clr r25
 4415 0172 AA27      		clr r26
 4416 0174 BB27      		clr r27
 4417 0176 B82F      		mov r27,r24
 4418 0178 AA27      		clr r26
 4419 017a 9927      		clr r25
 4420 017c 8827      		clr r24
 4421 017e 1127      		clr r17
 4422 0180 2227      		clr r18
 4423 0182 3327      		clr r19
 4424 0184 9801      		movw r18,r16
 4425 0186 1127      		clr r17
 4426 0188 0027      		clr r16
 4427 018a 802B      		or r24,r16
 4428 018c 912B      		or r25,r17
 4429 018e A22B      		or r26,r18
 4430 0190 B32B      		or r27,r19
 4431 0192 DD24      		clr r13
 4432 0194 EE24      		clr r14
 4433 0196 FF24      		clr r15
 4434 0198 8C29      		or r24,r12
 4435 019a 9D29      		or r25,r13
 4436 019c AE29      		or r26,r14
 4437 019e BF29      		or r27,r15
 4438 01a0 482B      		or r20,r24
 4439 01a2 592B      		or r21,r25
 4440 01a4 6A2B      		or r22,r26
 4441 01a6 7B2B      		or r23,r27
 4442 01a8 4819      		sub r20,r8
 4443 01aa 5909      		sbc r21,r9
 4444 01ac 6A09      		sbc r22,r10
 4445 01ae 7B09      		sbc r23,r11
 4446 01b0 C301      		movw r24,r6
 4447 01b2 0E94 0000 		call __nesc_hton_uint32
 4448               	.LBE4035:
 4449               	.LBE4034:
 4450               	.LSM487:
 4451 01b6 A201      		movw r20,r4
 4452 01b8 B101      		movw r22,r2
 4453 01ba 8981      		ldd r24,Y+1
 4454 01bc 9A81      		ldd r25,Y+2
 4455 01be 0E94 0000 		call memcpy
 4456               	.LSM488:
 4457 01c2 96E0      		ldi r25,lo8(6)
 4458 01c4 9093 0000 		sts RFA1DriverLayerP__state,r25
 4459               	.LSM489:
 4460 01c8 84E0      		ldi r24,lo8(4)
 4461 01ca 8093 0000 		sts RFA1DriverLayerP__cmd,r24
 4462               	.LSM490:
 4463 01ce 9093 4201 		sts 322,r25
 4464               	.LSM491:
 4465 01d2 B501      		movw r22,r10
 4466 01d4 A401      		movw r20,r8
 4467 01d6 C301      		movw r24,r6
 4468 01d8 0E94 0000 		call __nesc_hton_uint32
 4469 01dc 00C0      		rjmp .L313
 4470               	.LVL227:
 4471               	.L310:
 4472               	.LSM492:
 4473 01de A201      		movw r20,r4
 4474 01e0 B101      		movw r22,r2
 4475 01e2 8981      		ldd r24,Y+1
 4476 01e4 9A81      		ldd r25,Y+2
 4477 01e6 0E94 0000 		call memcpy
 4478               	.LSM493:
 4479 01ea 96E0      		ldi r25,lo8(6)
 4480 01ec 9093 0000 		sts RFA1DriverLayerP__state,r25
 4481               	.LSM494:
 4482 01f0 84E0      		ldi r24,lo8(4)
 4483 01f2 8093 0000 		sts RFA1DriverLayerP__cmd,r24
 4484               	.LSM495:
 4485 01f6 9093 4201 		sts 322,r25
 4486               	.L313:
 4487               	.LSM496:
 4488 01fa B501      		movw r22,r10
 4489 01fc A401      		movw r20,r8
 4490 01fe 8B81      		ldd r24,Y+3
 4491 0200 9C81      		ldd r25,Y+4
 4492 0202 0E94 0000 		call RFA1DriverLayerP__PacketTimeStamp__set
 4493 0206 80E0      		ldi r24,lo8(0)
 4494 0208 90E0      		ldi r25,hi8(0)
 4495 020a 00C0      		rjmp .L305
 4496               	.LVL228:
 4497               	.L289:
 4498 020c 85E0      		ldi r24,lo8(5)
 4499 020e 90E0      		ldi r25,hi8(5)
 4500               	.LVL229:
 4501               	.L305:
 4502               	.LBE4004:
 4503               	.LBE4003:
 4504               	/* epilogue: frame size=4 */
 4505 0210 2496      		adiw r28,4
 4506 0212 0FB6      		in __tmp_reg__,__SREG__
 4507 0214 F894      		cli
 4508 0216 DEBF      		out __SP_H__,r29
 4509 0218 0FBE      		out __SREG__,__tmp_reg__
 4510 021a CDBF      		out __SP_L__,r28
 4511 021c DF91      		pop r29
 4512 021e CF91      		pop r28
 4513 0220 1F91      		pop r17
 4514 0222 0F91      		pop r16
 4515 0224 FF90      		pop r15
 4516 0226 EF90      		pop r14
 4517 0228 DF90      		pop r13
 4518 022a CF90      		pop r12
 4519 022c BF90      		pop r11
 4520 022e AF90      		pop r10
 4521 0230 9F90      		pop r9
 4522 0232 8F90      		pop r8
 4523 0234 7F90      		pop r7
 4524 0236 6F90      		pop r6
 4525 0238 5F90      		pop r5
 4526 023a 4F90      		pop r4
 4527 023c 3F90      		pop r3
 4528 023e 2F90      		pop r2
 4529 0240 0895      		ret
 4530               	/* epilogue end (size=25) */
 4531               	/* function SoftwareAckLayerC__0__SubSend__send size 294 (243) */
 4532               	.LFE80:
 4534               		.section	.text.TaskletC__doit,"ax",@progbits
 4536               	TaskletC__doit:
 4537               	.LFB582:
 4538               	.LSM497:
 4539               	/* prologue: frame size=0 */
 4540 0000 6F92      		push r6
 4541 0002 7F92      		push r7
 4542 0004 8F92      		push r8
 4543 0006 9F92      		push r9
 4544 0008 AF92      		push r10
 4545 000a BF92      		push r11
 4546 000c CF92      		push r12
 4547 000e DF92      		push r13
 4548 0010 EF92      		push r14
 4549 0012 FF92      		push r15
 4550 0014 0F93      		push r16
 4551 0016 1F93      		push r17
 4552 0018 CF93      		push r28
 4553 001a DF93      		push r29
 4554               	/* prologue end (size=14) */
 4555               	.LVL230:
 4556               	.L318:
 4557               	.LBB4515:
 4558               	.LBB4516:
 4559               	.LBB4517:
 4560               	.LBB4518:
 4561               	.LSM498:
 4562 001c 9091 0000 		lds r25,RFA1DriverLayerP__radioIrq
 4563               	.LVL231:
 4564 0020 9923      		tst r25
 4565 0022 01F4      		brne .+2
 4566 0024 00C0      		rjmp .L319
 4567               	.LBB4519:
 4568               	.LBB4520:
 4569               	.LSM499:
 4570 0026 1092 0000 		sts RFA1DriverLayerP__radioIrq,__zero_reg__
 4571               	.LSM500:
 4572 002a 97FF      		sbrs r25,7
 4573 002c 00C0      		rjmp .L321
 4574               	.LSM501:
 4575 002e 8091 0000 		lds r24,RFA1DriverLayerP__state
 4576 0032 8230      		cpi r24,lo8(2)
 4577 0034 01F4      		brne .L321
 4578               	.LSM502:
 4579 0036 83E0      		ldi r24,lo8(3)
 4580 0038 8093 0000 		sts RFA1DriverLayerP__state,r24
 4581               	.L321:
 4582               	.LSM503:
 4583 003c E92E      		mov r14,r25
 4584 003e FF24      		clr r15
 4585               	.LVL232:
 4586               	.LBE4520:
 4587 0040 E0FE      		sbrs r14,0
 4588 0042 00C0      		rjmp .L324
 4589               	.LBB4521:
 4590               	.LSM504:
 4591 0044 8091 0000 		lds r24,RFA1DriverLayerP__cmd
 4592 0048 8330      		cpi r24,lo8(3)
 4593 004a 01F0      		breq .L326
 4594 004c 8730      		cpi r24,lo8(7)
 4595 004e 01F4      		brne .L324
 4596               	.L326:
 4597               	.LSM505:
 4598 0050 85E0      		ldi r24,lo8(5)
 4599 0052 8093 0000 		sts RFA1DriverLayerP__state,r24
 4600               	.LSM506:
 4601 0056 8091 4C01 		lds r24,332
 4602 005a 8068      		ori r24,lo8(-128)
 4603 005c 8093 4C01 		sts 332,r24
 4604               	.LSM507:
 4605 0060 88E0      		ldi r24,lo8(8)
 4606 0062 8093 0000 		sts RFA1DriverLayerP__cmd,r24
 4607               	.L324:
 4608               	.LSM508:
 4609 0066 E4FE      		sbrs r14,4
 4610 0068 00C0      		rjmp .L328
 4611               	.LSM509:
 4612 006a 8091 0000 		lds r24,RFA1DriverLayerP__cmd
 4613 006e 8630      		cpi r24,lo8(6)
 4614 0070 01F4      		brne .L328
 4615 0072 8091 4101 		lds r24,321
 4616 0076 87FF      		sbrs r24,7
 4617 0078 00C0      		rjmp .L328
 4618               	.LSM510:
 4619 007a 1092 0000 		sts RFA1DriverLayerP__cmd,__zero_reg__
 4620               	.LSM511:
 4621 007e 8091 4101 		lds r24,321
 4622               	.L328:
 4623               	.LSM512:
 4624 0082 E2FE      		sbrs r14,2
 4625 0084 00C0      		rjmp .L332
 4626               	.LSM513:
 4627 0086 8091 0000 		lds r24,RFA1DriverLayerP__cmd
 4628 008a 8630      		cpi r24,lo8(6)
 4629 008c 01F4      		brne .L334
 4630               	.LSM514:
 4631 008e 1092 0000 		sts RFA1DriverLayerP__cmd,__zero_reg__
 4632 0092 00C0      		rjmp .L336
 4633               	.L334:
 4634               	.LSM515:
 4635 0094 8823      		tst r24
 4636 0096 01F0      		breq .+2
 4637 0098 00C0      		rjmp .L332
 4638               	.L336:
 4639 009a C091 0000 		lds r28,RFA1DriverLayerP__rxMsg
 4640 009e D091 0000 		lds r29,(RFA1DriverLayerP__rxMsg)+1
 4641               	.LVL233:
 4642               	.LSM516:
 4643 00a2 9430      		cpi r25,lo8(4)
 4644 00a4 01F4      		brne .L337
 4645               	.LBB4522:
 4646               	.LSM517:
 4647 00a6 1091 4601 		lds r17,326
 4648               	.LVL234:
 4649 00aa 1F71      		andi r17,lo8(31)
 4650               	.LSM518:
 4651 00ac 8091 0000 		lds r24,RFA1DriverLayerP__rssiBusy
 4652 00b0 982F      		mov r25,r24
 4653 00b2 9695      		lsr r25
 4654 00b4 9695      		lsr r25
 4655 00b6 212F      		mov r18,r17
 4656               	.LVL235:
 4657 00b8 291B      		sub r18,r25
 4658 00ba 820F      		add r24,r18
 4659 00bc 8093 0000 		sts RFA1DriverLayerP__rssiBusy,r24
 4660               	.LBB4523:
 4661               	.LBB4524:
 4662               	.LBB4525:
 4663               	.LBB4526:
 4664               	.LSM519:
 4665 00c0 BE01      		movw r22,r28
 4666               	.LVL236:
 4667 00c2 82E0      		ldi r24,lo8(2)
 4668 00c4 0E94 0000 		call MetadataFlagsLayerC__0__PacketFlag__clear
 4669               	.LVL237:
 4670               	.LBE4526:
 4671               	.LBE4525:
 4672               	.LBB4527:
 4673               	.LBB4528:
 4674               	.LSM520:
 4675 00c8 BE01      		movw r22,r28
 4676               	.LVL238:
 4677 00ca 83E0      		ldi r24,lo8(3)
 4678 00cc 0E94 0000 		call MetadataFlagsLayerC__0__PacketFlag__set
 4679               	.LVL239:
 4680               	.LBE4528:
 4681               	.LBE4527:
 4682               	.LSM521:
 4683 00d0 19AB      		std Y+49,r17
 4684               	.LBE4524:
 4685               	.LBE4523:
 4686               	.LBE4522:
 4687               	.LBB4529:
 4688               	.LBB4530:
 4689               	.LBB4531:
 4690               	.LBB4532:
 4691               	.LBB4533:
 4692               	.LBB4534:
 4693               	.LBB4535:
 4694               	.LBB4536:
 4695               	.LSM522:
 4696 00d2 2FB7      		in r18,95-0x20
 4697               	.LVL240:
 4698               	.LBB4537:
 4699               	.LBB4538:
 4700               	.LSM523:
 4701               	/* #APP */
 4702 00d4 F894      		cli
 4703               	/* #NOAPP */
 4704               	.LBE4538:
 4705               	.LBE4537:
 4706               	.LSM524:
 4707               	.LBE4536:
 4708               	.LBE4535:
 4709               	.LSM525:
 4710 00d6 3327      		clr r19
 4711               	.LSM526:
 4712 00d8 8091 E900 		lds r24,233
 4713 00dc 682E      		mov r6,r24
 4714               	.LSM527:
 4715 00de 8091 EA00 		lds r24,234
 4716 00e2 782E      		mov r7,r24
 4717               	.LSM528:
 4718 00e4 8091 EB00 		lds r24,235
 4719 00e8 882E      		mov r8,r24
 4720               	.LSM529:
 4721 00ea 8091 EC00 		lds r24,236
 4722 00ee 982E      		mov r9,r24
 4723               	.LBB4539:
 4724               	.LBB4540:
 4725               	.LSM530:
 4726               	.LSM531:
 4727 00f0 2FBF      		out 95-0x20,r18
 4728               	.LBE4540:
 4729               	.LBE4539:
 4730               	.LBE4534:
 4731               	.LBE4533:
 4732               	.LBE4532:
 4733               	.LBE4531:
 4734               	.LBE4530:
 4735               	.LSM532:
 4736 00f2 B401      		movw r22,r8
 4737 00f4 A301      		movw r20,r6
 4738 00f6 8091 0000 		lds r24,RFA1DriverLayerP__rxMsg
 4739 00fa 9091 0000 		lds r25,(RFA1DriverLayerP__rxMsg)+1
 4740 00fe 0E94 0000 		call RFA1DriverLayerP__PacketTimeStamp__set
 4741               	.LVL241:
 4742 0102 00C0      		rjmp .L339
 4743               	.LVL242:
 4744               	.L337:
 4745               	.LBE4529:
 4746               	.LBB4541:
 4747               	.LBB4542:
 4748               	.LBB4543:
 4749               	.LBB4544:
 4750               	.LSM533:
 4751 0104 BE01      		movw r22,r28
 4752               	.LVL243:
 4753 0106 83E0      		ldi r24,lo8(3)
 4754 0108 0E94 0000 		call MetadataFlagsLayerC__0__PacketFlag__clear
 4755               	.LVL244:
 4756               	.LBE4544:
 4757               	.LBE4543:
 4758               	.LBE4542:
 4759               	.LBE4541:
 4760               	.LBB4545:
 4761               	.LBB4546:
 4762               	.LBB4547:
 4763               	.LBB4548:
 4764               	.LBB4549:
 4765               	.LBB4550:
 4766 010c 6091 0000 		lds r22,RFA1DriverLayerP__rxMsg
 4767 0110 7091 0000 		lds r23,(RFA1DriverLayerP__rxMsg)+1
 4768 0114 81E0      		ldi r24,lo8(1)
 4769 0116 0E94 0000 		call MetadataFlagsLayerC__0__PacketFlag__clear
 4770               	.L339:
 4771               	.LBE4550:
 4772               	.LBE4549:
 4773               	.LBE4548:
 4774               	.LBE4547:
 4775               	.LBE4546:
 4776               	.LBE4545:
 4777               	.LSM534:
 4778 011a 85E0      		ldi r24,lo8(5)
 4779 011c 8093 0000 		sts RFA1DriverLayerP__cmd,r24
 4780               	.LVL245:
 4781               	.L332:
 4782               	.LSM535:
 4783 0120 E6FE      		sbrs r14,6
 4784 0122 00C0      		rjmp .L340
 4785               	.LSM536:
 4786 0124 8091 0000 		lds r24,RFA1DriverLayerP__cmd
 4787 0128 8430      		cpi r24,lo8(4)
 4788 012a 01F4      		brne .L340
 4789               	.LSM537:
 4790 012c 85E0      		ldi r24,lo8(5)
 4791 012e 8093 0000 		sts RFA1DriverLayerP__state,r24
 4792               	.LSM538:
 4793 0132 1092 0000 		sts RFA1DriverLayerP__cmd,__zero_reg__
 4794               	.LBB4551:
 4795               	.LBB4552:
 4796               	.LBB4553:
 4797               	.LBB4554:
 4798               	.LSM539:
 4799 0136 8091 0000 		lds r24,SoftwareAckLayerC__0__state
 4800 013a 8330      		cpi r24,lo8(3)
 4801 013c 01F4      		brne .L343
 4802               	.LSM540:
 4803 013e 1092 0000 		sts SoftwareAckLayerC__0__state,__zero_reg__
 4804 0142 00C0      		rjmp .L340
 4805               	.L343:
 4806               	.LSM541:
 4807 0144 0091 0000 		lds r16,SoftwareAckLayerC__0__txMsg
 4808 0148 1091 0000 		lds r17,(SoftwareAckLayerC__0__txMsg)+1
 4809               	.LVL246:
 4810               	.LBB4555:
 4811               	.LBB4556:
 4812               	.LBB4557:
 4813               	.LBB4558:
 4814               	.LBB4559:
 4815               	.LBB4560:
 4816               	.LBB4561:
 4817               	.LSM542:
 4818 014c C801      		movw r24,r16
 4819 014e 0E94 0000 		call Ieee154PacketLayerP__0__Ieee154PacketLayer__getAckRequired
 4820               	.LVL247:
 4821 0152 8823      		tst r24
 4822 0154 01F0      		breq .L345
 4823 0156 C801      		movw r24,r16
 4824 0158 0E94 0000 		call Ieee154PacketLayerP__0__Ieee154PacketLayer__isDataFrame
 4825 015c 8823      		tst r24
 4826 015e 01F0      		breq .L345
 4827 0160 C801      		movw r24,r16
 4828 0162 0E94 0000 		call Ieee154PacketLayerP__0__Ieee154PacketLayer__getDestAddr
 4829 0166 8F5F      		subi r24,lo8(-1)
 4830 0168 9F4F      		sbci r25,hi8(-1)
 4831 016a 01F0      		breq .L345
 4832               	.LBE4561:
 4833               	.LBE4560:
 4834               	.LBE4559:
 4835               	.LBE4558:
 4836               	.LBE4557:
 4837               	.LBE4556:
 4838               	.LBE4555:
 4839               	.LSM543:
 4840 016c 90E0      		ldi r25,lo8(0)
 4841 016e 8091 0000 		lds r24,RadioAlarmP__0__state
 4842 0172 8823      		tst r24
 4843 0174 01F4      		brne .L349
 4844 0176 91E0      		ldi r25,lo8(1)
 4845               	.L349:
 4846 0178 9923      		tst r25
 4847 017a 01F0      		breq .L345
 4848               	.LBB4562:
 4849               	.LBB4563:
 4850               	.LSM544:
 4851 017c 48E3      		ldi r20,lo8(312)
 4852 017e 51E0      		ldi r21,hi8(312)
 4853 0180 60E0      		ldi r22,hlo8(312)
 4854 0182 70E0      		ldi r23,hhi8(312)
 4855 0184 81E0      		ldi r24,lo8(1)
 4856 0186 0E94 0000 		call RadioAlarmP__0__RadioAlarm__wait
 4857               	.LBE4563:
 4858               	.LBE4562:
 4859               	.LSM545:
 4860 018a 82E0      		ldi r24,lo8(2)
 4861 018c 8093 0000 		sts SoftwareAckLayerC__0__state,r24
 4862 0190 00C0      		rjmp .L340
 4863               	.L345:
 4864               	.LSM546:
 4865 0192 1092 0000 		sts SoftwareAckLayerC__0__state,__zero_reg__
 4866               	.LSM547:
 4867 0196 80E0      		ldi r24,lo8(0)
 4868 0198 0E94 0000 		call SoftwareAckLayerC__0__RadioSend__sendDone
 4869               	.LVL248:
 4870               	.L340:
 4871               	.LBE4554:
 4872               	.LBE4553:
 4873               	.LBE4552:
 4874               	.LBE4551:
 4875               	.LSM548:
 4876 019c E3FE      		sbrs r14,3
 4877 019e 00C0      		rjmp .L319
 4878               	.LSM549:
 4879 01a0 9091 0000 		lds r25,RFA1DriverLayerP__cmd
 4880 01a4 9530      		cpi r25,lo8(5)
 4881 01a6 01F4      		brne .L319
 4882               	.LSM550:
 4883 01a8 8091 0000 		lds r24,RFA1DriverLayerP__state
 4884 01ac 8730      		cpi r24,lo8(7)
 4885 01ae 01F4      		brne .L353
 4886               	.LSM551:
 4887 01b0 86E0      		ldi r24,lo8(6)
 4888 01b2 8093 4201 		sts 322,r24
 4889               	.LSM552:
 4890 01b6 9093 0000 		sts RFA1DriverLayerP__state,r25
 4891 01ba 00C0      		rjmp .L355
 4892               	.L353:
 4893               	.LSM553:
 4894 01bc 8091 0000 		lds r24,RFA1DriverLayerP__rssiClear
 4895 01c0 9091 4601 		lds r25,326
 4896 01c4 9F71      		andi r25,lo8(31)
 4897 01c6 282F      		mov r18,r24
 4898               	.LVL249:
 4899 01c8 2695      		lsr r18
 4900 01ca 2695      		lsr r18
 4901 01cc 921B      		sub r25,r18
 4902 01ce 890F      		add r24,r25
 4903 01d0 8093 0000 		sts RFA1DriverLayerP__rssiClear,r24
 4904               	.LVL250:
 4905               	.L355:
 4906               	.LSM554:
 4907 01d4 89E0      		ldi r24,lo8(9)
 4908 01d6 8093 0000 		sts RFA1DriverLayerP__cmd,r24
 4909 01da 00C0      		rjmp .L356
 4910               	.LVL251:
 4911               	.L319:
 4912               	.LBE4521:
 4913               	.LBE4519:
 4914               	.LSM555:
 4915 01dc 9091 0000 		lds r25,RFA1DriverLayerP__cmd
 4916 01e0 9923      		tst r25
 4917 01e2 01F4      		brne .+2
 4918 01e4 00C0      		rjmp .L357
 4919               	.LSM556:
 4920 01e6 9930      		cpi r25,lo8(9)
 4921 01e8 01F0      		breq .+2
 4922 01ea 00C0      		rjmp .L359
 4923               	.L356:
 4924               	.LBB4564:
 4925               	.LBB4565:
 4926               	.LSM557:
 4927 01ec 4091 7B01 		lds r20,379
 4928               	.LSM558:
 4929 01f0 4330      		cpi r20,lo8(3)
 4930 01f2 00F4      		brsh .+2
 4931 01f4 00C0      		rjmp .L360
 4932 01f6 842F      		mov r24,r20
 4933 01f8 9927      		clr r25
 4934 01fa 8997      		sbiw r24,41
 4935 01fc 04F0      		brlt .+2
 4936 01fe 00C0      		rjmp .L360
 4937               	.LVL252:
 4938               	.LBB4566:
 4939               	.LSM559:
 4940 0200 E091 0000 		lds r30,RFA1DriverLayerP__rxMsg
 4941 0204 F091 0000 		lds r31,(RFA1DriverLayerP__rxMsg)+1
 4942               	.LVL253:
 4943 0208 6F01      		movw r12,r30
 4944               	.LVL254:
 4945 020a 0894      		sec
 4946 020c C11C      		adc r12,__zero_reg__
 4947 020e D11C      		adc r13,__zero_reg__
 4948               	.LBB4567:
 4949               	.LBB4568:
 4950               	.LSM560:
 4951 0210 4083      		st Z,r20
 4952               	.LBE4568:
 4953               	.LBE4567:
 4954               	.LSM561:
 4955 0212 FEEF      		ldi r31,lo8(-2)
 4956 0214 FF2E      		mov r15,r31
 4957               	.LVL255:
 4958 0216 F40E      		add r15,r20
 4959               	.LSM562:
 4960 0218 B6E0      		ldi r27,lo8(6)
 4961 021a BF15      		cp r27,r15
 4962 021c 00F0      		brlo .L363
 4963               	.LVL256:
 4964 021e EF2C      		mov r14,r15
 4965 0220 00C0      		rjmp .L365
 4966               	.L363:
 4967 0222 E7E0      		ldi r30,lo8(7)
 4968 0224 EE2E      		mov r14,r30
 4969               	.LVL257:
 4970               	.L365:
 4971               	.LSM563:
 4972 0226 0E2D      		mov r16,r14
 4973 0228 1127      		clr r17
 4974               	.LVL258:
 4975 022a A801      		movw r20,r16
 4976               	.LVL259:
 4977 022c 60E8      		ldi r22,lo8(384)
 4978 022e 71E0      		ldi r23,hi8(384)
 4979               	.LVL260:
 4980 0230 C601      		movw r24,r12
 4981               	.LVL261:
 4982 0232 0E94 0000 		call memcpy
 4983               	.LVL262:
 4984               	.LSM564:
 4985 0236 C091 0000 		lds r28,RFA1DriverLayerP__rxMsg
 4986 023a D091 0000 		lds r29,(RFA1DriverLayerP__rxMsg)+1
 4987               	.LVL263:
 4988               	.LBB4569:
 4989               	.LBB4570:
 4990               	.LBB4571:
 4991               	.LSM565:
 4992 023e CE01      		movw r24,r28
 4993 0240 0E94 0000 		call SoftwareAckLayerC__0__Config__isAckPacket
 4994 0244 8823      		tst r24
 4995 0246 01F0      		breq .L367
 4996               	.LBB4572:
 4997               	.LSM566:
 4998 0248 8091 0000 		lds r24,SoftwareAckLayerC__0__state
 4999 024c 8230      		cpi r24,lo8(2)
 5000 024e 01F4      		brne .L369
 5001               	.LBB4573:
 5002               	.LBB4574:
 5003               	.LBB4575:
 5004               	.LBB4576:
 5005               	.LBB4577:
 5006               	.LBB4578:
 5007               	.LBB4579:
 5008               	.LBB4580:
 5009               	.LBB4581:
 5010               	.LBB4582:
 5011               	.LSM567:
 5012 0250 8B81      		ldd r24,Y+3
 5013               	.LBE4582:
 5014               	.LBE4581:
 5015               	.LBB4583:
 5016               	.LBB4584:
 5017               	.LSM568:
 5018 0252 E091 0000 		lds r30,SoftwareAckLayerC__0__txMsg
 5019 0256 F091 0000 		lds r31,(SoftwareAckLayerC__0__txMsg)+1
 5020               	.LSM569:
 5021 025a 9381      		ldd r25,Z+3
 5022               	.LBE4584:
 5023               	.LBE4583:
 5024               	.LSM570:
 5025 025c 8917      		cp r24,r25
 5026 025e 01F4      		brne .L369
 5027               	.LBB4585:
 5028               	.LBB4586:
 5029               	.LSM571:
 5030 0260 8981      		ldd r24,Y+1
 5031 0262 90E0      		ldi r25,lo8(0)
 5032 0264 8770      		andi r24,lo8(7)
 5033 0266 8230      		cpi r24,lo8(2)
 5034 0268 01F0      		breq .L372
 5035 026a 91E0      		ldi r25,lo8(1)
 5036               	.L372:
 5037 026c 81E0      		ldi r24,lo8(1)
 5038 026e 9827      		eor r25,r24
 5039 0270 00C0      		rjmp .L484
 5040               	.L369:
 5041 0272 80E0      		ldi r24,lo8(0)
 5042 0274 90E0      		ldi r25,hi8(0)
 5043 0276 00C0      		rjmp .L374
 5044               	.L367:
 5045               	.LBE4586:
 5046               	.LBE4585:
 5047               	.LBE4580:
 5048               	.LBE4579:
 5049               	.LBE4578:
 5050               	.LBE4577:
 5051               	.LBE4576:
 5052               	.LBE4575:
 5053               	.LBE4574:
 5054               	.LBE4573:
 5055               	.LBB4587:
 5056               	.LBB4588:
 5057               	.LBB4589:
 5058               	.LBB4590:
 5059               	.LBB4591:
 5060               	.LBB4592:
 5061               	.LBB4593:
 5062               	.LBB4594:
 5063               	.LBB4595:
 5064               	.LBB4596:
 5065               	.LBB4597:
 5066               	.LBB4598:
 5067               	.LBB4599:
 5068               	.LBB4600:
 5069               	.LBB4601:
 5070               	.LSM572:
 5071 0278 8FB7      		in r24,95-0x20
 5072               	.LVL264:
 5073               	.LBB4602:
 5074               	.LBB4603:
 5075               	.LSM573:
 5076               	/* #APP */
 5077 027a F894      		cli
 5078               	/* #NOAPP */
 5079               	.LBE4603:
 5080               	.LBE4602:
 5081               	.LSM574:
 5082               	.LBE4601:
 5083               	.LBE4600:
 5084               	.LSM575:
 5085 027c 282F      		mov r18,r24
 5086 027e 3327      		clr r19
 5087 0280 90E0      		ldi r25,lo8(0)
 5088               	.LVL265:
 5089 0282 8091 0000 		lds r24,MessageBufferLayerP__0__receiveQueueSize
 5090               	.LVL266:
 5091 0286 8330      		cpi r24,lo8(3)
 5092 0288 00F4      		brsh .L375
 5093 028a 91E0      		ldi r25,lo8(1)
 5094               	.L375:
 5095               	.LBB4604:
 5096               	.LBB4605:
 5097               	.LSM576:
 5098               	.LSM577:
 5099 028c 2FBF      		out 95-0x20,r18
 5100               	.L484:
 5101               	.LBE4605:
 5102               	.LBE4604:
 5103               	.LBE4599:
 5104               	.LBE4598:
 5105               	.LBE4597:
 5106               	.LBE4596:
 5107               	.LBE4595:
 5108               	.LBE4594:
 5109               	.LBE4593:
 5110               	.LBE4592:
 5111               	.LBE4591:
 5112               	.LBE4590:
 5113               	.LBE4589:
 5114               	.LBE4588:
 5115               	.LBE4587:
 5116               	.LSM578:
 5117 028e 892F      		mov r24,r25
 5118 0290 9927      		clr r25
 5119               	.L374:
 5120               	.LBE4572:
 5121               	.LBE4571:
 5122               	.LBE4570:
 5123               	.LBE4569:
 5124               	.LSM579:
 5125 0292 892B      		or r24,r25
 5126 0294 01F0      		breq .L360
 5127               	.LSM580:
 5128 0296 FE18      		sub r15,r14
 5129 0298 4F2D      		mov r20,r15
 5130 029a 5527      		clr r21
 5131 029c B801      		movw r22,r16
 5132 029e 6058      		subi r22,lo8(-(384))
 5133 02a0 7E4F      		sbci r23,hi8(-(384))
 5134 02a2 C601      		movw r24,r12
 5135 02a4 800F      		add r24,r16
 5136 02a6 911F      		adc r25,r17
 5137 02a8 0E94 0000 		call memcpy
 5138               	.LVL267:
 5139               	.LSM581:
 5140 02ac E091 7B01 		lds r30,379
 5141 02b0 FF27      		clr r31
 5142 02b2 E058      		subi r30,lo8(-(384))
 5143 02b4 FE4F      		sbci r31,hi8(-(384))
 5144 02b6 8081      		ld r24,Z
 5145               	.LVL268:
 5146               	.LBB4606:
 5147               	.LBB4607:
 5148               	.LSM582:
 5149 02b8 E091 0000 		lds r30,RFA1DriverLayerP__rxMsg
 5150 02bc F091 0000 		lds r31,(RFA1DriverLayerP__rxMsg)+1
 5151 02c0 80AB      		std Z+48,r24
 5152 02c2 21E0      		ldi r18,lo8(1)
 5153               	.LVL269:
 5154 02c4 00C0      		rjmp .L378
 5155               	.LVL270:
 5156               	.L360:
 5157 02c6 20E0      		ldi r18,lo8(0)
 5158               	.LVL271:
 5159               	.L378:
 5160               	.LBE4607:
 5161               	.LBE4606:
 5162               	.LBE4566:
 5163               	.LSM583:
 5164 02c8 8091 4601 		lds r24,326
 5165               	.LVL272:
 5166 02cc 9927      		clr r25
 5167 02ce 8770      		andi r24,lo8(7)
 5168 02d0 9070      		andi r25,hi8(7)
 5169 02d2 892B      		or r24,r25
 5170 02d4 01F0      		breq .+2
 5171 02d6 00C0      		rjmp .L379
 5172               	.LSM584:
 5173 02d8 8091 4C01 		lds r24,332
 5174 02dc 8F77      		andi r24,lo8(127)
 5175 02de 8093 4C01 		sts 332,r24
 5176               	.LSM585:
 5177 02e2 8091 4C01 		lds r24,332
 5178 02e6 8068      		ori r24,lo8(-128)
 5179 02e8 8093 4C01 		sts 332,r24
 5180               	.LSM586:
 5181 02ec 85E0      		ldi r24,lo8(5)
 5182 02ee 8093 0000 		sts RFA1DriverLayerP__state,r24
 5183               	.LSM587:
 5184 02f2 1092 0000 		sts RFA1DriverLayerP__cmd,__zero_reg__
 5185               	.LSM588:
 5186 02f6 2223      		tst r18
 5187 02f8 01F4      		brne .+2
 5188 02fa 00C0      		rjmp .L381
 5189               	.LSM589:
 5190 02fc A090 0000 		lds r10,RFA1DriverLayerP__rxMsg
 5191 0300 B090 0000 		lds r11,(RFA1DriverLayerP__rxMsg)+1
 5192               	.LBB4608:
 5193               	.LBB4609:
 5194               	.LBB4610:
 5195               	.LSM590:
 5196 0304 C501      		movw r24,r10
 5197 0306 0E94 0000 		call SoftwareAckLayerC__0__Config__isAckPacket
 5198               	.LVL273:
 5199 030a 182F      		mov r17,r24
 5200               	.LVL274:
 5201               	.LBB4611:
 5202               	.LSM591:
 5203 030c 8091 0000 		lds r24,SoftwareAckLayerC__0__state
 5204 0310 8230      		cpi r24,lo8(2)
 5205 0312 01F4      		brne .L383
 5206               	.LBB4612:
 5207               	.LBB4613:
 5208               	.LBB4614:
 5209               	.LBB4615:
 5210               	.LBB4616:
 5211               	.LBB4617:
 5212               	.LBB4618:
 5213               	.LBB4619:
 5214               	.LBB4620:
 5215               	.LBB4621:
 5216               	.LBB4622:
 5217               	.LBB4623:
 5218               	.LSM592:
 5219 0314 8091 DF00 		lds r24,223
 5220 0318 8D7F      		andi r24,lo8(-3)
 5221 031a 8093 DF00 		sts 223,r24
 5222               	.LBB4624:
 5223               	.LBB4625:
 5224               	.LBB4626:
 5225               	.LBB4627:
 5226               	.LSM593:
 5227 031e 8FEF      		ldi r24,lo8(-1)
 5228 0320 8093 0000 		sts McuSleepC__powerState,r24
 5229               	.LBE4627:
 5230               	.LBE4626:
 5231               	.LBE4625:
 5232               	.LBE4624:
 5233               	.LBE4623:
 5234               	.LBE4622:
 5235               	.LBE4621:
 5236               	.LBE4620:
 5237               	.LBE4619:
 5238               	.LBE4618:
 5239               	.LBE4617:
 5240               	.LBE4616:
 5241               	.LSM594:
 5242 0324 1092 0000 		sts RadioAlarmP__0__state,__zero_reg__
 5243               	.LBE4615:
 5244               	.LBE4614:
 5245               	.LBE4613:
 5246               	.LBE4612:
 5247               	.LSM595:
 5248 0328 6091 0000 		lds r22,SoftwareAckLayerC__0__txMsg
 5249 032c 7091 0000 		lds r23,(SoftwareAckLayerC__0__txMsg)+1
 5250               	.LVL275:
 5251               	.LBB4628:
 5252               	.LBB4629:
 5253               	.LBB4630:
 5254               	.LBB4631:
 5255               	.LSM596:
 5256 0330 1123      		tst r17
 5257 0332 01F0      		breq .L385
 5258               	.LSM597:
 5259 0334 80E0      		ldi r24,lo8(0)
 5260 0336 0E94 0000 		call MetadataFlagsLayerC__0__PacketFlag__set
 5261               	.LVL276:
 5262 033a 00C0      		rjmp .L387
 5263               	.LVL277:
 5264               	.L385:
 5265               	.LSM598:
 5266 033c 80E0      		ldi r24,lo8(0)
 5267 033e 0E94 0000 		call MetadataFlagsLayerC__0__PacketFlag__clear
 5268               	.LVL278:
 5269               	.L387:
 5270               	.LBE4631:
 5271               	.LBE4630:
 5272               	.LBE4629:
 5273               	.LBE4628:
 5274               	.LSM599:
 5275 0342 1092 0000 		sts SoftwareAckLayerC__0__state,__zero_reg__
 5276               	.LSM600:
 5277 0346 80E0      		ldi r24,lo8(0)
 5278 0348 0E94 0000 		call SoftwareAckLayerC__0__RadioSend__sendDone
 5279               	.L383:
 5280               	.LSM601:
 5281 034c 1123      		tst r17
 5282 034e 01F0      		breq .+2
 5283 0350 00C0      		rjmp .L388
 5284               	.LBB4632:
 5285               	.LBB4633:
 5286               	.LBB4634:
 5287               	.LSM602:
 5288 0352 C501      		movw r24,r10
 5289 0354 0E94 0000 		call RFA1RadioP__Ieee154PacketLayer__requiresAckReply
 5290               	.LBE4634:
 5291               	.LBE4633:
 5292               	.LBE4632:
 5293               	.LSM603:
 5294 0358 8823      		tst r24
 5295 035a 01F0      		breq .L390
 5296               	.LBB4635:
 5297               	.LBB4636:
 5298               	.LBB4637:
 5299               	.LBB4638:
 5300               	.LBB4639:
 5301               	.LBB4640:
 5302               	.LBB4641:
 5303               	.LBB4642:
 5304               	.LBB4643:
 5305               	.LBB4644:
 5306               	.LBB4645:
 5307               	.LBB4646:
 5308               	.LBB4647:
 5309               	.LBB4648:
 5310               	.LBB4649:
 5311               	.LBB4650:
 5312               	.LBB4651:
 5313               	.LBB4652:
 5314               	.LBB4653:
 5315               	.LBB4654:
 5316               	.LBB4655:
 5317               	.LBB4656:
 5318               	.LBB4657:
 5319               	.LBB4658:
 5320               	.LBB4659:
 5321               	.LBB4660:
 5322               	.LSM604:
 5323 035c 85E0      		ldi r24,lo8(5)
 5324 035e 8093 0000 		sts SoftwareAckLayerC__0__ackMsg,r24
 5325               	.LBE4660:
 5326               	.LBE4659:
 5327               	.LBE4658:
 5328               	.LBE4657:
 5329               	.LBE4656:
 5330               	.LBE4655:
 5331               	.LBE4654:
 5332               	.LBE4653:
 5333               	.LBE4652:
 5334               	.LBE4651:
 5335               	.LBE4650:
 5336               	.LBE4649:
 5337               	.LBE4648:
 5338               	.LBE4647:
 5339               	.LBE4646:
 5340               	.LBE4645:
 5341               	.LBE4644:
 5342               	.LBE4643:
 5343               	.LBB4661:
 5344               	.LBB4662:
 5345               	.LSM605:
 5346 0362 82E0      		ldi r24,lo8(2)
 5347 0364 8093 0000 		sts SoftwareAckLayerC__0__ackMsg+1,r24
 5348               	.LSM606:
 5349 0368 1092 0000 		sts SoftwareAckLayerC__0__ackMsg+2,__zero_reg__
 5350               	.LBE4662:
 5351               	.LBE4661:
 5352               	.LBB4663:
 5353               	.LBB4664:
 5354               	.LSM607:
 5355 036c F501      		movw r30,r10
 5356 036e 8381      		ldd r24,Z+3
 5357               	.LBE4664:
 5358               	.LBE4663:
 5359               	.LBB4665:
 5360               	.LBB4666:
 5361               	.LSM608:
 5362 0370 8093 0000 		sts SoftwareAckLayerC__0__ackMsg+3,r24
 5363               	.LBE4666:
 5364               	.LBE4665:
 5365               	.LBE4642:
 5366               	.LBE4641:
 5367               	.LBE4640:
 5368               	.LBE4639:
 5369               	.LBE4638:
 5370               	.LBE4637:
 5371               	.LBE4636:
 5372               	.LBE4635:
 5373               	.LBE4611:
 5374               	.LSM609:
 5375 0374 80E0      		ldi r24,lo8(SoftwareAckLayerC__0__ackMsg)
 5376 0376 90E0      		ldi r25,hi8(SoftwareAckLayerC__0__ackMsg)
 5377 0378 0E94 0000 		call SoftwareAckLayerC__0__SubSend__send
 5378               	.LBB4667:
 5379 037c 8823      		tst r24
 5380 037e 01F4      		brne .L390
 5381               	.LSM610:
 5382 0380 83E0      		ldi r24,lo8(3)
 5383 0382 8093 0000 		sts SoftwareAckLayerC__0__state,r24
 5384               	.L390:
 5385               	.LBB4668:
 5386               	.LBB4669:
 5387               	.LBB4670:
 5388               	.LBB4671:
 5389               	.LBB4672:
 5390               	.LBB4673:
 5391               	.LBB4674:
 5392               	.LBB4675:
 5393               	.LBB4676:
 5394               	.LSM611:
 5395 0386 0E94 0000 		call CounterToLocalTimeC__1__LocalTime__get
 5396 038a 6B01      		movw r12,r22
 5397 038c 7C01      		movw r14,r24
 5398               	.LVL279:
 5399               	.LBE4676:
 5400               	.LBE4675:
 5401               	.LSM612:
 5402 038e C501      		movw r24,r10
 5403 0390 0E94 0000 		call RFA1RadioP__Ieee154PacketLayer__requiresAckReply
 5404               	.LBB4677:
 5405 0394 8823      		tst r24
 5406 0396 01F0      		breq .L393
 5407               	.LSM613:
 5408 0398 86E3      		ldi r24,lo8(54)
 5409 039a 90E0      		ldi r25,hi8(54)
 5410 039c A0E0      		ldi r26,hlo8(54)
 5411 039e B0E0      		ldi r27,hhi8(54)
 5412 03a0 C80E      		add r12,r24
 5413 03a2 D91E      		adc r13,r25
 5414 03a4 EA1E      		adc r14,r26
 5415 03a6 FB1E      		adc r15,r27
 5416               	.L393:
 5417               	.LSM614:
 5418 03a8 8601      		movw r16,r12
 5419               	.LVL280:
 5420               	.LBE4677:
 5421               	.LBE4674:
 5422               	.LBE4673:
 5423               	.LBE4672:
 5424               	.LSM615:
 5425 03aa D092 0000 		sts (RandomCollisionLayerP__0__txBarrier)+1,r13
 5426 03ae C092 0000 		sts RandomCollisionLayerP__0__txBarrier,r12
 5427               	.LBE4671:
 5428               	.LSM616:
 5429 03b2 0E94 0000 		call RandomCollisionLayerP__0__RadioAlarm__getNow
 5430               	.LBB4678:
 5431 03b6 061B      		sub r16,r22
 5432 03b8 170B      		sbc r17,r23
 5433               	.LVL281:
 5434               	.LSM617:
 5435 03ba 1016      		cp __zero_reg__,r16
 5436 03bc 1106      		cpc __zero_reg__,r17
 5437 03be 04F4      		brge .L395
 5438               	.LSM618:
 5439 03c0 8091 0000 		lds r24,RandomCollisionLayerP__0__state
 5440 03c4 8823      		tst r24
 5441 03c6 01F4      		brne .L397
 5442               	.LSM619:
 5443 03c8 90E0      		ldi r25,lo8(0)
 5444 03ca 8091 0000 		lds r24,RadioAlarmP__0__state
 5445 03ce 8823      		tst r24
 5446 03d0 01F4      		brne .L399
 5447 03d2 91E0      		ldi r25,lo8(1)
 5448               	.L399:
 5449 03d4 9923      		tst r25
 5450 03d6 01F0      		breq .L395
 5451               	.LSM620:
 5452 03d8 B801      		movw r22,r16
 5453 03da 8827      		clr r24
 5454 03dc 77FD      		sbrc r23,7
 5455 03de 8095      		com r24
 5456 03e0 982F      		mov r25,r24
 5457 03e2 0E94 0000 		call RandomCollisionLayerP__0__RadioAlarm__wait
 5458               	.LSM621:
 5459 03e6 80E8      		ldi r24,lo8(-128)
 5460 03e8 00C0      		rjmp .L485
 5461               	.L397:
 5462               	.LSM622:
 5463 03ea 8068      		ori r24,lo8(-128)
 5464               	.L485:
 5465 03ec 8093 0000 		sts RandomCollisionLayerP__0__state,r24
 5466               	.L395:
 5467               	.LBB4679:
 5468               	.LBB4680:
 5469               	.LBB4681:
 5470               	.LBB4682:
 5471               	.LBB4683:
 5472               	.LBB4684:
 5473               	.LBB4685:
 5474               	.LBB4686:
 5475               	.LBB4687:
 5476               	.LBB4688:
 5477               	.LBB4689:
 5478               	.LBB4690:
 5479               	.LBB4691:
 5480               	.LBB4692:
 5481               	.LSM623:
 5482 03f0 7501      		movw r14,r10
 5483               	.LVL282:
 5484 03f2 0894      		sec
 5485 03f4 E11C      		adc r14,__zero_reg__
 5486 03f6 F11C      		adc r15,__zero_reg__
 5487               	.LBE4692:
 5488               	.LBE4691:
 5489               	.LBB4693:
 5490               	.LBB4694:
 5491               	.LSM624:
 5492 03f8 F501      		movw r30,r10
 5493 03fa 8185      		ldd r24,Z+9
 5494 03fc 2085      		ldd r18,Z+8
 5495 03fe 9927      		clr r25
 5496 0400 582F      		mov r21,r24
 5497 0402 4427      		clr r20
 5498 0404 3327      		clr r19
 5499 0406 422B      		or r20,r18
 5500 0408 532B      		or r21,r19
 5501               	.LBE4694:
 5502               	.LBE4693:
 5503               	.LBE4690:
 5504               	.LBE4689:
 5505               	.LBE4688:
 5506               	.LBE4687:
 5507               	.LBE4686:
 5508               	.LBE4685:
 5509               	.LBE4684:
 5510               	.LBE4683:
 5511               	.LBB4695:
 5512               	.LBB4696:
 5513               	.LBB4697:
 5514               	.LBB4698:
 5515               	.LSM625:
 5516 040a 8091 0000 		lds r24,NeighborhoodP__last
 5517 040e 282F      		mov r18,r24
 5518 0410 3327      		clr r19
 5519 0412 F901      		movw r30,r18
 5520 0414 EE0F      		lsl r30
 5521 0416 FF1F      		rol r31
 5522 0418 E050      		subi r30,lo8(-(NeighborhoodP__nodes))
 5523 041a F040      		sbci r31,hi8(-(NeighborhoodP__nodes))
 5524 041c 8081      		ld r24,Z
 5525 041e 9181      		ldd r25,Z+1
 5526 0420 7091 0000 		lds r23,NeighborhoodP__time
 5527 0424 8417      		cp r24,r20
 5528 0426 9507      		cpc r25,r21
 5529 0428 01F4      		brne .L401
 5530               	.LSM626:
 5531 042a F901      		movw r30,r18
 5532 042c E050      		subi r30,lo8(-(NeighborhoodP__ages))
 5533 042e F040      		sbci r31,hi8(-(NeighborhoodP__ages))
 5534 0430 8081      		ld r24,Z
 5535 0432 8717      		cp r24,r23
 5536 0434 01F4      		brne .+2
 5537 0436 00C0      		rjmp .L403
 5538               	.LSM627:
 5539 0438 872F      		mov r24,r23
 5540 043a 8F5F      		subi r24,lo8(-(1))
 5541 043c 8093 0000 		sts NeighborhoodP__time,r24
 5542 0440 8083      		st Z,r24
 5543 0442 00C0      		rjmp .L486
 5544               	.L401:
 5545               	.LBB4699:
 5546               	.LBB4700:
 5547               	.LSM628:
 5548 0444 00E0      		ldi r16,lo8(0)
 5549               	.LVL283:
 5550 0446 10E0      		ldi r17,lo8(0)
 5551               	.LVL284:
 5552 0448 80E0      		ldi r24,lo8(0)
 5553 044a 90E0      		ldi r25,hi8(0)
 5554 044c C0E0      		ldi r28,lo8(NeighborhoodP__nodes)
 5555 044e D0E0      		ldi r29,hi8(NeighborhoodP__nodes)
 5556               	.LVL285:
 5557 0450 E0E0      		ldi r30,lo8(NeighborhoodP__ages)
 5558 0452 F0E0      		ldi r31,hi8(NeighborhoodP__ages)
 5559 0454 DF01      		movw r26,r30
 5560               	.LVL286:
 5561               	.L406:
 5562 0456 682F      		mov r22,r24
 5563               	.LVL287:
 5564 0458 9C01      		movw r18,r24
 5565               	.LSM629:
 5566 045a 8881      		ld r24,Y
 5567 045c 9981      		ldd r25,Y+1
 5568 045e 8417      		cp r24,r20
 5569 0460 9507      		cpc r25,r21
 5570 0462 01F4      		brne .L407
 5571               	.LSM630:
 5572 0464 2093 0000 		sts NeighborhoodP__last,r18
 5573               	.LSM631:
 5574 0468 9091 0000 		lds r25,NeighborhoodP__time
 5575               	.LVL288:
 5576 046c 8C91      		ld r24,X
 5577 046e 8917      		cp r24,r25
 5578 0470 01F4      		brne .+2
 5579 0472 00C0      		rjmp .L403
 5580               	.LSM632:
 5581 0474 892F      		mov r24,r25
 5582 0476 8F5F      		subi r24,lo8(-(1))
 5583 0478 8093 0000 		sts NeighborhoodP__time,r24
 5584 047c 8C93      		st X,r24
 5585               	.LVL289:
 5586               	.L486:
 5587 047e 00E8      		ldi r16,lo8(-128)
 5588               	.LVL290:
 5589 0480 00C0      		rjmp .L405
 5590               	.LVL291:
 5591               	.L407:
 5592               	.LSM633:
 5593 0482 8081      		ld r24,Z
 5594 0484 972F      		mov r25,r23
 5595               	.LVL292:
 5596 0486 981B      		sub r25,r24
 5597               	.LVL293:
 5598               	.LSM634:
 5599 0488 0917      		cp r16,r25
 5600 048a 00F4      		brsh .L410
 5601 048c 092F      		mov r16,r25
 5602 048e 122F      		mov r17,r18
 5603               	.L410:
 5604 0490 6F5F      		subi r22,lo8(-(1))
 5605               	.LVL294:
 5606 0492 C901      		movw r24,r18
 5607 0494 0196      		adiw r24,1
 5608 0496 1196      		adiw r26,1
 5609 0498 2296      		adiw r28,2
 5610 049a 3196      		adiw r30,1
 5611               	.LBE4700:
 5612               	.LSM635:
 5613 049c 8530      		cpi r24,5
 5614 049e 9105      		cpc r25,__zero_reg__
 5615 04a0 01F4      		brne .L406
 5616               	.LSM636:
 5617 04a2 6530      		cpi r22,lo8(5)
 5618 04a4 01F4      		brne .L405
 5619               	.LSM637:
 5620 04a6 1093 0000 		sts NeighborhoodP__last,r17
 5621               	.LSM638:
 5622 04aa A12F      		mov r26,r17
 5623 04ac BB27      		clr r27
 5624 04ae FD01      		movw r30,r26
 5625 04b0 EE0F      		lsl r30
 5626 04b2 FF1F      		rol r31
 5627 04b4 E050      		subi r30,lo8(-(NeighborhoodP__nodes))
 5628 04b6 F040      		sbci r31,hi8(-(NeighborhoodP__nodes))
 5629 04b8 5183      		std Z+1,r21
 5630 04ba 4083      		st Z,r20
 5631               	.LSM639:
 5632 04bc 8091 0000 		lds r24,NeighborhoodP__time
 5633 04c0 8F5F      		subi r24,lo8(-(1))
 5634 04c2 8093 0000 		sts NeighborhoodP__time,r24
 5635 04c6 FD01      		movw r30,r26
 5636 04c8 E050      		subi r30,lo8(-(NeighborhoodP__ages))
 5637 04ca F040      		sbci r31,hi8(-(NeighborhoodP__ages))
 5638 04cc 8083      		st Z,r24
 5639               	.LSM640:
 5640 04ce A050      		subi r26,lo8(-(NeighborhoodP__flags))
 5641 04d0 B040      		sbci r27,hi8(-(NeighborhoodP__flags))
 5642 04d2 1C92      		st X,__zero_reg__
 5643               	.LVL295:
 5644               	.L405:
 5645               	.LBE4699:
 5646               	.LSM641:
 5647 04d4 9091 0000 		lds r25,NeighborhoodP__time
 5648               	.LVL296:
 5649 04d8 892F      		mov r24,r25
 5650 04da 8F77      		andi r24,lo8(127)
 5651 04dc 8F37      		cpi r24,lo8(127)
 5652 04de 01F4      		brne .L414
 5653 04e0 0F37      		cpi r16,lo8(127)
 5654 04e2 00F0      		brlo .L414
 5655 04e4 E0E0      		ldi r30,lo8(NeighborhoodP__ages)
 5656 04e6 F0E0      		ldi r31,hi8(NeighborhoodP__ages)
 5657 04e8 292F      		mov r18,r25
 5658 04ea 2078      		andi r18,lo8(-128)
 5659               	.L417:
 5660               	.LSM642:
 5661 04ec 8081      		ld r24,Z
 5662 04ee 8F67      		ori r24,lo8(127)
 5663 04f0 8913      		cpse r24,r25
 5664               	.LSM643:
 5665 04f2 2083      		st Z,r18
 5666               	.L418:
 5667 04f4 3196      		adiw r30,1
 5668               	.LSM644:
 5669 04f6 A0E0      		ldi r26,hi8(NeighborhoodP__ages+5)
 5670 04f8 E030      		cpi r30,lo8(NeighborhoodP__ages+5)
 5671 04fa FA07      		cpc r31,r26
 5672 04fc 01F4      		brne .L417
 5673               	.L414:
 5674               	.LSM645:
 5675 04fe 8091 0000 		lds r24,NeighborhoodP__last
 5676 0502 282F      		mov r18,r24
 5677 0504 3327      		clr r19
 5678               	.LVL297:
 5679               	.L403:
 5680               	.LBE4698:
 5681               	.LBE4697:
 5682               	.LBE4696:
 5683               	.LBE4695:
 5684               	.LSM646:
 5685 0506 F701      		movw r30,r14
 5686 0508 9281      		ldd r25,Z+2
 5687               	.LVL298:
 5688               	.LBB4701:
 5689               	.LBB4702:
 5690               	.LBB4703:
 5691               	.LBB4704:
 5692               	.LSM647:
 5693 050a A22F      		mov r26,r18
 5694 050c BB27      		clr r27
 5695 050e FD01      		movw r30,r26
 5696 0510 E050      		subi r30,lo8(-(NeighborhoodP__flags))
 5697 0512 F040      		sbci r31,hi8(-(NeighborhoodP__flags))
 5698 0514 8081      		ld r24,Z
 5699               	.LBE4704:
 5700               	.LBE4703:
 5701               	.LBE4702:
 5702               	.LBE4701:
 5703               	.LSM648:
 5704 0516 80FF      		sbrs r24,0
 5705 0518 00C0      		rjmp .L420
 5706               	.LBB4705:
 5707               	.LSM649:
 5708 051a FD01      		movw r30,r26
 5709 051c E050      		subi r30,lo8(-(UniqueLayerP__0__receivedNumbers))
 5710 051e F040      		sbci r31,hi8(-(UniqueLayerP__0__receivedNumbers))
 5711 0520 8081      		ld r24,Z
 5712 0522 9817      		cp r25,r24
 5713 0524 01F0      		breq .L388
 5714 0526 00C0      		rjmp .L422
 5715               	.L420:
 5716               	.LBE4705:
 5717               	.LBB4706:
 5718               	.LBB4707:
 5719               	.LBB4708:
 5720               	.LBB4709:
 5721               	.LSM650:
 5722 0528 8160      		ori r24,lo8(1)
 5723 052a 8083      		st Z,r24
 5724               	.L422:
 5725               	.LBE4709:
 5726               	.LBE4708:
 5727               	.LBE4707:
 5728               	.LBE4706:
 5729               	.LSM651:
 5730 052c A050      		subi r26,lo8(-(UniqueLayerP__0__receivedNumbers))
 5731 052e B040      		sbci r27,hi8(-(UniqueLayerP__0__receivedNumbers))
 5732 0530 9C93      		st X,r25
 5733               	.LBB4710:
 5734               	.LBB4711:
 5735               	.LBB4712:
 5736               	.LBB4713:
 5737               	.LBB4714:
 5738               	.LBB4715:
 5739               	.LBB4716:
 5740               	.LSM652:
 5741 0532 FFB6      		in r15,95-0x20
 5742               	.LVL299:
 5743               	.LBB4717:
 5744               	.LBB4718:
 5745               	.LSM653:
 5746               	/* #APP */
 5747 0534 F894      		cli
 5748               	/* #NOAPP */
 5749               	.LBE4718:
 5750               	.LBE4717:
 5751               	.LSM654:
 5752               	.LBE4716:
 5753               	.LBE4715:
 5754               	.LSM655:
 5755 0536 8091 0000 		lds r24,MessageBufferLayerP__0__receiveQueueSize
 5756 053a 8330      		cpi r24,lo8(3)
 5757 053c 00F4      		brsh .L423
 5758               	.LBB4719:
 5759               	.LSM656:
 5760 053e E091 0000 		lds r30,MessageBufferLayerP__0__receiveQueueHead
 5761               	.LVL300:
 5762 0542 E80F      		add r30,r24
 5763               	.LSM657:
 5764 0544 E330      		cpi r30,lo8(3)
 5765 0546 00F0      		brlo .L425
 5766               	.LSM658:
 5767 0548 E350      		subi r30,lo8(-(-3))
 5768               	.L425:
 5769               	.LSM659:
 5770 054a FF27      		clr r31
 5771               	.LVL301:
 5772 054c EE0F      		lsl r30
 5773 054e FF1F      		rol r31
 5774               	.LVL302:
 5775 0550 E050      		subi r30,lo8(-(MessageBufferLayerP__0__receiveQueue))
 5776 0552 F040      		sbci r31,hi8(-(MessageBufferLayerP__0__receiveQueue))
 5777 0554 0081      		ld r16,Z
 5778 0556 1181      		ldd r17,Z+1
 5779               	.LVL303:
 5780               	.LSM660:
 5781 0558 B182      		std Z+1,r11
 5782 055a A082      		st Z,r10
 5783               	.LSM661:
 5784 055c 8F5F      		subi r24,lo8(-(1))
 5785 055e 8093 0000 		sts MessageBufferLayerP__0__receiveQueueSize,r24
 5786               	.LBB4720:
 5787               	.LSM662:
 5788 0562 81E1      		ldi r24,lo8(17)
 5789 0564 0E94 0000 		call SchedulerBasicP__TaskBasic__postTask
 5790               	.LVL304:
 5791 0568 5801      		movw r10,r16
 5792               	.LVL305:
 5793               	.L423:
 5794               	.LBE4720:
 5795               	.LBE4719:
 5796               	.LBB4721:
 5797               	.LBB4722:
 5798               	.LSM663:
 5799               	.LBE4722:
 5800               	.LBE4721:
 5801               	.LSM664:
 5802 056a 8F2D      		mov r24,r15
 5803 056c 9927      		clr r25
 5804               	.LBB4723:
 5805               	.LBB4724:
 5806               	.LSM665:
 5807 056e 8FBF      		out 95-0x20,r24
 5808               	.LVL306:
 5809               	.L388:
 5810               	.LBE4724:
 5811               	.LBE4723:
 5812               	.LBE4714:
 5813               	.LBE4713:
 5814               	.LBE4712:
 5815               	.LBE4711:
 5816               	.LBE4710:
 5817               	.LBE4682:
 5818               	.LBE4681:
 5819               	.LBE4680:
 5820               	.LBE4679:
 5821               	.LBE4678:
 5822               	.LBE4670:
 5823               	.LBE4669:
 5824               	.LBE4668:
 5825               	.LBE4667:
 5826               	.LBE4610:
 5827               	.LBE4609:
 5828               	.LBE4608:
 5829               	.LSM666:
 5830 0570 B092 0000 		sts (RFA1DriverLayerP__rxMsg)+1,r11
 5831 0574 A092 0000 		sts RFA1DriverLayerP__rxMsg,r10
 5832 0578 00C0      		rjmp .L427
 5833               	.LVL307:
 5834               	.L359:
 5835               	.LBE4565:
 5836               	.LBE4564:
 5837               	.LSM667:
 5838 057a 292F      		mov r18,r25
 5839               	.LVL308:
 5840 057c 2150      		subi r18,lo8(-(-1))
 5841 057e 2330      		cpi r18,lo8(3)
 5842 0580 00F0      		brlo .+2
 5843 0582 00C0      		rjmp .L428
 5844               	.LBB4725:
 5845               	.LBB4726:
 5846               	.LSM668:
 5847 0584 892F      		mov r24,r25
 5848 0586 8250      		subi r24,lo8(-(-2))
 5849 0588 8230      		cpi r24,lo8(2)
 5850 058a 00F4      		brsh .L430
 5851 058c 8091 0000 		lds r24,RFA1DriverLayerP__state
 5852 0590 8130      		cpi r24,lo8(1)
 5853 0592 01F4      		brne .L430
 5854               	.LSM669:
 5855 0594 8DEC      		ldi r24,lo8(-51)
 5856 0596 8093 4E01 		sts 334,r24
 5857               	.LSM670:
 5858 059a 8091 3901 		lds r24,313
 5859 059e 8D7F      		andi r24,lo8(-3)
 5860 05a0 8093 3901 		sts 313,r24
 5861               	.LSM671:
 5862 05a4 82E0      		ldi r24,lo8(2)
 5863 05a6 00C0      		rjmp .L487
 5864               	.L430:
 5865               	.LSM672:
 5866 05a8 9330      		cpi r25,lo8(3)
 5867 05aa 01F4      		brne .L434
 5868 05ac 8091 0000 		lds r24,RFA1DriverLayerP__state
 5869 05b0 8330      		cpi r24,lo8(3)
 5870 05b2 01F4      		brne .L434
 5871               	.LSM673:
 5872 05b4 8091 0000 		lds r24,RFA1DriverLayerP__channel
 5873 05b8 8066      		ori r24,lo8(96)
 5874 05ba 8093 4801 		sts 328,r24
 5875               	.LSM674:
 5876 05be 86E0      		ldi r24,lo8(6)
 5877 05c0 8093 4201 		sts 322,r24
 5878               	.LSM675:
 5879 05c4 84E0      		ldi r24,lo8(4)
 5880 05c6 00C0      		rjmp .L487
 5881               	.L434:
 5882               	.LSM676:
 5883 05c8 2230      		cpi r18,lo8(2)
 5884 05ca 00F4      		brsh .L433
 5885 05cc 8091 0000 		lds r24,RFA1DriverLayerP__state
 5886 05d0 8530      		cpi r24,lo8(5)
 5887 05d2 01F4      		brne .L433
 5888               	.LSM677:
 5889 05d4 88E0      		ldi r24,lo8(8)
 5890 05d6 8093 4201 		sts 322,r24
 5891               	.LSM678:
 5892 05da 1092 0000 		sts RFA1DriverLayerP__radioIrq,__zero_reg__
 5893               	.LSM679:
 5894 05de 83E0      		ldi r24,lo8(3)
 5895               	.L487:
 5896 05e0 8093 0000 		sts RFA1DriverLayerP__state,r24
 5897               	.L433:
 5898               	.LSM680:
 5899 05e4 9091 0000 		lds r25,RFA1DriverLayerP__cmd
 5900 05e8 9130      		cpi r25,lo8(1)
 5901 05ea 01F4      		brne .L439
 5902 05ec 8091 0000 		lds r24,RFA1DriverLayerP__state
 5903 05f0 8330      		cpi r24,lo8(3)
 5904 05f2 01F4      		brne .L381
 5905               	.LSM681:
 5906 05f4 1092 4E01 		sts 334,__zero_reg__
 5907               	.LSM682:
 5908 05f8 8091 3901 		lds r24,313
 5909 05fc 8260      		ori r24,lo8(2)
 5910 05fe 8093 3901 		sts 313,r24
 5911               	.LSM683:
 5912 0602 9093 0000 		sts RFA1DriverLayerP__state,r25
 5913 0606 00C0      		rjmp .L448
 5914               	.L439:
 5915               	.LSM684:
 5916 0608 9230      		cpi r25,lo8(2)
 5917 060a 01F4      		brne .L427
 5918 060c 8091 0000 		lds r24,RFA1DriverLayerP__state
 5919 0610 8330      		cpi r24,lo8(3)
 5920 0612 01F4      		brne .L381
 5921 0614 00C0      		rjmp .L448
 5922               	.L428:
 5923               	.LBE4726:
 5924               	.LBE4725:
 5925               	.LSM685:
 5926 0616 9730      		cpi r25,lo8(7)
 5927 0618 01F4      		brne .L427
 5928               	.LBB4727:
 5929               	.LBB4728:
 5930               	.LSM686:
 5931 061a 8091 0000 		lds r24,RFA1DriverLayerP__state
 5932 061e 8530      		cpi r24,lo8(5)
 5933 0620 01F0      		breq .L446
 5934 0622 8823      		tst r24
 5935 0624 01F4      		brne .L448
 5936               	.L446:
 5937               	.LSM687:
 5938 0626 8091 0000 		lds r24,RFA1DriverLayerP__channel
 5939 062a 8066      		ori r24,lo8(96)
 5940 062c 8093 4801 		sts 328,r24
 5941               	.LSM688:
 5942 0630 84E0      		ldi r24,lo8(4)
 5943 0632 8093 0000 		sts RFA1DriverLayerP__state,r24
 5944 0636 00C0      		rjmp .L427
 5945               	.L448:
 5946               	.LSM689:
 5947 0638 88E0      		ldi r24,lo8(8)
 5948 063a 8093 0000 		sts RFA1DriverLayerP__cmd,r24
 5949 063e 00C0      		rjmp .L442
 5950               	.LVL309:
 5951               	.L427:
 5952               	.LBE4728:
 5953               	.LBE4727:
 5954               	.LSM690:
 5955 0640 8091 0000 		lds r24,RFA1DriverLayerP__cmd
 5956 0644 8830      		cpi r24,lo8(8)
 5957 0646 01F4      		brne .L381
 5958               	.L442:
 5959               	.LSM691:
 5960 0648 1092 0000 		sts RFA1DriverLayerP__cmd,__zero_reg__
 5961               	.LBB4729:
 5962               	.LBB4730:
 5963               	.LBB4731:
 5964               	.LBB4732:
 5965               	.LBB4733:
 5966               	.LSM692:
 5967 064c 8FE0      		ldi r24,lo8(15)
 5968 064e 0E94 0000 		call SchedulerBasicP__TaskBasic__postTask
 5969               	.LVL310:
 5970               	.L381:
 5971               	.LBE4733:
 5972               	.LBE4732:
 5973               	.LBE4731:
 5974               	.LBE4730:
 5975               	.LBE4729:
 5976               	.LSM693:
 5977 0652 8091 0000 		lds r24,RFA1DriverLayerP__cmd
 5978 0656 8823      		tst r24
 5979 0658 01F4      		brne .L449
 5980               	.LVL311:
 5981               	.L357:
 5982 065a 8091 0000 		lds r24,RFA1DriverLayerP__state
 5983 065e 8530      		cpi r24,lo8(5)
 5984 0660 01F4      		brne .L449
 5985 0662 8091 0000 		lds r24,RFA1DriverLayerP__radioIrq
 5986 0666 8823      		tst r24
 5987 0668 01F4      		brne .L449
 5988               	.LBB4734:
 5989               	.LBB4735:
 5990               	.LBB4736:
 5991               	.LBB4737:
 5992               	.LSM694:
 5993 066a 8091 0000 		lds r24,SoftwareAckLayerC__0__state
 5994 066e 8823      		tst r24
 5995 0670 01F4      		brne .L449
 5996               	.LBB4738:
 5997               	.LBB4739:
 5998               	.LBB4740:
 5999               	.LBB4741:
 6000               	.LSM695:
 6001 0672 8091 0000 		lds r24,RandomCollisionLayerP__0__state
 6002 0676 8823      		tst r24
 6003 0678 01F4      		brne .L449
 6004 067a 90E0      		ldi r25,lo8(0)
 6005               	.LVL312:
 6006 067c 8091 0000 		lds r24,RadioAlarmP__0__state
 6007 0680 8823      		tst r24
 6008 0682 01F4      		brne .L454
 6009 0684 91E0      		ldi r25,lo8(1)
 6010               	.L454:
 6011 0686 9923      		tst r25
 6012 0688 01F0      		breq .L449
 6013               	.LSM696:
 6014 068a 0E94 0000 		call RandomCollisionLayerP__0__RadioSend__ready
 6015               	.LVL313:
 6016               	.L449:
 6017               	.LBE4741:
 6018               	.LBE4740:
 6019               	.LBE4739:
 6020               	.LBE4738:
 6021               	.LBE4737:
 6022               	.LBE4736:
 6023               	.LBE4735:
 6024               	.LBE4734:
 6025               	.LBE4518:
 6026               	.LBE4517:
 6027               	.LBB4742:
 6028               	.LBB4743:
 6029               	.LSM697:
 6030 068e 8091 0000 		lds r24,RadioAlarmP__0__state
 6031 0692 8230      		cpi r24,lo8(2)
 6032 0694 01F0      		breq .+2
 6033 0696 00C0      		rjmp .L456
 6034               	.LSM698:
 6035 0698 1092 0000 		sts RadioAlarmP__0__state,__zero_reg__
 6036               	.LBB4744:
 6037               	.LBB4745:
 6038               	.LSM699:
 6039 069c 8091 0000 		lds r24,RadioAlarmP__0__alarm
 6040 06a0 8823      		tst r24
 6041 06a2 01F0      		breq .L458
 6042 06a4 8130      		cpi r24,lo8(1)
 6043 06a6 01F0      		breq .+2
 6044 06a8 00C0      		rjmp .L456
 6045 06aa 00C0      		rjmp .L482
 6046               	.L458:
 6047               	.LBB4746:
 6048               	.LBB4747:
 6049               	.LSM700:
 6050 06ac C091 0000 		lds r28,RandomCollisionLayerP__0__txBarrier
 6051 06b0 D091 0000 		lds r29,(RandomCollisionLayerP__0__txBarrier)+1
 6052               	.LVL314:
 6053               	.LBE4747:
 6054 06b4 0E94 0000 		call RandomCollisionLayerP__0__RadioAlarm__getNow
 6055               	.LVL315:
 6056               	.LBB4748:
 6057               	.LSM701:
 6058 06b8 2091 0000 		lds r18,RandomCollisionLayerP__0__state
 6059 06bc 2038      		cpi r18,lo8(-128)
 6060 06be 01F4      		brne .L460
 6061               	.LSM702:
 6062 06c0 1092 0000 		sts RandomCollisionLayerP__0__state,__zero_reg__
 6063               	.LSM703:
 6064 06c4 0E94 0000 		call RandomCollisionLayerP__0__RadioSend__ready
 6065 06c8 00C0      		rjmp .L456
 6066               	.L460:
 6067               	.LSM704:
 6068 06ca 8E01      		movw r16,r28
 6069               	.LVL316:
 6070 06cc 061B      		sub r16,r22
 6071 06ce 170B      		sbc r17,r23
 6072               	.LSM705:
 6073 06d0 27FF      		sbrs r18,7
 6074 06d2 00C0      		rjmp .L462
 6075 06d4 1016      		cp __zero_reg__,r16
 6076 06d6 1106      		cpc __zero_reg__,r17
 6077 06d8 04F0      		brlt .L464
 6078               	.L462:
 6079               	.LSM706:
 6080 06da C091 0000 		lds r28,RandomCollisionLayerP__0__txMsg
 6081 06de D091 0000 		lds r29,(RandomCollisionLayerP__0__txMsg)+1
 6082               	.LVL317:
 6083               	.LBB4749:
 6084               	.LBB4750:
 6085               	.LBB4751:
 6086               	.LBB4752:
 6087               	.LSM707:
 6088 06e2 8091 0000 		lds r24,SoftwareAckLayerC__0__state
 6089 06e6 8823      		tst r24
 6090 06e8 01F4      		brne .L464
 6091               	.LBE4752:
 6092               	.LSM708:
 6093 06ea CE01      		movw r24,r28
 6094 06ec 0E94 0000 		call SoftwareAckLayerC__0__SubSend__send
 6095               	.LVL318:
 6096               	.LBB4753:
 6097 06f0 8823      		tst r24
 6098 06f2 01F4      		brne .L466
 6099               	.LBB4754:
 6100               	.LBB4755:
 6101               	.LSM709:
 6102 06f4 BE01      		movw r22,r28
 6103 06f6 0E94 0000 		call MetadataFlagsLayerC__0__PacketFlag__clear
 6104               	.LVL319:
 6105               	.LBE4755:
 6106               	.LBE4754:
 6107               	.LSM710:
 6108 06fa 81E0      		ldi r24,lo8(1)
 6109 06fc 8093 0000 		sts SoftwareAckLayerC__0__state,r24
 6110               	.LSM711:
 6111 0700 D093 0000 		sts (SoftwareAckLayerC__0__txMsg)+1,r29
 6112 0704 C093 0000 		sts SoftwareAckLayerC__0__txMsg,r28
 6113 0708 00C0      		rjmp .L468
 6114               	.LVL320:
 6115               	.L466:
 6116               	.LBE4753:
 6117               	.LBE4751:
 6118               	.LBE4750:
 6119               	.LBE4749:
 6120               	.LSM712:
 6121 070a 9927      		clr r25
 6122 070c F82E      		mov r15,r24
 6123               	.LVL321:
 6124               	.LSM713:
 6125 070e 8823      		tst r24
 6126 0710 01F0      		breq .L468
 6127 0712 00C0      		rjmp .L469
 6128               	.LVL322:
 6129               	.L464:
 6130 0714 85E0      		ldi r24,lo8(5)
 6131 0716 F82E      		mov r15,r24
 6132               	.LVL323:
 6133               	.L469:
 6134               	.LSM714:
 6135 0718 2091 0000 		lds r18,RandomCollisionLayerP__0__state
 6136 071c 822F      		mov r24,r18
 6137 071e 9927      		clr r25
 6138               	.LVL324:
 6139 0720 8F77      		andi r24,lo8(-129)
 6140 0722 0197      		sbiw r24,1
 6141 0724 01F4      		brne .L470
 6142               	.LSM715:
 6143 0726 2078      		andi r18,lo8(-128)
 6144 0728 2260      		ori r18,lo8(2)
 6145 072a 2093 0000 		sts RandomCollisionLayerP__0__state,r18
 6146               	.LBE4748:
 6147               	.LSM716:
 6148 072e 8CE8      		ldi r24,lo8(140)
 6149 0730 90E0      		ldi r25,hi8(140)
 6150 0732 0E94 0000 		call RandomCollisionLayerP__0__getBackoff
 6151               	.LBB4756:
 6152 0736 AA27      		clr r26
 6153 0738 BB27      		clr r27
 6154 073a BC01      		movw r22,r24
 6155 073c CD01      		movw r24,r26
 6156 073e 0E94 0000 		call RandomCollisionLayerP__0__RadioAlarm__wait
 6157 0742 00C0      		rjmp .L456
 6158               	.L470:
 6159               	.LSM717:
 6160 0744 27FF      		sbrs r18,7
 6161 0746 00C0      		rjmp .L472
 6162 0748 1016      		cp __zero_reg__,r16
 6163 074a 1106      		cpc __zero_reg__,r17
 6164 074c 04F4      		brge .L472
 6165               	.LSM718:
 6166 074e 80E8      		ldi r24,lo8(-128)
 6167 0750 8093 0000 		sts RandomCollisionLayerP__0__state,r24
 6168               	.LSM719:
 6169 0754 B801      		movw r22,r16
 6170 0756 8827      		clr r24
 6171 0758 77FD      		sbrc r23,7
 6172 075a 8095      		com r24
 6173 075c 982F      		mov r25,r24
 6174 075e 0E94 0000 		call RandomCollisionLayerP__0__RadioAlarm__wait
 6175 0762 00C0      		rjmp .L475
 6176               	.L472:
 6177               	.LSM720:
 6178 0764 1092 0000 		sts RandomCollisionLayerP__0__state,__zero_reg__
 6179               	.L475:
 6180               	.LSM721:
 6181 0768 8F2D      		mov r24,r15
 6182 076a 0E94 0000 		call RandomCollisionLayerP__0__RadioSend__sendDone
 6183 076e 00C0      		rjmp .L456
 6184               	.LVL325:
 6185               	.L468:
 6186               	.LSM722:
 6187 0770 83E0      		ldi r24,lo8(3)
 6188               	.LVL326:
 6189 0772 8093 0000 		sts RandomCollisionLayerP__0__state,r24
 6190 0776 00C0      		rjmp .L456
 6191               	.LVL327:
 6192               	.L482:
 6193               	.LBE4756:
 6194               	.LBE4746:
 6195               	.LBB4757:
 6196               	.LBB4758:
 6197               	.LSM723:
 6198 0778 1092 0000 		sts SoftwareAckLayerC__0__state,__zero_reg__
 6199               	.LSM724:
 6200 077c 80E0      		ldi r24,lo8(0)
 6201 077e 0E94 0000 		call SoftwareAckLayerC__0__RadioSend__sendDone
 6202               	.LVL328:
 6203               	.L456:
 6204               	.LBE4758:
 6205               	.LBE4757:
 6206               	.LBE4745:
 6207               	.LBE4744:
 6208               	.LBE4743:
 6209               	.LBE4742:
 6210               	.LBE4516:
 6211               	.LBE4515:
 6212               	.LBB4759:
 6213               	.LBB4760:
 6214               	.LBB4761:
 6215               	.LSM725:
 6216 0782 8FB7      		in r24,95-0x20
 6217               	.LBB4762:
 6218               	.LBB4763:
 6219               	.LSM726:
 6220               	/* #APP */
 6221 0784 F894      		cli
 6222               	/* #NOAPP */
 6223               	.LBE4763:
 6224               	.LBE4762:
 6225               	.LSM727:
 6226               	.LBE4761:
 6227               	.LBE4760:
 6228               	.LSM728:
 6229 0786 282F      		mov r18,r24
 6230 0788 3327      		clr r19
 6231               	.LVL329:
 6232               	.LSM729:
 6233 078a 8091 0000 		lds r24,TaskletC__state
 6234 078e 8130      		cpi r24,lo8(1)
 6235 0790 01F0      		breq .L483
 6236               	.LSM730:
 6237 0792 81E0      		ldi r24,lo8(1)
 6238 0794 8093 0000 		sts TaskletC__state,r24
 6239               	.LBB4764:
 6240               	.LBB4765:
 6241               	.LSM731:
 6242               	.LSM732:
 6243 0798 2FBF      		out 95-0x20,r18
 6244 079a 00C0      		rjmp .L318
 6245               	.LVL330:
 6246               	.L379:
 6247               	.LBE4765:
 6248               	.LBE4764:
 6249               	.LBE4759:
 6250               	.LBB4766:
 6251               	.LBB4767:
 6252               	.LBB4768:
 6253               	.LBB4769:
 6254               	.LBB4770:
 6255               	.LBB4771:
 6256               	.LSM733:
 6257 079c 8091 4C01 		lds r24,332
 6258 07a0 8F77      		andi r24,lo8(127)
 6259 07a2 8093 4C01 		sts 332,r24
 6260               	.LSM734:
 6261 07a6 8091 4C01 		lds r24,332
 6262 07aa 8068      		ori r24,lo8(-128)
 6263 07ac 8093 4C01 		sts 332,r24
 6264               	.LSM735:
 6265 07b0 85E0      		ldi r24,lo8(5)
 6266 07b2 8093 0000 		sts RFA1DriverLayerP__state,r24
 6267               	.LSM736:
 6268 07b6 1092 0000 		sts RFA1DriverLayerP__cmd,__zero_reg__
 6269 07ba 00C0      		rjmp .L381
 6270               	.LVL331:
 6271               	.L483:
 6272               	.LBE4771:
 6273               	.LBE4770:
 6274               	.LBE4769:
 6275               	.LBE4768:
 6276               	.LBE4767:
 6277               	.LBE4766:
 6278               	.LBB4772:
 6279               	.LSM737:
 6280 07bc 1092 0000 		sts TaskletC__state,__zero_reg__
 6281               	.LBB4773:
 6282               	.LBB4774:
 6283               	.LSM738:
 6284               	.LSM739:
 6285 07c0 2FBF      		out 95-0x20,r18
 6286               	.LBE4774:
 6287               	.LBE4773:
 6288               	.LBE4772:
 6289               	/* epilogue: frame size=0 */
 6290 07c2 DF91      		pop r29
 6291 07c4 CF91      		pop r28
 6292 07c6 1F91      		pop r17
 6293 07c8 0F91      		pop r16
 6294 07ca FF90      		pop r15
 6295 07cc EF90      		pop r14
 6296 07ce DF90      		pop r13
 6297 07d0 CF90      		pop r12
 6298 07d2 BF90      		pop r11
 6299 07d4 AF90      		pop r10
 6300 07d6 9F90      		pop r9
 6301 07d8 8F90      		pop r8
 6302 07da 7F90      		pop r7
 6303 07dc 6F90      		pop r6
 6304 07de 0895      		ret
 6305               	/* epilogue end (size=15) */
 6306               	/* function TaskletC__doit size 1035 (1006) */
 6307               	.LFE582:
 6309               		.section	.text.MessageBufferLayerP__0__Tasklet__resume,"ax",@progbits
 6311               	MessageBufferLayerP__0__Tasklet__resume:
 6312               	.LFB309:
 6313               	.LSM740:
 6314               	/* prologue: frame size=0 */
 6315               	/* prologue end (size=0) */
 6316               	.LBB4786:
 6317               	.LBB4787:
 6318               	.LBB4788:
 6319               	.LBB4789:
 6320               	.LBB4790:
 6321               	.LSM741:
 6322 0000 8FB7      		in r24,95-0x20
 6323               	.LVL332:
 6324               	.LBB4791:
 6325               	.LBB4792:
 6326               	.LSM742:
 6327               	/* #APP */
 6328 0002 F894      		cli
 6329               	/* #NOAPP */
 6330               	.LBE4792:
 6331               	.LBE4791:
 6332               	.LSM743:
 6333               	.LBE4790:
 6334               	.LBE4789:
 6335               	.LSM744:
 6336 0004 282F      		mov r18,r24
 6337 0006 3327      		clr r19
 6338               	.LSM745:
 6339 0008 8091 0000 		lds r24,TaskletC__state
 6340               	.LVL333:
 6341 000c 8150      		subi r24,lo8(-(-1))
 6342 000e 8093 0000 		sts TaskletC__state,r24
 6343 0012 8038      		cpi r24,lo8(-128)
 6344 0014 01F0      		breq .L489
 6345               	.LBB4793:
 6346               	.LBB4794:
 6347               	.LSM746:
 6348               	.LSM747:
 6349 0016 2FBF      		out 95-0x20,r18
 6350 0018 0895      		ret
 6351               	.L489:
 6352               	.LBE4794:
 6353               	.LBE4793:
 6354               	.LSM748:
 6355 001a 81E0      		ldi r24,lo8(1)
 6356 001c 8093 0000 		sts TaskletC__state,r24
 6357               	.LBB4795:
 6358               	.LBB4796:
 6359               	.LSM749:
 6360               	.LSM750:
 6361 0020 2FBF      		out 95-0x20,r18
 6362               	.LBE4796:
 6363               	.LBE4795:
 6364               	.LBE4788:
 6365               	.LSM751:
 6366 0022 0E94 0000 		call TaskletC__doit
 6367               	.LVL334:
 6368 0026 0895      		ret
 6369               	.LBE4787:
 6370               	.LBE4786:
 6371               	/* epilogue: frame size=0 */
 6372               	/* epilogue: noreturn */
 6373               	/* epilogue end (size=0) */
 6374               	/* function MessageBufferLayerP__0__Tasklet__resume size 27 (27) */
 6375               	.LFE309:
 6377               		.section	.text.TaskletC__Tasklet__schedule,"ax",@progbits
 6379               	TaskletC__Tasklet__schedule:
 6380               	.LFB581:
 6381               	.LSM752:
 6382               	/* prologue: frame size=0 */
 6383               	/* prologue end (size=0) */
 6384               	.LSM753:
 6385 0000 8091 0000 		lds r24,TaskletC__state
 6386 0004 8823      		tst r24
 6387 0006 01F0      		breq .L494
 6388               	.LSM754:
 6389 0008 8068      		ori r24,lo8(-128)
 6390 000a 8093 0000 		sts TaskletC__state,r24
 6391 000e 0895      		ret
 6392               	.L494:
 6393               	.LSM755:
 6394 0010 81E0      		ldi r24,lo8(1)
 6395 0012 8093 0000 		sts TaskletC__state,r24
 6396               	.LSM756:
 6397 0016 0E94 0000 		call TaskletC__doit
 6398 001a 0895      		ret
 6399               	/* epilogue: frame size=0 */
 6400               	/* epilogue: noreturn */
 6401               	/* epilogue end (size=0) */
 6402               	/* function TaskletC__Tasklet__schedule size 14 (14) */
 6403               	.LFE581:
 6405               		.section	.text.RFA1DriverLayerP__Tasklet__schedule,"ax",@progbits
 6407               	RFA1DriverLayerP__Tasklet__schedule:
 6408               	.LFB571:
 6409               	.LSM757:
 6410               	/* prologue: frame size=0 */
 6411               	/* prologue end (size=0) */
 6412 0000 0E94 0000 		call TaskletC__Tasklet__schedule
 6413               	/* epilogue: frame size=0 */
 6414 0004 0895      		ret
 6415               	/* epilogue end (size=1) */
 6416               	/* function RFA1DriverLayerP__Tasklet__schedule size 3 (2) */
 6417               	.LFE571:
 6419               		.section	.text.__vector_61,"ax",@progbits
 6420               	.global	__vector_61
 6422               	__vector_61:
 6423               	.LFB626:
 6424               	.LSM758:
 6425               	/* prologue: frame size=0 */
 6426 0000 1F92      		push __zero_reg__
 6427 0002 0F92      		push __tmp_reg__
 6428 0004 0FB6      		in __tmp_reg__,__SREG__
 6429 0006 0F92      		push __tmp_reg__
 6430 0008 1124      		clr __zero_reg__
 6431 000a 2F93      		push r18
 6432 000c 3F93      		push r19
 6433 000e 4F93      		push r20
 6434 0010 5F93      		push r21
 6435 0012 6F93      		push r22
 6436 0014 7F93      		push r23
 6437 0016 8F93      		push r24
 6438 0018 9F93      		push r25
 6439 001a AF93      		push r26
 6440 001c BF93      		push r27
 6441 001e EF93      		push r30
 6442 0020 FF93      		push r31
 6443               	/* prologue end (size=17) */
 6444               	.LSM759:
 6445 0022 8091 0000 		lds r24,RFA1DriverLayerP__radioIrq
 6446 0026 8061      		ori r24,lo8(16)
 6447 0028 8093 0000 		sts RFA1DriverLayerP__radioIrq,r24
 6448               	.LSM760:
 6449 002c 0E94 0000 		call RFA1DriverLayerP__Tasklet__schedule
 6450               	/* epilogue: frame size=0 */
 6451 0030 FF91      		pop r31
 6452 0032 EF91      		pop r30
 6453 0034 BF91      		pop r27
 6454 0036 AF91      		pop r26
 6455 0038 9F91      		pop r25
 6456 003a 8F91      		pop r24
 6457 003c 7F91      		pop r23
 6458 003e 6F91      		pop r22
 6459 0040 5F91      		pop r21
 6460 0042 4F91      		pop r20
 6461 0044 3F91      		pop r19
 6462 0046 2F91      		pop r18
 6463 0048 0F90      		pop __tmp_reg__
 6464 004a 0FBE      		out __SREG__,__tmp_reg__
 6465 004c 0F90      		pop __tmp_reg__
 6466 004e 1F90      		pop __zero_reg__
 6467 0050 1895      		reti
 6468               	/* epilogue end (size=17) */
 6469               	/* function __vector_61 size 41 (7) */
 6470               	.LFE626:
 6472               		.section	.text.__vector_64,"ax",@progbits
 6473               	.global	__vector_64
 6475               	__vector_64:
 6476               	.LFB625:
 6477               	.LSM761:
 6478               	/* prologue: frame size=0 */
 6479 0000 1F92      		push __zero_reg__
 6480 0002 0F92      		push __tmp_reg__
 6481 0004 0FB6      		in __tmp_reg__,__SREG__
 6482 0006 0F92      		push __tmp_reg__
 6483 0008 1124      		clr __zero_reg__
 6484 000a 2F93      		push r18
 6485 000c 3F93      		push r19
 6486 000e 4F93      		push r20
 6487 0010 5F93      		push r21
 6488 0012 6F93      		push r22
 6489 0014 7F93      		push r23
 6490 0016 8F93      		push r24
 6491 0018 9F93      		push r25
 6492 001a AF93      		push r26
 6493 001c BF93      		push r27
 6494 001e EF93      		push r30
 6495 0020 FF93      		push r31
 6496               	/* prologue end (size=17) */
 6497               	.LSM762:
 6498 0022 8091 0000 		lds r24,RFA1DriverLayerP__radioIrq
 6499 0026 8068      		ori r24,lo8(-128)
 6500 0028 8093 0000 		sts RFA1DriverLayerP__radioIrq,r24
 6501               	.LSM763:
 6502 002c 0E94 0000 		call RFA1DriverLayerP__Tasklet__schedule
 6503               	/* epilogue: frame size=0 */
 6504 0030 FF91      		pop r31
 6505 0032 EF91      		pop r30
 6506 0034 BF91      		pop r27
 6507 0036 AF91      		pop r26
 6508 0038 9F91      		pop r25
 6509 003a 8F91      		pop r24
 6510 003c 7F91      		pop r23
 6511 003e 6F91      		pop r22
 6512 0040 5F91      		pop r21
 6513 0042 4F91      		pop r20
 6514 0044 3F91      		pop r19
 6515 0046 2F91      		pop r18
 6516 0048 0F90      		pop __tmp_reg__
 6517 004a 0FBE      		out __SREG__,__tmp_reg__
 6518 004c 0F90      		pop __tmp_reg__
 6519 004e 1F90      		pop __zero_reg__
 6520 0050 1895      		reti
 6521               	/* epilogue end (size=17) */
 6522               	/* function __vector_64 size 41 (7) */
 6523               	.LFE625:
 6525               		.section	.text.__vector_57,"ax",@progbits
 6526               	.global	__vector_57
 6528               	__vector_57:
 6529               	.LFB623:
 6530               	.LSM764:
 6531               	/* prologue: frame size=0 */
 6532 0000 1F92      		push __zero_reg__
 6533 0002 0F92      		push __tmp_reg__
 6534 0004 0FB6      		in __tmp_reg__,__SREG__
 6535 0006 0F92      		push __tmp_reg__
 6536 0008 1124      		clr __zero_reg__
 6537 000a 2F93      		push r18
 6538 000c 3F93      		push r19
 6539 000e 4F93      		push r20
 6540 0010 5F93      		push r21
 6541 0012 6F93      		push r22
 6542 0014 7F93      		push r23
 6543 0016 8F93      		push r24
 6544 0018 9F93      		push r25
 6545 001a AF93      		push r26
 6546 001c BF93      		push r27
 6547 001e EF93      		push r30
 6548 0020 FF93      		push r31
 6549               	/* prologue end (size=17) */
 6550               	.LSM765:
 6551 0022 8091 0000 		lds r24,RFA1DriverLayerP__radioIrq
 6552 0026 8160      		ori r24,lo8(1)
 6553 0028 8093 0000 		sts RFA1DriverLayerP__radioIrq,r24
 6554               	.LSM766:
 6555 002c 0E94 0000 		call RFA1DriverLayerP__Tasklet__schedule
 6556               	/* epilogue: frame size=0 */
 6557 0030 FF91      		pop r31
 6558 0032 EF91      		pop r30
 6559 0034 BF91      		pop r27
 6560 0036 AF91      		pop r26
 6561 0038 9F91      		pop r25
 6562 003a 8F91      		pop r24
 6563 003c 7F91      		pop r23
 6564 003e 6F91      		pop r22
 6565 0040 5F91      		pop r21
 6566 0042 4F91      		pop r20
 6567 0044 3F91      		pop r19
 6568 0046 2F91      		pop r18
 6569 0048 0F90      		pop __tmp_reg__
 6570 004a 0FBE      		out __SREG__,__tmp_reg__
 6571 004c 0F90      		pop __tmp_reg__
 6572 004e 1F90      		pop __zero_reg__
 6573 0050 1895      		reti
 6574               	/* epilogue end (size=17) */
 6575               	/* function __vector_57 size 41 (7) */
 6576               	.LFE623:
 6578               		.section	.text.__vector_63,"ax",@progbits
 6579               	.global	__vector_63
 6581               	__vector_63:
 6582               	.LFB622:
 6583               	.LSM767:
 6584               	/* prologue: frame size=0 */
 6585 0000 1F92      		push __zero_reg__
 6586 0002 0F92      		push __tmp_reg__
 6587 0004 0FB6      		in __tmp_reg__,__SREG__
 6588 0006 0F92      		push __tmp_reg__
 6589 0008 1124      		clr __zero_reg__
 6590 000a 2F93      		push r18
 6591 000c 3F93      		push r19
 6592 000e 4F93      		push r20
 6593 0010 5F93      		push r21
 6594 0012 6F93      		push r22
 6595 0014 7F93      		push r23
 6596 0016 8F93      		push r24
 6597 0018 9F93      		push r25
 6598 001a AF93      		push r26
 6599 001c BF93      		push r27
 6600 001e EF93      		push r30
 6601 0020 FF93      		push r31
 6602               	/* prologue end (size=17) */
 6603               	.LSM768:
 6604 0022 8091 0000 		lds r24,RFA1DriverLayerP__radioIrq
 6605 0026 8064      		ori r24,lo8(64)
 6606 0028 8093 0000 		sts RFA1DriverLayerP__radioIrq,r24
 6607               	.LSM769:
 6608 002c 0E94 0000 		call RFA1DriverLayerP__Tasklet__schedule
 6609               	/* epilogue: frame size=0 */
 6610 0030 FF91      		pop r31
 6611 0032 EF91      		pop r30
 6612 0034 BF91      		pop r27
 6613 0036 AF91      		pop r26
 6614 0038 9F91      		pop r25
 6615 003a 8F91      		pop r24
 6616 003c 7F91      		pop r23
 6617 003e 6F91      		pop r22
 6618 0040 5F91      		pop r21
 6619 0042 4F91      		pop r20
 6620 0044 3F91      		pop r19
 6621 0046 2F91      		pop r18
 6622 0048 0F90      		pop __tmp_reg__
 6623 004a 0FBE      		out __SREG__,__tmp_reg__
 6624 004c 0F90      		pop __tmp_reg__
 6625 004e 1F90      		pop __zero_reg__
 6626 0050 1895      		reti
 6627               	/* epilogue end (size=17) */
 6628               	/* function __vector_63 size 41 (7) */
 6629               	.LFE622:
 6631               		.section	.text.__vector_60,"ax",@progbits
 6632               	.global	__vector_60
 6634               	__vector_60:
 6635               	.LFB621:
 6636               	.LSM770:
 6637               	/* prologue: frame size=0 */
 6638 0000 1F92      		push __zero_reg__
 6639 0002 0F92      		push __tmp_reg__
 6640 0004 0FB6      		in __tmp_reg__,__SREG__
 6641 0006 0F92      		push __tmp_reg__
 6642 0008 1124      		clr __zero_reg__
 6643 000a 2F93      		push r18
 6644 000c 3F93      		push r19
 6645 000e 4F93      		push r20
 6646 0010 5F93      		push r21
 6647 0012 6F93      		push r22
 6648 0014 7F93      		push r23
 6649 0016 8F93      		push r24
 6650 0018 9F93      		push r25
 6651 001a AF93      		push r26
 6652 001c BF93      		push r27
 6653 001e EF93      		push r30
 6654 0020 FF93      		push r31
 6655               	/* prologue end (size=17) */
 6656               	.LSM771:
 6657 0022 8091 0000 		lds r24,RFA1DriverLayerP__radioIrq
 6658 0026 8860      		ori r24,lo8(8)
 6659 0028 8093 0000 		sts RFA1DriverLayerP__radioIrq,r24
 6660               	.LSM772:
 6661 002c 0E94 0000 		call RFA1DriverLayerP__Tasklet__schedule
 6662               	/* epilogue: frame size=0 */
 6663 0030 FF91      		pop r31
 6664 0032 EF91      		pop r30
 6665 0034 BF91      		pop r27
 6666 0036 AF91      		pop r26
 6667 0038 9F91      		pop r25
 6668 003a 8F91      		pop r24
 6669 003c 7F91      		pop r23
 6670 003e 6F91      		pop r22
 6671 0040 5F91      		pop r21
 6672 0042 4F91      		pop r20
 6673 0044 3F91      		pop r19
 6674 0046 2F91      		pop r18
 6675 0048 0F90      		pop __tmp_reg__
 6676 004a 0FBE      		out __SREG__,__tmp_reg__
 6677 004c 0F90      		pop __tmp_reg__
 6678 004e 1F90      		pop __zero_reg__
 6679 0050 1895      		reti
 6680               	/* epilogue end (size=17) */
 6681               	/* function __vector_60 size 41 (7) */
 6682               	.LFE621:
 6684               		.section	.text.__vector_59,"ax",@progbits
 6685               	.global	__vector_59
 6687               	__vector_59:
 6688               	.LFB620:
 6689               	.LSM773:
 6690               	/* prologue: frame size=0 */
 6691 0000 1F92      		push __zero_reg__
 6692 0002 0F92      		push __tmp_reg__
 6693 0004 0FB6      		in __tmp_reg__,__SREG__
 6694 0006 0F92      		push __tmp_reg__
 6695 0008 1124      		clr __zero_reg__
 6696 000a 2F93      		push r18
 6697 000c 3F93      		push r19
 6698 000e 4F93      		push r20
 6699 0010 5F93      		push r21
 6700 0012 6F93      		push r22
 6701 0014 7F93      		push r23
 6702 0016 8F93      		push r24
 6703 0018 9F93      		push r25
 6704 001a AF93      		push r26
 6705 001c BF93      		push r27
 6706 001e EF93      		push r30
 6707 0020 FF93      		push r31
 6708               	/* prologue end (size=17) */
 6709               	.LSM774:
 6710 0022 8091 0000 		lds r24,RFA1DriverLayerP__radioIrq
 6711 0026 8460      		ori r24,lo8(4)
 6712 0028 8093 0000 		sts RFA1DriverLayerP__radioIrq,r24
 6713               	.LSM775:
 6714 002c 0E94 0000 		call RFA1DriverLayerP__Tasklet__schedule
 6715               	/* epilogue: frame size=0 */
 6716 0030 FF91      		pop r31
 6717 0032 EF91      		pop r30
 6718 0034 BF91      		pop r27
 6719 0036 AF91      		pop r26
 6720 0038 9F91      		pop r25
 6721 003a 8F91      		pop r24
 6722 003c 7F91      		pop r23
 6723 003e 6F91      		pop r22
 6724 0040 5F91      		pop r21
 6725 0042 4F91      		pop r20
 6726 0044 3F91      		pop r19
 6727 0046 2F91      		pop r18
 6728 0048 0F90      		pop __tmp_reg__
 6729 004a 0FBE      		out __SREG__,__tmp_reg__
 6730 004c 0F90      		pop __tmp_reg__
 6731 004e 1F90      		pop __zero_reg__
 6732 0050 1895      		reti
 6733               	/* epilogue end (size=17) */
 6734               	/* function __vector_59 size 41 (7) */
 6735               	.LFE620:
 6737               		.section	.text.__vector_66,"ax",@progbits
 6738               	.global	__vector_66
 6740               	__vector_66:
 6741               	.LFB580:
 6742               	.LSM776:
 6743               	/* prologue: frame size=0 */
 6744 0000 1F92      		push __zero_reg__
 6745 0002 0F92      		push __tmp_reg__
 6746 0004 0FB6      		in __tmp_reg__,__SREG__
 6747 0006 0F92      		push __tmp_reg__
 6748 0008 1124      		clr __zero_reg__
 6749 000a 2F93      		push r18
 6750 000c 3F93      		push r19
 6751 000e 4F93      		push r20
 6752 0010 5F93      		push r21
 6753 0012 6F93      		push r22
 6754 0014 7F93      		push r23
 6755 0016 8F93      		push r24
 6756 0018 9F93      		push r25
 6757 001a AF93      		push r26
 6758 001c BF93      		push r27
 6759 001e EF93      		push r30
 6760 0020 FF93      		push r31
 6761               	/* prologue end (size=17) */
 6762               	.LBB4815:
 6763               	.LBB4816:
 6764               	.LBB4817:
 6765               	.LBB4818:
 6766               	.LBB4819:
 6767               	.LBB4820:
 6768               	.LBB4821:
 6769               	.LBB4822:
 6770               	.LSM777:
 6771 0022 8091 DF00 		lds r24,223
 6772 0026 8D7F      		andi r24,lo8(-3)
 6773 0028 8093 DF00 		sts 223,r24
 6774               	.LBB4823:
 6775               	.LBB4824:
 6776               	.LBB4825:
 6777               	.LBB4826:
 6778               	.LSM778:
 6779 002c 8FEF      		ldi r24,lo8(-1)
 6780 002e 8093 0000 		sts McuSleepC__powerState,r24
 6781               	.LBE4826:
 6782               	.LBE4825:
 6783               	.LBE4824:
 6784               	.LBE4823:
 6785               	.LBE4822:
 6786               	.LBE4821:
 6787               	.LBE4820:
 6788               	.LBE4819:
 6789               	.LBB4827:
 6790               	.LBB4828:
 6791               	.LBB4829:
 6792               	.LBB4830:
 6793               	.LSM779:
 6794 0032 8091 0000 		lds r24,RadioAlarmP__0__state
 6795 0036 8130      		cpi r24,lo8(1)
 6796 0038 01F4      		brne .L519
 6797               	.LSM780:
 6798 003a 82E0      		ldi r24,lo8(2)
 6799 003c 8093 0000 		sts RadioAlarmP__0__state,r24
 6800               	.L519:
 6801               	.LBB4831:
 6802               	.LBB4832:
 6803               	.LSM781:
 6804 0040 0E94 0000 		call TaskletC__Tasklet__schedule
 6805               	.LBE4832:
 6806               	.LBE4831:
 6807               	.LBE4830:
 6808               	.LBE4829:
 6809               	.LBE4828:
 6810               	.LBE4827:
 6811               	.LBE4818:
 6812               	.LBE4817:
 6813               	.LBE4816:
 6814               	.LBE4815:
 6815               	/* epilogue: frame size=0 */
 6816 0044 FF91      		pop r31
 6817 0046 EF91      		pop r30
 6818 0048 BF91      		pop r27
 6819 004a AF91      		pop r26
 6820 004c 9F91      		pop r25
 6821 004e 8F91      		pop r24
 6822 0050 7F91      		pop r23
 6823 0052 6F91      		pop r22
 6824 0054 5F91      		pop r21
 6825 0056 4F91      		pop r20
 6826 0058 3F91      		pop r19
 6827 005a 2F91      		pop r18
 6828 005c 0F90      		pop __tmp_reg__
 6829 005e 0FBE      		out __SREG__,__tmp_reg__
 6830 0060 0F90      		pop __tmp_reg__
 6831 0062 1F90      		pop __zero_reg__
 6832 0064 1895      		reti
 6833               	/* epilogue end (size=17) */
 6834               	/* function __vector_66 size 51 (17) */
 6835               	.LFE580:
 6837               		.data
 6838               	.LC0:
 6839 0000 4265 666F 		.string	"Before: ADCSRA = %d ADCSRB = %d ADCSRC = %d ADMUX = %d\r\n"
 6839      7265 3A20 
 6839      4144 4353 
 6839      5241 203D 
 6839      2025 6420 
 6840               	.LC1:
 6841 0039 4166 7465 		.string	"After:  ADCSRA = %d ADCSRB = %d ADCSRC = %d ADMUX = %d\r\n"
 6841      723A 2020 
 6841      4144 4353 
 6841      5241 203D 
 6841      2025 6420 
 6842               	.LC2:
 6843 0072 6572 726F 		.string	"error code for vol0.read = %d\n"
 6843      7220 636F 
 6843      6465 2066 
 6843      6F72 2076 
 6843      6F6C 302E 
 6844               	.LC3:
 6845 0091 6572 726F 		.string	"error code for vol1.read = %d\n"
 6845      7220 636F 
 6845      6465 2066 
 6845      6F72 2076 
 6845      6F6C 312E 
 6846               	.LC4:
 6847 00b0 7400      		.string	"t"
 6848               	.LC5:
 6849 00b2 7630 00   		.string	"v0"
 6850               	.LC6:
 6851 00b5 7631 00   		.string	"v1"
 6852               	.LC7:
 6853 00b8 5465 6D70 		.string	"Temp = %d.%d\r\n"
 6853      203D 2025 
 6853      642E 2564 
 6853      0D0A 00
 6854               	.LC8:
 6855 00c7 566F 6C30 		.string	"Vol0 = %d\r\n"
 6855      203D 2025 
 6855      640D 0A00 
 6856               	.LC9:
 6857 00d3 566F 6C31 		.string	"Vol1 = %d\r\n"
 6857      203D 2025 
 6857      640D 0A00 
 6858               		.section	.text.SchedulerBasicP__TaskBasic__runTask,"ax",@progbits
 6860               	SchedulerBasicP__TaskBasic__runTask:
 6861               	.LFB605:
 6862               	.LSM782:
 6863               	/* prologue: frame size=41 */
 6864 0000 2F92      		push r2
 6865 0002 3F92      		push r3
 6866 0004 4F92      		push r4
 6867 0006 5F92      		push r5
 6868 0008 6F92      		push r6
 6869 000a 7F92      		push r7
 6870 000c 8F92      		push r8
 6871 000e 9F92      		push r9
 6872 0010 AF92      		push r10
 6873 0012 BF92      		push r11
 6874 0014 CF92      		push r12
 6875 0016 DF92      		push r13
 6876 0018 EF92      		push r14
 6877 001a FF92      		push r15
 6878 001c 0F93      		push r16
 6879 001e 1F93      		push r17
 6880 0020 CF93      		push r28
 6881 0022 DF93      		push r29
 6882 0024 CDB7      		in r28,__SP_L__
 6883 0026 DEB7      		in r29,__SP_H__
 6884 0028 A997      		sbiw r28,41
 6885 002a 0FB6      		in __tmp_reg__,__SREG__
 6886 002c F894      		cli
 6887 002e DEBF      		out __SP_H__,r29
 6888 0030 0FBE      		out __SREG__,__tmp_reg__
 6889 0032 CDBF      		out __SP_L__,r28
 6890               	/* prologue end (size=26) */
 6891               	.LVL335:
 6892 0034 8A30      		cpi r24,lo8(10)
 6893 0036 01F4      		brne .+2
 6894 0038 00C0      		rjmp .L531
 6895               	.LSM783:
 6896 003a 8B30      		cpi r24,lo8(11)
 6897 003c 00F4      		brsh .L540
 6898 003e 8630      		cpi r24,lo8(6)
 6899 0040 01F4      		brne .+2
 6900 0042 00C0      		rjmp .L527
 6901 0044 8730      		cpi r24,lo8(7)
 6902 0046 00F4      		brsh .L541
 6903 0048 8430      		cpi r24,lo8(4)
 6904 004a 01F0      		breq .L525
 6905 004c 8530      		cpi r24,lo8(5)
 6906 004e 00F0      		brlo .+2
 6907 0050 00C0      		rjmp .L526
 6908 0052 8330      		cpi r24,lo8(3)
 6909 0054 01F0      		breq .+2
 6910 0056 00C0      		rjmp .L618
 6911 0058 00C0      		rjmp .L524
 6912               	.L541:
 6913 005a 8830      		cpi r24,lo8(8)
 6914 005c 01F4      		brne .+2
 6915 005e 00C0      		rjmp .L529
 6916 0060 8930      		cpi r24,lo8(9)
 6917 0062 00F0      		brlo .+2
 6918 0064 00C0      		rjmp .L530
 6919 0066 00C0      		rjmp .L622
 6920               	.L540:
 6921 0068 8E30      		cpi r24,lo8(14)
 6922 006a 01F4      		brne .+2
 6923 006c 00C0      		rjmp .L535
 6924 006e 8F30      		cpi r24,lo8(15)
 6925 0070 00F4      		brsh .L542
 6926 0072 8C30      		cpi r24,lo8(12)
 6927 0074 01F4      		brne .+2
 6928 0076 00C0      		rjmp .L533
 6929 0078 8D30      		cpi r24,lo8(13)
 6930 007a 00F0      		brlo .+2
 6931 007c 00C0      		rjmp .L534
 6932 007e 00C0      		rjmp .L623
 6933               	.L542:
 6934 0080 8031      		cpi r24,lo8(16)
 6935 0082 01F4      		brne .+2
 6936 0084 00C0      		rjmp .L537
 6937 0086 8031      		cpi r24,lo8(16)
 6938 0088 00F4      		brsh .+2
 6939 008a 00C0      		rjmp .L536
 6940 008c 8131      		cpi r24,lo8(17)
 6941 008e 01F4      		brne .+2
 6942 0090 00C0      		rjmp .L627
 6943 0092 8231      		cpi r24,lo8(18)
 6944 0094 01F0      		breq .+2
 6945 0096 00C0      		rjmp .L618
 6946 0098 00C0      		rjmp .L539
 6947               	.L524:
 6948               	.LBB5259:
 6949               	.LBB5260:
 6950               	.LSM784:
 6951 009a 1092 0000 		sts (Atm128Rfa1SerialP__rxBuf)+1,__zero_reg__
 6952 009e 1092 0000 		sts Atm128Rfa1SerialP__rxBuf,__zero_reg__
 6953               	.LSM785:
 6954 00a2 1092 0000 		sts (Atm128Rfa1SerialP__rxLen)+1,__zero_reg__
 6955 00a6 1092 0000 		sts Atm128Rfa1SerialP__rxLen,__zero_reg__
 6956               	.LSM786:
 6957 00aa 1092 0000 		sts (Atm128Rfa1SerialP__rxPos)+1,__zero_reg__
 6958 00ae 1092 0000 		sts Atm128Rfa1SerialP__rxPos,__zero_reg__
 6959               	.LBB5261:
 6960               	.LBB5262:
 6961               	.LBB5263:
 6962               	.LSM787:
 6963 00b2 8FB7      		in r24,95-0x20
 6964               	.LVL336:
 6965               	.LBB5264:
 6966               	.LBB5265:
 6967               	.LSM788:
 6968               	/* #APP */
 6969 00b4 F894      		cli
 6970               	/* #NOAPP */
 6971               	.LBE5265:
 6972               	.LBE5264:
 6973               	.LSM789:
 6974               	.LBE5263:
 6975               	.LBE5262:
 6976               	.LSM790:
 6977 00b6 9927      		clr r25
 6978               	.LSM791:
 6979 00b8 1092 0000 		sts Atm128Rfa1SerialP__rxBusy,__zero_reg__
 6980 00bc 00C0      		rjmp .L637
 6981               	.LVL337:
 6982               	.L525:
 6983               	.LBE5261:
 6984               	.LBE5260:
 6985               	.LBE5259:
 6986               	.LBB5266:
 6987               	.LBB5267:
 6988               	.LSM792:
 6989 00be 4091 0000 		lds r20,Atm128Rfa1SerialP__rxUnexpectedByte
 6990               	.LVL338:
 6991               	.LBB5268:
 6992               	.LBB5269:
 6993               	.LBB5270:
 6994               	.LBB5271:
 6995               	.LBB5272:
 6996               	.LBB5273:
 6997               	.LBB5274:
 6998               	.LBB5275:
 6999               	.LBB5276:
 7000               	.LBB5277:
 7001               	.LBB5278:
 7002               	.LSM793:
 7003 00c2 8FB7      		in r24,95-0x20
 7004               	.LVL339:
 7005               	.LBB5279:
 7006               	.LBB5280:
 7007               	.LSM794:
 7008               	/* #APP */
 7009 00c4 F894      		cli
 7010               	/* #NOAPP */
 7011               	.LBE5280:
 7012               	.LBE5279:
 7013               	.LSM795:
 7014               	.LBE5278:
 7015               	.LBE5277:
 7016               	.LSM796:
 7017 00c6 282F      		mov r18,r24
 7018 00c8 3327      		clr r19
 7019               	.LSM797:
 7020 00ca 8091 0000 		lds r24,Atm128Rfa1SerialP__txBusy
 7021               	.LVL340:
 7022 00ce 8823      		tst r24
 7023 00d0 01F0      		breq .L543
 7024               	.LBB5281:
 7025               	.LBB5282:
 7026               	.LBB5283:
 7027               	.LSM798:
 7028               	.LSM799:
 7029 00d2 2FBF      		out 95-0x20,r18
 7030 00d4 00C0      		rjmp .L545
 7031               	.L543:
 7032               	.LBE5283:
 7033               	.LBE5282:
 7034               	.LBE5281:
 7035               	.LSM800:
 7036 00d6 81E0      		ldi r24,lo8(1)
 7037 00d8 8093 0000 		sts Atm128Rfa1SerialP__txBusy,r24
 7038               	.LBB5284:
 7039               	.LBB5285:
 7040               	.LSM801:
 7041               	.LSM802:
 7042 00dc 2FBF      		out 95-0x20,r18
 7043               	.LBE5285:
 7044               	.LBE5284:
 7045               	.LBE5276:
 7046               	.LBB5286:
 7047               	.LBB5287:
 7048               	.LBB5288:
 7049               	.LBB5289:
 7050               	.LSM803:
 7051 00de 8091 C800 		lds r24,200
 7052 00e2 8F7B      		andi r24,lo8(-65)
 7053 00e4 8093 C800 		sts 200,r24
 7054               	.LBE5289:
 7055               	.LBE5288:
 7056               	.LBE5287:
 7057               	.LBE5286:
 7058               	.LBB5290:
 7059               	.LBB5291:
 7060               	.LBB5292:
 7061               	.LBB5293:
 7062               	.LSM804:
 7063 00e8 8091 C900 		lds r24,201
 7064 00ec 8F7B      		andi r24,lo8(-65)
 7065 00ee 8093 C900 		sts 201,r24
 7066               	.LBE5293:
 7067               	.LBE5292:
 7068               	.LBE5291:
 7069               	.LBE5290:
 7070               	.LSM805:
 7071 00f2 4093 CE00 		sts 206,r20
 7072               	.LBB5294:
 7073               	.LBB5295:
 7074               	.LBB5296:
 7075               	.LBB5297:
 7076               	.LSM806:
 7077 00f6 8091 C800 		lds r24,200
 7078 00fa 8064      		ori r24,lo8(64)
 7079 00fc 8093 C800 		sts 200,r24
 7080               	.L546:
 7081               	.LBE5297:
 7082               	.LBE5296:
 7083               	.LBE5295:
 7084               	.LBE5294:
 7085               	.LBB5298:
 7086               	.LBB5299:
 7087               	.LBB5300:
 7088               	.LBB5301:
 7089               	.LSM807:
 7090 0100 8091 C800 		lds r24,200
 7091               	.LBE5301:
 7092               	.LBE5300:
 7093               	.LBE5299:
 7094               	.LBE5298:
 7095               	.LSM808:
 7096 0104 86FF      		sbrs r24,6
 7097 0106 00C0      		rjmp .L546
 7098               	.LBB5302:
 7099               	.LBB5303:
 7100               	.LBB5304:
 7101               	.LBB5305:
 7102               	.LSM809:
 7103 0108 8091 C800 		lds r24,200
 7104 010c 8F7B      		andi r24,lo8(-65)
 7105 010e 8093 C800 		sts 200,r24
 7106               	.LBE5305:
 7107               	.LBE5304:
 7108               	.LBE5303:
 7109               	.LBE5302:
 7110               	.LBB5306:
 7111               	.LBB5307:
 7112               	.LBB5308:
 7113               	.LBB5309:
 7114               	.LSM810:
 7115 0112 8091 C800 		lds r24,200
 7116 0116 8064      		ori r24,lo8(64)
 7117 0118 8093 C800 		sts 200,r24
 7118               	.LSM811:
 7119 011c 8091 C900 		lds r24,201
 7120 0120 8064      		ori r24,lo8(64)
 7121 0122 8093 C900 		sts 201,r24
 7122               	.LBE5309:
 7123               	.LBE5308:
 7124               	.LBE5307:
 7125               	.LBE5306:
 7126               	.LBB5310:
 7127               	.LBB5311:
 7128               	.LBB5312:
 7129               	.LSM812:
 7130 0126 8FB7      		in r24,95-0x20
 7131               	.LVL341:
 7132               	.LBB5313:
 7133               	.LBB5314:
 7134               	.LSM813:
 7135               	/* #APP */
 7136 0128 F894      		cli
 7137               	/* #NOAPP */
 7138               	.LBE5314:
 7139               	.LBE5313:
 7140               	.LSM814:
 7141               	.LBE5312:
 7142               	.LBE5311:
 7143               	.LSM815:
 7144 012a 9927      		clr r25
 7145               	.LSM816:
 7146 012c 1092 0000 		sts Atm128Rfa1SerialP__txBusy,__zero_reg__
 7147               	.LBB5315:
 7148               	.LBB5316:
 7149               	.LSM817:
 7150               	.LSM818:
 7151 0130 8FBF      		out 95-0x20,r24
 7152               	.L545:
 7153               	.LBE5316:
 7154               	.LBE5315:
 7155               	.LBE5310:
 7156               	.LBE5275:
 7157               	.LBE5274:
 7158               	.LBE5273:
 7159               	.LBE5272:
 7160               	.LBB5317:
 7161               	.LBB5318:
 7162               	.LBB5319:
 7163               	.LSM819:
 7164 0132 1FB7      		in r17,95-0x20
 7165               	.LVL342:
 7166               	.LBB5320:
 7167               	.LBB5321:
 7168               	.LSM820:
 7169               	/* #APP */
 7170 0134 F894      		cli
 7171               	/* #NOAPP */
 7172               	.LBE5321:
 7173               	.LBE5320:
 7174               	.LSM821:
 7175 0136 9091 0000 		lds r25,BlinkC__commandLength
 7176               	.LBE5319:
 7177               	.LBE5318:
 7178               	.LSM822:
 7179 013a 4A30      		cpi r20,lo8(10)
 7180 013c 01F4      		brne .L548
 7181               	.LSM823:
 7182 013e E92F      		mov r30,r25
 7183 0140 FF27      		clr r31
 7184 0142 DF01      		movw r26,r30
 7185 0144 A050      		subi r26,lo8(-(BlinkC__commandBuf-1))
 7186 0146 B040      		sbci r27,hi8(-(BlinkC__commandBuf-1))
 7187 0148 8C91      		ld r24,X
 7188               	.LVL343:
 7189 014a 8D30      		cpi r24,lo8(13)
 7190 014c 01F4      		brne .L550
 7191               	.LSM824:
 7192 014e 1C92      		st X,__zero_reg__
 7193 0150 00C0      		rjmp .L552
 7194               	.L550:
 7195               	.LSM825:
 7196 0152 E050      		subi r30,lo8(-(BlinkC__commandBuf))
 7197 0154 F040      		sbci r31,hi8(-(BlinkC__commandBuf))
 7198 0156 1082      		st Z,__zero_reg__
 7199               	.LSM826:
 7200 0158 9F5F      		subi r25,lo8(-(1))
 7201 015a 9093 0000 		sts BlinkC__commandLength,r25
 7202               	.L552:
 7203               	.LBB5322:
 7204               	.LSM827:
 7205 015e 88E0      		ldi r24,lo8(8)
 7206 0160 0E94 0000 		call SchedulerBasicP__TaskBasic__postTask
 7207               	.LVL344:
 7208 0164 00C0      		rjmp .L553
 7209               	.LVL345:
 7210               	.L548:
 7211               	.LBE5322:
 7212               	.LSM828:
 7213 0166 E92F      		mov r30,r25
 7214 0168 FF27      		clr r31
 7215 016a E050      		subi r30,lo8(-(BlinkC__commandBuf))
 7216 016c F040      		sbci r31,hi8(-(BlinkC__commandBuf))
 7217 016e 4083      		st Z,r20
 7218               	.LSM829:
 7219 0170 9F5F      		subi r25,lo8(-(1))
 7220 0172 9093 0000 		sts BlinkC__commandLength,r25
 7221               	.LVL346:
 7222               	.L553:
 7223               	.LBB5323:
 7224               	.LBB5324:
 7225               	.LSM830:
 7226               	.LVL347:
 7227               	.LBE5324:
 7228               	.LBE5323:
 7229               	.LSM831:
 7230 0176 812F      		mov r24,r17
 7231 0178 9927      		clr r25
 7232               	.LVL348:
 7233               	.L631:
 7234               	.LVL349:
 7235               	.LBB5325:
 7236               	.LBB5326:
 7237               	.LSM832:
 7238 017a 8FBF      		out 95-0x20,r24
 7239 017c 00C0      		rjmp .L618
 7240               	.LVL350:
 7241               	.L526:
 7242               	.LBE5326:
 7243               	.LBE5325:
 7244               	.LBE5317:
 7245               	.LBE5271:
 7246               	.LBE5270:
 7247               	.LBE5269:
 7248               	.LBE5268:
 7249               	.LBE5267:
 7250               	.LBE5266:
 7251               	.LBB5327:
 7252               	.LBB5328:
 7253               	.LSM833:
 7254 017e 8091 7C00 		lds r24,124
 7255               	.LVL351:
 7256 0182 2091 7700 		lds r18,119
 7257 0186 4091 7B00 		lds r20,123
 7258 018a 6091 7A00 		lds r22,122
 7259 018e 8E01      		movw r16,r28
 7260 0190 0F5F      		subi r16,lo8(-(1))
 7261 0192 1F4F      		sbci r17,hi8(-(1))
 7262               	.LBE5328:
 7263 0194 9927      		clr r25
 7264 0196 9F93      		push r25
 7265 0198 8F93      		push r24
 7266 019a 3327      		clr r19
 7267 019c 3F93      		push r19
 7268 019e 2F93      		push r18
 7269 01a0 5527      		clr r21
 7270 01a2 5F93      		push r21
 7271 01a4 4F93      		push r20
 7272 01a6 7727      		clr r23
 7273 01a8 7F93      		push r23
 7274 01aa 6F93      		push r22
 7275 01ac 80E0      		ldi r24,lo8(.LC0)
 7276 01ae 90E0      		ldi r25,hi8(.LC0)
 7277 01b0 9F93      		push r25
 7278 01b2 8F93      		push r24
 7279 01b4 1F93      		push r17
 7280 01b6 0F93      		push r16
 7281 01b8 0E94 0000 		call sprintf
 7282               	.LBB5329:
 7283               	.LSM834:
 7284 01bc 9927      		clr r25
 7285 01be BC01      		movw r22,r24
 7286 01c0 C801      		movw r24,r16
 7287 01c2 0E94 0000 		call BlinkC__SerialStream__send
 7288               	.LBB5330:
 7289               	.LSM835:
 7290 01c6 80E0      		ldi r24,lo8(0)
 7291 01c8 0E94 0000 		call ArbitratedReadC__0__Read__read
 7292               	.LBE5330:
 7293               	.LSM836:
 7294 01cc 8091 7C00 		lds r24,124
 7295 01d0 2091 7700 		lds r18,119
 7296 01d4 4091 7B00 		lds r20,123
 7297 01d8 6091 7A00 		lds r22,122
 7298               	.LBE5329:
 7299 01dc 9927      		clr r25
 7300 01de 9F93      		push r25
 7301 01e0 8F93      		push r24
 7302 01e2 3327      		clr r19
 7303 01e4 3F93      		push r19
 7304 01e6 2F93      		push r18
 7305 01e8 5527      		clr r21
 7306 01ea 5F93      		push r21
 7307 01ec 4F93      		push r20
 7308 01ee 7727      		clr r23
 7309 01f0 7F93      		push r23
 7310 01f2 6F93      		push r22
 7311 01f4 80E0      		ldi r24,lo8(.LC1)
 7312 01f6 90E0      		ldi r25,hi8(.LC1)
 7313 01f8 9F93      		push r25
 7314 01fa 8F93      		push r24
 7315 01fc 1F93      		push r17
 7316 01fe 0F93      		push r16
 7317 0200 0E94 0000 		call sprintf
 7318               	.LBB5331:
 7319               	.LSM837:
 7320 0204 9927      		clr r25
 7321 0206 BC01      		movw r22,r24
 7322 0208 C801      		movw r24,r16
 7323 020a 0E94 0000 		call BlinkC__SerialStream__send
 7324 020e 0DB7      		in r16,__SP_L__
 7325 0210 1EB7      		in r17,__SP_H__
 7326 0212 085E      		subi r16,lo8(-(24))
 7327 0214 1F4F      		sbci r17,hi8(-(24))
 7328 0216 00C0      		rjmp .L632
 7329               	.LVL352:
 7330               	.L527:
 7331               	.LBE5331:
 7332               	.LBE5327:
 7333               	.LBB5332:
 7334               	.LBB5333:
 7335               	.LBB5334:
 7336               	.LSM838:
 7337 0218 81E0      		ldi r24,lo8(1)
 7338               	.LVL353:
 7339 021a 0E94 0000 		call ArbitratedReadC__0__Read__read
 7340               	.LBE5334:
 7341               	.LSM839:
 7342 021e 8E01      		movw r16,r28
 7343 0220 0F5F      		subi r16,lo8(-(1))
 7344 0222 1F4F      		sbci r17,hi8(-(1))
 7345               	.LBE5333:
 7346 0224 9927      		clr r25
 7347               	.LVL354:
 7348 0226 9F93      		push r25
 7349 0228 8F93      		push r24
 7350 022a 80E0      		ldi r24,lo8(.LC2)
 7351 022c 90E0      		ldi r25,hi8(.LC2)
 7352               	.LVL355:
 7353 022e 9F93      		push r25
 7354 0230 8F93      		push r24
 7355 0232 1F93      		push r17
 7356 0234 0F93      		push r16
 7357 0236 0E94 0000 		call sprintf
 7358               	.LBB5335:
 7359               	.LSM840:
 7360 023a 9927      		clr r25
 7361 023c BC01      		movw r22,r24
 7362 023e C801      		movw r24,r16
 7363 0240 0E94 0000 		call BlinkC__SerialStream__send
 7364 0244 8DB7      		in r24,__SP_L__
 7365 0246 9EB7      		in r25,__SP_H__
 7366 0248 0696      		adiw r24,6
 7367 024a 00C0      		rjmp .L633
 7368               	.LVL356:
 7369               	.L622:
 7370               	.LBE5335:
 7371               	.LBE5332:
 7372               	.LBB5336:
 7373               	.LBB5337:
 7374               	.LBB5338:
 7375               	.LSM841:
 7376 024c 82E0      		ldi r24,lo8(2)
 7377               	.LVL357:
 7378 024e 0E94 0000 		call ArbitratedReadC__0__Read__read
 7379               	.LBE5338:
 7380               	.LSM842:
 7381 0252 8E01      		movw r16,r28
 7382 0254 0F5F      		subi r16,lo8(-(1))
 7383 0256 1F4F      		sbci r17,hi8(-(1))
 7384               	.LBE5337:
 7385 0258 9927      		clr r25
 7386               	.LVL358:
 7387 025a 9F93      		push r25
 7388 025c 8F93      		push r24
 7389 025e 80E0      		ldi r24,lo8(.LC3)
 7390 0260 90E0      		ldi r25,hi8(.LC3)
 7391               	.LVL359:
 7392 0262 9F93      		push r25
 7393 0264 8F93      		push r24
 7394 0266 1F93      		push r17
 7395 0268 0F93      		push r16
 7396 026a 0E94 0000 		call sprintf
 7397               	.LBB5339:
 7398               	.LSM843:
 7399 026e 9927      		clr r25
 7400 0270 BC01      		movw r22,r24
 7401 0272 C801      		movw r24,r16
 7402 0274 0E94 0000 		call BlinkC__SerialStream__send
 7403 0278 00C0      		rjmp .L634
 7404               	.LVL360:
 7405               	.L529:
 7406               	.LBE5339:
 7407               	.LBE5336:
 7408               	.LBB5340:
 7409               	.LBB5341:
 7410               	.LBB5342:
 7411               	.LBB5343:
 7412               	.LBB5344:
 7413               	.LSM844:
 7414 027a 1FB7      		in r17,95-0x20
 7415               	.LVL361:
 7416               	.LBB5345:
 7417               	.LBB5346:
 7418               	.LSM845:
 7419               	/* #APP */
 7420 027c F894      		cli
 7421               	/* #NOAPP */
 7422               	.LBE5346:
 7423               	.LBE5345:
 7424               	.LSM846:
 7425               	.LBE5344:
 7426               	.LBE5343:
 7427               	.LBE5342:
 7428               	.LBE5341:
 7429               	.LSM847:
 7430 027e 60E0      		ldi r22,lo8(BlinkC__commandBuf)
 7431 0280 70E0      		ldi r23,hi8(BlinkC__commandBuf)
 7432 0282 80E0      		ldi r24,lo8(.LC4)
 7433 0284 90E0      		ldi r25,hi8(.LC4)
 7434               	.LVL362:
 7435 0286 0E94 0000 		call strcmp
 7436 028a 892B      		or r24,r25
 7437 028c 01F4      		brne .L554
 7438               	.LSM848:
 7439 028e 60E0      		ldi r22,lo8(BlinkC__commandBuf)
 7440 0290 70E0      		ldi r23,hi8(BlinkC__commandBuf)
 7441 0292 80E0      		ldi r24,lo8(.LC5)
 7442 0294 90E0      		ldi r25,hi8(.LC5)
 7443 0296 0E94 0000 		call strcmp
 7444 029a 892B      		or r24,r25
 7445 029c 01F4      		brne .L556
 7446               	.LBB5347:
 7447               	.LBB5348:
 7448               	.LBB5349:
 7449               	.LSM849:
 7450 029e 86E0      		ldi r24,lo8(6)
 7451 02a0 00C0      		rjmp .L628
 7452               	.L556:
 7453               	.LBE5349:
 7454               	.LBE5348:
 7455               	.LBE5347:
 7456               	.LSM850:
 7457 02a2 60E0      		ldi r22,lo8(BlinkC__commandBuf)
 7458 02a4 70E0      		ldi r23,hi8(BlinkC__commandBuf)
 7459 02a6 80E0      		ldi r24,lo8(.LC6)
 7460 02a8 90E0      		ldi r25,hi8(.LC6)
 7461 02aa 0E94 0000 		call strcmp
 7462 02ae 892B      		or r24,r25
 7463 02b0 01F4      		brne .L554
 7464               	.LBB5350:
 7465               	.LBB5351:
 7466               	.LBB5352:
 7467               	.LSM851:
 7468 02b2 87E0      		ldi r24,lo8(7)
 7469               	.L628:
 7470 02b4 0E94 0000 		call SchedulerBasicP__TaskBasic__postTask
 7471               	.L554:
 7472               	.LBE5352:
 7473               	.LSM852:
 7474 02b8 1092 0000 		sts BlinkC__commandLength,__zero_reg__
 7475 02bc 00C0      		rjmp .L553
 7476               	.LVL363:
 7477               	.L530:
 7478               	.LBE5351:
 7479               	.LBE5350:
 7480               	.LBE5340:
 7481               	.LBB5353:
 7482               	.LBB5354:
 7483               	.LSM853:
 7484 02be 8091 0000 		lds r24,AlarmToTimerC__0__m_oneshot
 7485               	.LVL364:
 7486 02c2 8823      		tst r24
 7487 02c4 01F4      		brne .L559
 7488               	.LSM854:
 7489 02c6 2091 0000 		lds r18,AlarmToTimerC__0__m_dt
 7490 02ca 3091 0000 		lds r19,(AlarmToTimerC__0__m_dt)+1
 7491 02ce 4091 0000 		lds r20,(AlarmToTimerC__0__m_dt)+2
 7492 02d2 5091 0000 		lds r21,(AlarmToTimerC__0__m_dt)+3
 7493               	.LBB5355:
 7494               	.LBB5356:
 7495               	.LBB5357:
 7496               	.LBB5358:
 7497               	.LBB5359:
 7498               	.LBB5360:
 7499               	.LBB5361:
 7500               	.LSM855:
 7501 02d6 EFB7      		in r30,95-0x20
 7502               	.LVL365:
 7503               	.LBB5362:
 7504               	.LBB5363:
 7505               	.LSM856:
 7506               	/* #APP */
 7507 02d8 F894      		cli
 7508               	/* #NOAPP */
 7509               	.LBE5363:
 7510               	.LBE5362:
 7511               	.LSM857:
 7512               	.LBE5361:
 7513               	.LBE5360:
 7514               	.LSM858:
 7515 02da FF27      		clr r31
 7516               	.LBB5364:
 7517 02dc 6091 0000 		lds r22,TransformAlarmC__0__m_t0
 7518 02e0 7091 0000 		lds r23,(TransformAlarmC__0__m_t0)+1
 7519 02e4 8091 0000 		lds r24,(TransformAlarmC__0__m_t0)+2
 7520 02e8 9091 0000 		lds r25,(TransformAlarmC__0__m_t0)+3
 7521 02ec E090 0000 		lds r14,TransformAlarmC__0__m_dt
 7522 02f0 F090 0000 		lds r15,(TransformAlarmC__0__m_dt)+1
 7523 02f4 0091 0000 		lds r16,(TransformAlarmC__0__m_dt)+2
 7524 02f8 1091 0000 		lds r17,(TransformAlarmC__0__m_dt)+3
 7525 02fc 6E0D      		add r22,r14
 7526 02fe 7F1D      		adc r23,r15
 7527 0300 801F      		adc r24,r16
 7528 0302 911F      		adc r25,r17
 7529               	.LBB5365:
 7530               	.LBB5366:
 7531               	.LSM859:
 7532               	.LSM860:
 7533 0304 EFBF      		out 95-0x20,r30
 7534               	.LBE5366:
 7535               	.LBE5365:
 7536               	.LBE5364:
 7537               	.LBE5359:
 7538               	.LBE5358:
 7539               	.LBE5357:
 7540               	.LBE5356:
 7541               	.LBE5355:
 7542               	.LSM861:
 7543 0306 00E0      		ldi r16,lo8(0)
 7544 0308 0E94 0000 		call AlarmToTimerC__0__start
 7545               	.LVL366:
 7546               	.L559:
 7547               	.LBB5367:
 7548               	.LBB5368:
 7549               	.LBB5369:
 7550               	.LSM862:
 7551 030c 0E94 0000 		call VirtualizeTimerC__0__TimerFrom__getNow
 7552 0310 00C0      		rjmp .L635
 7553               	.LVL367:
 7554               	.L531:
 7555               	.LBE5369:
 7556               	.LBE5368:
 7557               	.LBE5367:
 7558               	.LBE5354:
 7559               	.LBE5353:
 7560               	.LBB5370:
 7561               	.LSM863:
 7562 0312 0E94 0000 		call VirtualizeTimerC__0__TimerFrom__getNow
 7563               	.LVL368:
 7564 0316 5B01      		movw r10,r22
 7565 0318 6C01      		movw r12,r24
 7566               	.LVL369:
 7567               	.LBB5371:
 7568               	.LBB5372:
 7569               	.LBB5373:
 7570               	.LBB5374:
 7571               	.LBB5375:
 7572               	.LBB5376:
 7573               	.LBB5377:
 7574               	.LBB5378:
 7575               	.LBB5379:
 7576               	.LBB5380:
 7577               	.LBB5381:
 7578               	.LBB5382:
 7579               	.LBB5383:
 7580               	.LBB5384:
 7581               	.LBB5385:
 7582               	.LBB5386:
 7583               	.LBB5387:
 7584               	.LSM864:
 7585 031a 8091 DF00 		lds r24,223
 7586 031e 8E7F      		andi r24,lo8(-2)
 7587 0320 8093 DF00 		sts 223,r24
 7588               	.LBB5388:
 7589               	.LBB5389:
 7590               	.LBB5390:
 7591               	.LBB5391:
 7592               	.LSM865:
 7593 0324 8FEF      		ldi r24,lo8(-1)
 7594 0326 8093 0000 		sts McuSleepC__powerState,r24
 7595 032a 2FEF      		ldi r18,lo8(2147483647)
 7596 032c 3FEF      		ldi r19,hi8(2147483647)
 7597 032e 4FEF      		ldi r20,hlo8(2147483647)
 7598 0330 5FE7      		ldi r21,hhi8(2147483647)
 7599               	.LVL370:
 7600 0332 60E0      		ldi r22,lo8(0)
 7601               	.LVL371:
 7602 0334 E0E0      		ldi r30,lo8(VirtualizeTimerC__0__m_timers)
 7603 0336 F0E0      		ldi r31,hi8(VirtualizeTimerC__0__m_timers)
 7604               	.LVL372:
 7605               	.L561:
 7606               	.LBE5391:
 7607               	.LBE5390:
 7608               	.LBE5389:
 7609               	.LBE5388:
 7610               	.LBE5387:
 7611               	.LBE5386:
 7612               	.LBE5385:
 7613               	.LBE5384:
 7614               	.LBE5383:
 7615               	.LBE5382:
 7616               	.LBE5381:
 7617               	.LBE5380:
 7618               	.LBE5379:
 7619               	.LBE5378:
 7620               	.LBE5377:
 7621               	.LBE5376:
 7622               	.LBE5375:
 7623               	.LBE5374:
 7624               	.LBE5373:
 7625               	.LBE5372:
 7626               	.LBB5392:
 7627               	.LSM866:
 7628 0338 8085      		ldd r24,Z+8
 7629 033a 81FF      		sbrs r24,1
 7630 033c 00C0      		rjmp .L562
 7631               	.LBB5393:
 7632               	.LSM867:
 7633 033e 8081      		ld r24,Z
 7634 0340 9181      		ldd r25,Z+1
 7635 0342 A281      		ldd r26,Z+2
 7636 0344 B381      		ldd r27,Z+3
 7637 0346 8601      		movw r16,r12
 7638 0348 7501      		movw r14,r10
 7639               	.LVL373:
 7640 034a E81A      		sub r14,r24
 7641 034c F90A      		sbc r15,r25
 7642 034e 0A0B      		sbc r16,r26
 7643 0350 1B0B      		sbc r17,r27
 7644 0352 D801      		movw r26,r16
 7645 0354 C701      		movw r24,r14
 7646 0356 E480      		ldd r14,Z+4
 7647 0358 F580      		ldd r15,Z+5
 7648 035a 0681      		ldd r16,Z+6
 7649 035c 1781      		ldd r17,Z+7
 7650               	.LVL374:
 7651 035e E81A      		sub r14,r24
 7652 0360 F90A      		sbc r15,r25
 7653 0362 0A0B      		sbc r16,r26
 7654 0364 1B0B      		sbc r17,r27
 7655               	.LSM868:
 7656 0366 E216      		cp r14,r18
 7657 0368 F306      		cpc r15,r19
 7658 036a 0407      		cpc r16,r20
 7659 036c 1507      		cpc r17,r21
 7660 036e 04F4      		brge .L562
 7661 0370 A801      		movw r20,r16
 7662 0372 9701      		movw r18,r14
 7663 0374 61E0      		ldi r22,lo8(1)
 7664               	.L562:
 7665 0376 3996      		adiw r30,9
 7666               	.LBE5393:
 7667               	.LBE5392:
 7668               	.LSM869:
 7669 0378 00E0      		ldi r16,hi8(VirtualizeTimerC__0__m_timers+36)
 7670 037a E030      		cpi r30,lo8(VirtualizeTimerC__0__m_timers+36)
 7671 037c F007      		cpc r31,r16
 7672 037e 01F4      		brne .L561
 7673               	.LSM870:
 7674 0380 6623      		tst r22
 7675 0382 01F4      		brne .+2
 7676 0384 00C0      		rjmp .L618
 7677               	.LSM871:
 7678 0386 1216      		cp __zero_reg__,r18
 7679 0388 1306      		cpc __zero_reg__,r19
 7680 038a 1406      		cpc __zero_reg__,r20
 7681 038c 1506      		cpc __zero_reg__,r21
 7682 038e 04F0      		brlt .L567
 7683               	.LSM872:
 7684 0390 C601      		movw r24,r12
 7685 0392 B501      		movw r22,r10
 7686               	.LVL375:
 7687               	.L635:
 7688 0394 0E94 0000 		call VirtualizeTimerC__0__fireTimers
 7689               	.LVL376:
 7690 0398 00C0      		rjmp .L618
 7691               	.LVL377:
 7692               	.L567:
 7693               	.LBB5394:
 7694               	.LBB5395:
 7695               	.LBB5396:
 7696               	.LBB5397:
 7697               	.LSM873:
 7698 039a 01E0      		ldi r16,lo8(1)
 7699 039c C601      		movw r24,r12
 7700 039e B501      		movw r22,r10
 7701               	.LVL378:
 7702 03a0 0E94 0000 		call AlarmToTimerC__0__start
 7703               	.LVL379:
 7704 03a4 00C0      		rjmp .L618
 7705               	.LVL380:
 7706               	.L623:
 7707               	.LBE5397:
 7708               	.LBE5396:
 7709               	.LBE5395:
 7710               	.LBE5394:
 7711               	.LBE5371:
 7712               	.LBE5370:
 7713               	.LBB5398:
 7714               	.LBB5399:
 7715               	.LBB5400:
 7716               	.LBB5401:
 7717               	.LBB5402:
 7718               	.LSM874:
 7719 03a6 8FB7      		in r24,95-0x20
 7720               	.LVL381:
 7721               	.LBB5403:
 7722               	.LBB5404:
 7723               	.LSM875:
 7724               	/* #APP */
 7725 03a8 F894      		cli
 7726               	/* #NOAPP */
 7727               	.LBE5404:
 7728               	.LBE5403:
 7729               	.LSM876:
 7730               	.LBE5402:
 7731               	.LBE5401:
 7732               	.LSM877:
 7733 03aa 9927      		clr r25
 7734               	.LSM878:
 7735 03ac 2091 0000 		lds r18,ArbiterP__0__reqResId
 7736 03b0 2093 0000 		sts ArbiterP__0__resId,r18
 7737               	.LSM879:
 7738 03b4 23E0      		ldi r18,lo8(3)
 7739 03b6 2093 0000 		sts ArbiterP__0__state,r18
 7740               	.LBB5405:
 7741               	.LBB5406:
 7742               	.LSM880:
 7743               	.LSM881:
 7744 03ba 8FBF      		out 95-0x20,r24
 7745               	.LBE5406:
 7746               	.LBE5405:
 7747               	.LBE5400:
 7748               	.LBB5407:
 7749               	.LBB5408:
 7750               	.LSM882:
 7751 03bc 8091 0000 		lds r24,ArbiterP__0__resId
 7752               	.LVL382:
 7753 03c0 8130      		cpi r24,lo8(1)
 7754 03c2 01F0      		breq .L570
 7755 03c4 8130      		cpi r24,lo8(1)
 7756 03c6 00F0      		brlo .L569
 7757 03c8 8230      		cpi r24,lo8(2)
 7758 03ca 01F0      		breq .+2
 7759 03cc 00C0      		rjmp .L618
 7760 03ce 00C0      		rjmp .L571
 7761               	.L569:
 7762 03d0 80E0      		ldi r24,lo8(0)
 7763 03d2 00C0      		rjmp .L636
 7764               	.L570:
 7765 03d4 81E0      		ldi r24,lo8(1)
 7766               	.L636:
 7767 03d6 0E94 0000 		call ArbitratedReadC__0__Resource__granted
 7768 03da 00C0      		rjmp .L618
 7769               	.L571:
 7770 03dc 82E0      		ldi r24,lo8(2)
 7771 03de 00C0      		rjmp .L636
 7772               	.LVL383:
 7773               	.L533:
 7774               	.LBE5408:
 7775               	.LBE5407:
 7776               	.LBE5399:
 7777               	.LBE5398:
 7778               	.LBB5409:
 7779               	.LBB5410:
 7780               	.LSM883:
 7781 03e0 1092 0000 		sts AdcP__state,__zero_reg__
 7782               	.LSM884:
 7783 03e4 E090 0000 		lds r14,AdcP__val
 7784 03e8 F090 0000 		lds r15,(AdcP__val)+1
 7785               	.LVL384:
 7786 03ec 8091 0000 		lds r24,AdcP__client
 7787               	.LVL385:
 7788               	.LBB5411:
 7789               	.LBB5412:
 7790               	.LBB5413:
 7791               	.LBB5414:
 7792               	.LBB5415:
 7793               	.LBB5416:
 7794               	.LSM885:
 7795 03f0 8130      		cpi r24,lo8(1)
 7796 03f2 01F0      		breq .L574
 7797 03f4 8130      		cpi r24,lo8(1)
 7798 03f6 00F0      		brlo .L573
 7799 03f8 8230      		cpi r24,lo8(2)
 7800 03fa 01F4      		brne .L626
 7801 03fc 00C0      		rjmp .L575
 7802               	.L573:
 7803               	.LBE5416:
 7804 03fe 80E0      		ldi r24,lo8(0)
 7805               	.LVL386:
 7806 0400 0E94 0000 		call ArbiterP__0__Resource__release
 7807 0404 00C0      		rjmp .L576
 7808               	.LVL387:
 7809               	.L574:
 7810 0406 81E0      		ldi r24,lo8(1)
 7811               	.LVL388:
 7812 0408 0E94 0000 		call ArbiterP__0__Resource__release
 7813 040c 00C0      		rjmp .L577
 7814               	.LVL389:
 7815               	.L575:
 7816 040e 82E0      		ldi r24,lo8(2)
 7817               	.LVL390:
 7818 0410 0E94 0000 		call ArbiterP__0__Resource__release
 7819 0414 00C0      		rjmp .L578
 7820               	.LVL391:
 7821               	.L626:
 7822               	.LBE5415:
 7823               	.LBB5417:
 7824               	.LBB5418:
 7825               	.LSM886:
 7826 0416 8130      		cpi r24,lo8(1)
 7827 0418 01F4      		brne .+2
 7828 041a 00C0      		rjmp .L577
 7829 041c 8130      		cpi r24,lo8(1)
 7830 041e 00F0      		brlo .L576
 7831 0420 8230      		cpi r24,lo8(2)
 7832 0422 01F0      		breq .+2
 7833 0424 00C0      		rjmp .L618
 7834 0426 00C0      		rjmp .L578
 7835               	.L576:
 7836               	.LBB5419:
 7837               	.LBB5420:
 7838               	.LSM887:
 7839 0428 B701      		movw r22,r14
 7840 042a 8827      		clr r24
 7841 042c 77FD      		sbrc r23,7
 7842 042e 8095      		com r24
 7843 0430 982F      		mov r25,r24
 7844 0432 0E94 0000 		call __floatsisf
 7845               	.LVL392:
 7846 0436 F7FE      		sbrs r15,7
 7847 0438 00C0      		rjmp .L579
 7848 043a 20E0      		ldi r18,lo8(0x47800000)
 7849 043c 30E0      		ldi r19,hi8(0x47800000)
 7850 043e 40E8      		ldi r20,hlo8(0x47800000)
 7851 0440 57E4      		ldi r21,hhi8(0x47800000)
 7852 0442 0E94 0000 		call __addsf3
 7853               	.L579:
 7854 0446 20E0      		ldi r18,lo8(0x42e20000)
 7855 0448 30E0      		ldi r19,hi8(0x42e20000)
 7856 044a 42EE      		ldi r20,hlo8(0x42e20000)
 7857 044c 52E4      		ldi r21,hhi8(0x42e20000)
 7858 044e 0E94 0000 		call __mulsf3
 7859 0452 20E0      		ldi r18,lo8(0x46d4a800)
 7860 0454 38EA      		ldi r19,hi8(0x46d4a800)
 7861 0456 44ED      		ldi r20,hlo8(0x46d4a800)
 7862 0458 56E4      		ldi r21,hhi8(0x46d4a800)
 7863 045a 0E94 0000 		call __subsf3
 7864 045e 0E94 0000 		call __fixunssfsi
 7865 0462 8B01      		movw r16,r22
 7866 0464 9C01      		movw r18,r24
 7867               	.LSM888:
 7868 0466 7E01      		movw r14,r28
 7869               	.LVL393:
 7870 0468 0894      		sec
 7871 046a E11C      		adc r14,__zero_reg__
 7872 046c F11C      		adc r15,__zero_reg__
 7873               	.LBE5420:
 7874 046e CB01      		movw r24,r22
 7875               	.LVL394:
 7876 0470 64E6      		ldi r22,lo8(100)
 7877 0472 70E0      		ldi r23,hi8(100)
 7878               	.LVL395:
 7879 0474 0E94 0000 		call __udivmodhi4
 7880 0478 9F93      		push r25
 7881 047a 8F93      		push r24
 7882 047c C801      		movw r24,r16
 7883               	.LVL396:
 7884 047e 64E6      		ldi r22,lo8(100)
 7885 0480 70E0      		ldi r23,hi8(100)
 7886               	.LVL397:
 7887 0482 0E94 0000 		call __udivmodhi4
 7888 0486 7F93      		push r23
 7889 0488 6F93      		push r22
 7890 048a 80E0      		ldi r24,lo8(.LC7)
 7891 048c 90E0      		ldi r25,hi8(.LC7)
 7892 048e 9F93      		push r25
 7893 0490 8F93      		push r24
 7894 0492 FF92      		push r15
 7895 0494 EF92      		push r14
 7896 0496 0E94 0000 		call sprintf
 7897               	.LBB5421:
 7898               	.LSM889:
 7899 049a 9927      		clr r25
 7900 049c BC01      		movw r22,r24
 7901 049e C701      		movw r24,r14
 7902 04a0 0E94 0000 		call BlinkC__SerialStream__send
 7903               	.LSM890:
 7904 04a4 0E94 0000 		call BlinkC__Leds__led1Toggle
 7905 04a8 8DB7      		in r24,__SP_L__
 7906 04aa 9EB7      		in r25,__SP_H__
 7907 04ac 0896      		adiw r24,8
 7908               	.L633:
 7909 04ae 0FB6      		in __tmp_reg__,__SREG__
 7910 04b0 F894      		cli
 7911 04b2 9EBF      		out __SP_H__,r25
 7912 04b4 0FBE      		out __SREG__,__tmp_reg__
 7913 04b6 8DBF      		out __SP_L__,r24
 7914 04b8 00C0      		rjmp .L618
 7915               	.LVL398:
 7916               	.L577:
 7917               	.LBE5421:
 7918               	.LBE5419:
 7919               	.LBB5422:
 7920               	.LBB5423:
 7921               	.LSM891:
 7922 04ba 8E01      		movw r16,r28
 7923 04bc 0F5F      		subi r16,lo8(-(1))
 7924 04be 1F4F      		sbci r17,hi8(-(1))
 7925               	.LBE5423:
 7926 04c0 FF92      		push r15
 7927 04c2 EF92      		push r14
 7928 04c4 80E0      		ldi r24,lo8(.LC8)
 7929 04c6 90E0      		ldi r25,hi8(.LC8)
 7930               	.LVL399:
 7931 04c8 9F93      		push r25
 7932 04ca 8F93      		push r24
 7933 04cc 1F93      		push r17
 7934 04ce 0F93      		push r16
 7935 04d0 0E94 0000 		call sprintf
 7936               	.LBB5424:
 7937               	.LSM892:
 7938 04d4 9927      		clr r25
 7939 04d6 BC01      		movw r22,r24
 7940 04d8 C801      		movw r24,r16
 7941 04da 0E94 0000 		call BlinkC__SerialStream__send
 7942               	.LSM893:
 7943 04de 0E94 0000 		call BlinkC__Leds__led2Toggle
 7944               	.L634:
 7945 04e2 EDB7      		in r30,__SP_L__
 7946 04e4 FEB7      		in r31,__SP_H__
 7947 04e6 3696      		adiw r30,6
 7948 04e8 0FB6      		in __tmp_reg__,__SREG__
 7949 04ea F894      		cli
 7950 04ec FEBF      		out __SP_H__,r31
 7951 04ee 0FBE      		out __SREG__,__tmp_reg__
 7952 04f0 EDBF      		out __SP_L__,r30
 7953 04f2 00C0      		rjmp .L618
 7954               	.LVL400:
 7955               	.L578:
 7956               	.LBE5424:
 7957               	.LBE5422:
 7958               	.LBB5425:
 7959               	.LBB5426:
 7960               	.LSM894:
 7961 04f4 8E01      		movw r16,r28
 7962 04f6 0F5F      		subi r16,lo8(-(1))
 7963 04f8 1F4F      		sbci r17,hi8(-(1))
 7964               	.LBE5426:
 7965 04fa FF92      		push r15
 7966 04fc EF92      		push r14
 7967 04fe 80E0      		ldi r24,lo8(.LC9)
 7968 0500 90E0      		ldi r25,hi8(.LC9)
 7969               	.LVL401:
 7970 0502 9F93      		push r25
 7971 0504 8F93      		push r24
 7972 0506 1F93      		push r17
 7973 0508 0F93      		push r16
 7974 050a 0E94 0000 		call sprintf
 7975               	.LBB5427:
 7976               	.LSM895:
 7977 050e 9927      		clr r25
 7978 0510 BC01      		movw r22,r24
 7979 0512 C801      		movw r24,r16
 7980 0514 0E94 0000 		call BlinkC__SerialStream__send
 7981               	.LSM896:
 7982 0518 0E94 0000 		call BlinkC__Leds__led2Toggle
 7983 051c 0DB7      		in r16,__SP_L__
 7984 051e 1EB7      		in r17,__SP_H__
 7985 0520 0A5F      		subi r16,lo8(-(6))
 7986 0522 1F4F      		sbci r17,hi8(-(6))
 7987               	.L632:
 7988 0524 0FB6      		in __tmp_reg__,__SREG__
 7989 0526 F894      		cli
 7990 0528 1EBF      		out __SP_H__,r17
 7991 052a 0FBE      		out __SREG__,__tmp_reg__
 7992 052c 0DBF      		out __SP_L__,r16
 7993 052e 00C0      		rjmp .L618
 7994               	.LVL402:
 7995               	.L534:
 7996               	.LBE5427:
 7997               	.LBE5425:
 7998               	.LBE5418:
 7999               	.LBE5417:
 8000               	.LBE5414:
 8001               	.LBE5413:
 8002               	.LBE5412:
 8003               	.LBE5411:
 8004               	.LBE5410:
 8005               	.LBE5409:
 8006               	.LBB5428:
 8007               	.LBB5429:
 8008               	.LBB5430:
 8009               	.LBB5431:
 8010               	.LBB5432:
 8011               	.LSM897:
 8012 0530 8FB7      		in r24,95-0x20
 8013               	.LVL403:
 8014               	.LBB5433:
 8015               	.LBB5434:
 8016               	.LSM898:
 8017               	/* #APP */
 8018 0532 F894      		cli
 8019               	/* #NOAPP */
 8020               	.LBE5434:
 8021               	.LBE5433:
 8022               	.LSM899:
 8023               	.LBE5432:
 8024               	.LBE5431:
 8025               	.LSM900:
 8026 0534 9927      		clr r25
 8027               	.LSM901:
 8028 0536 2091 0000 		lds r18,SimpleArbiterP__0__reqResId
 8029 053a 2093 0000 		sts SimpleArbiterP__0__resId,r18
 8030               	.LSM902:
 8031 053e 22E0      		ldi r18,lo8(2)
 8032 0540 2093 0000 		sts SimpleArbiterP__0__state,r18
 8033 0544 00C0      		rjmp .L637
 8034               	.LVL404:
 8035               	.L535:
 8036               	.LBE5430:
 8037               	.LBE5429:
 8038               	.LBE5428:
 8039               	.LBB5435:
 8040               	.LBB5436:
 8041               	.LSM903:
 8042 0546 E090 0000 		lds r14,PacketLinkLayerP__0__currentMsg
 8043 054a F090 0000 		lds r15,(PacketLinkLayerP__0__currentMsg)+1
 8044               	.LVL405:
 8045               	.LBB5437:
 8046               	.LSM904:
 8047 054e C701      		movw r24,r14
 8048               	.LVL406:
 8049 0550 0E94 0000 		call PacketLinkLayerP__0__getMeta
 8050 0554 6C01      		movw r12,r24
 8051               	.LBB5438:
 8052 0556 FC01      		movw r30,r24
 8053 0558 0081      		ld r16,Z
 8054 055a 1181      		ldd r17,Z+1
 8055               	.LVL407:
 8056               	.LBE5438:
 8057               	.LBE5437:
 8058               	.LSM905:
 8059 055c 8091 0000 		lds r24,PacketLinkLayerP__0__state
 8060 0560 8230      		cpi r24,lo8(2)
 8061 0562 01F4      		brne .L580
 8062               	.LSM906:
 8063 0564 0115      		cp r16,__zero_reg__
 8064 0566 1105      		cpc r17,__zero_reg__
 8065 0568 01F0      		breq .L582
 8066               	.LBB5439:
 8067               	.LBB5440:
 8068               	.LBB5441:
 8069               	.LBB5442:
 8070               	.LBB5443:
 8071               	.LSM907:
 8072 056a B701      		movw r22,r14
 8073 056c 80E0      		ldi r24,lo8(0)
 8074 056e 0E94 0000 		call MetadataFlagsLayerC__0__PacketFlag__get
 8075 0572 8823      		tst r24
 8076 0574 01F0      		breq .L584
 8077               	.L582:
 8078               	.LBE5443:
 8079               	.LBE5442:
 8080               	.LBE5441:
 8081               	.LBE5440:
 8082               	.LBE5439:
 8083               	.LSM908:
 8084 0576 84E0      		ldi r24,lo8(4)
 8085 0578 00C0      		rjmp .L630
 8086               	.L584:
 8087               	.LSM909:
 8088 057a 8091 0000 		lds r24,PacketLinkLayerP__0__totalRetries
 8089 057e 9091 0000 		lds r25,(PacketLinkLayerP__0__totalRetries)+1
 8090 0582 0196      		adiw r24,1
 8091 0584 9093 0000 		sts (PacketLinkLayerP__0__totalRetries)+1,r25
 8092 0588 8093 0000 		sts PacketLinkLayerP__0__totalRetries,r24
 8093 058c 8017      		cp r24,r16
 8094 058e 9107      		cpc r25,r17
 8095 0590 00F4      		brsh .L586
 8096               	.LBB5444:
 8097               	.LSM910:
 8098 0592 81E0      		ldi r24,lo8(1)
 8099 0594 8093 0000 		sts PacketLinkLayerP__0__state,r24
 8100               	.LBB5445:
 8101               	.LBB5446:
 8102               	.LSM911:
 8103 0598 F601      		movw r30,r12
 8104 059a 0281      		ldd r16,Z+2
 8105 059c 1381      		ldd r17,Z+3
 8106               	.LVL408:
 8107               	.LBE5446:
 8108               	.LBE5445:
 8109               	.LSM912:
 8110 059e 0115      		cp r16,__zero_reg__
 8111 05a0 1105      		cpc r17,__zero_reg__
 8112 05a2 01F0      		breq .L588
 8113               	.LBB5447:
 8114               	.LBB5448:
 8115               	.LBB5449:
 8116               	.LSM913:
 8117 05a4 0E94 0000 		call VirtualizeTimerC__0__TimerFrom__getNow
 8118 05a8 AB01      		movw r20,r22
 8119 05aa BC01      		movw r22,r24
 8120               	.LBB5450:
 8121 05ac 2227      		clr r18
 8122 05ae 3327      		clr r19
 8123 05b0 E1E0      		ldi r30,lo8(1)
 8124 05b2 EE2E      		mov r14,r30
 8125               	.LVL409:
 8126 05b4 83E0      		ldi r24,lo8(3)
 8127 05b6 0E94 0000 		call VirtualizeTimerC__0__startTimer
 8128 05ba 00C0      		rjmp .L618
 8129               	.LVL410:
 8130               	.L586:
 8131               	.LBE5450:
 8132               	.LBE5449:
 8133               	.LBE5448:
 8134               	.LBE5447:
 8135               	.LBE5444:
 8136               	.LSM914:
 8137 05bc 85E0      		ldi r24,lo8(5)
 8138               	.L630:
 8139 05be 8093 0000 		sts PacketLinkLayerP__0__state,r24
 8140               	.LSM915:
 8141 05c2 8091 0000 		lds r24,PacketLinkLayerP__0__state
 8142 05c6 00C0      		rjmp .L590
 8143               	.L580:
 8144 05c8 8130      		cpi r24,lo8(1)
 8145 05ca 01F4      		brne .L590
 8146               	.LVL411:
 8147               	.L588:
 8148               	.LSM916:
 8149 05cc 82E0      		ldi r24,lo8(2)
 8150 05ce 8093 0000 		sts PacketLinkLayerP__0__state,r24
 8151               	.LBB5451:
 8152               	.LBB5452:
 8153               	.LBB5453:
 8154               	.LBB5454:
 8155               	.LSM917:
 8156 05d2 0E94 0000 		call MessageBufferLayerP__0__Tasklet__suspend
 8157               	.LSM918:
 8158 05d6 8091 0000 		lds r24,MessageBufferLayerP__0__state
 8159 05da 8823      		tst r24
 8160 05dc 01F4      		brne .L591
 8161               	.LSM919:
 8162 05de F092 0000 		sts (MessageBufferLayerP__0__txMsg)+1,r15
 8163 05e2 E092 0000 		sts MessageBufferLayerP__0__txMsg,r14
 8164               	.LSM920:
 8165 05e6 81E0      		ldi r24,lo8(1)
 8166 05e8 8093 0000 		sts MessageBufferLayerP__0__state,r24
 8167               	.LSM921:
 8168 05ec 1092 0000 		sts MessageBufferLayerP__0__retries,__zero_reg__
 8169               	.LSM922:
 8170 05f0 0E94 0000 		call MessageBufferLayerP__0__sendTask__postTask
 8171 05f4 00C0      		rjmp .L606
 8172               	.L591:
 8173               	.LSM923:
 8174 05f6 0E94 0000 		call MessageBufferLayerP__0__Tasklet__resume
 8175 05fa 00C0      		rjmp .L608
 8176               	.LVL412:
 8177               	.L590:
 8178               	.LBE5454:
 8179               	.LBE5453:
 8180               	.LBE5452:
 8181               	.LBE5451:
 8182               	.LSM924:
 8183 05fc 8430      		cpi r24,lo8(4)
 8184 05fe 00F4      		brsh .+2
 8185 0600 00C0      		rjmp .L618
 8186               	.LBB5455:
 8187               	.LSM925:
 8188 0602 012B      		or r16,r17
 8189 0604 01F0      		breq .L594
 8190               	.LBB5456:
 8191               	.LBB5457:
 8192               	.LSM926:
 8193 0606 8091 0000 		lds r24,PacketLinkLayerP__0__totalRetries
 8194 060a 9091 0000 		lds r25,(PacketLinkLayerP__0__totalRetries)+1
 8195 060e F601      		movw r30,r12
 8196 0610 9183      		std Z+1,r25
 8197 0612 8083      		st Z,r24
 8198               	.L594:
 8199               	.LBE5457:
 8200               	.LBE5456:
 8201               	.LSM927:
 8202 0614 1092 0000 		sts PacketLinkLayerP__0__state,__zero_reg__
 8203 0618 00C0      		rjmp .L618
 8204               	.LVL413:
 8205               	.L536:
 8206               	.LBE5455:
 8207               	.LBE5436:
 8208               	.LBE5435:
 8209               	.LBB5458:
 8210               	.LBB5459:
 8211               	.LSM928:
 8212 061a 8091 0000 		lds r24,MessageBufferLayerP__0__state
 8213               	.LVL414:
 8214               	.LSM929:
 8215 061e 1092 0000 		sts MessageBufferLayerP__0__state,__zero_reg__
 8216               	.LSM930:
 8217 0622 8530      		cpi r24,lo8(5)
 8218 0624 01F4      		brne .+2
 8219 0626 00C0      		rjmp .L618
 8220               	.LSM931:
 8221 0628 8630      		cpi r24,lo8(6)
 8222 062a 01F4      		brne .+2
 8223 062c 00C0      		rjmp .L618
 8224               	.LSM932:
 8225 062e 8730      		cpi r24,lo8(7)
 8226 0630 01F4      		brne .+2
 8227 0632 00C0      		rjmp .L618
 8228               	.LSM933:
 8229 0634 8093 0000 		sts MessageBufferLayerP__0__state,r24
 8230 0638 00C0      		rjmp .L618
 8231               	.LVL415:
 8232               	.L537:
 8233               	.LBE5459:
 8234               	.LBE5458:
 8235               	.LBB5460:
 8236               	.LBB5461:
 8237               	.LSM934:
 8238 063a 0E94 0000 		call MessageBufferLayerP__0__Tasklet__suspend
 8239               	.LVL416:
 8240               	.LSM935:
 8241 063e 4091 0000 		lds r20,MessageBufferLayerP__0__state
 8242 0642 4130      		cpi r20,lo8(1)
 8243 0644 01F4      		brne .L599
 8244 0646 8091 0000 		lds r24,MessageBufferLayerP__0__retries
 8245 064a 8F5F      		subi r24,lo8(-(1))
 8246 064c 8093 0000 		sts MessageBufferLayerP__0__retries,r24
 8247 0650 8630      		cpi r24,lo8(6)
 8248 0652 00F4      		brsh .L599
 8249               	.LSM936:
 8250 0654 2091 0000 		lds r18,MessageBufferLayerP__0__txMsg
 8251 0658 3091 0000 		lds r19,(MessageBufferLayerP__0__txMsg)+1
 8252               	.LVL417:
 8253               	.LBB5462:
 8254               	.LBB5463:
 8255               	.LBB5464:
 8256               	.LBB5465:
 8257               	.LSM937:
 8258 065c 8091 0000 		lds r24,RandomCollisionLayerP__0__state
 8259 0660 8823      		tst r24
 8260 0662 01F4      		brne .L602
 8261 0664 90E0      		ldi r25,lo8(0)
 8262 0666 8091 0000 		lds r24,RadioAlarmP__0__state
 8263 066a 8823      		tst r24
 8264 066c 01F4      		brne .L604
 8265 066e 91E0      		ldi r25,lo8(1)
 8266               	.L604:
 8267 0670 9923      		tst r25
 8268 0672 01F0      		breq .L602
 8269               	.LSM938:
 8270 0674 3093 0000 		sts (RandomCollisionLayerP__0__txMsg)+1,r19
 8271 0678 2093 0000 		sts RandomCollisionLayerP__0__txMsg,r18
 8272               	.LSM939:
 8273 067c 4093 0000 		sts RandomCollisionLayerP__0__state,r20
 8274               	.LBE5465:
 8275               	.LSM940:
 8276 0680 86E3      		ldi r24,lo8(310)
 8277 0682 91E0      		ldi r25,hi8(310)
 8278 0684 0E94 0000 		call RandomCollisionLayerP__0__getBackoff
 8279               	.LVL418:
 8280               	.LBB5466:
 8281 0688 AA27      		clr r26
 8282 068a BB27      		clr r27
 8283 068c BC01      		movw r22,r24
 8284 068e CD01      		movw r24,r26
 8285 0690 0E94 0000 		call RandomCollisionLayerP__0__RadioAlarm__wait
 8286               	.LBE5466:
 8287               	.LBE5464:
 8288               	.LBE5463:
 8289               	.LBE5462:
 8290               	.LSM941:
 8291 0694 1092 0000 		sts MessageBufferLayerP__0__txError,__zero_reg__
 8292               	.LSM942:
 8293 0698 83E0      		ldi r24,lo8(3)
 8294 069a 00C0      		rjmp .L629
 8295               	.LVL419:
 8296               	.L602:
 8297               	.LSM943:
 8298 069c 85E0      		ldi r24,lo8(5)
 8299 069e 8093 0000 		sts MessageBufferLayerP__0__txError,r24
 8300               	.LSM944:
 8301 06a2 82E0      		ldi r24,lo8(2)
 8302               	.L629:
 8303 06a4 8093 0000 		sts MessageBufferLayerP__0__state,r24
 8304 06a8 00C0      		rjmp .L606
 8305               	.LVL420:
 8306               	.L599:
 8307               	.LSM945:
 8308 06aa 1092 0000 		sts MessageBufferLayerP__0__state,__zero_reg__
 8309               	.LSM946:
 8310 06ae 0E94 0000 		call MessageBufferLayerP__0__Tasklet__resume
 8311               	.LSM947:
 8312 06b2 8091 0000 		lds r24,MessageBufferLayerP__0__txError
 8313               	.LVL421:
 8314               	.LBB5467:
 8315               	.LBB5468:
 8316               	.LBB5469:
 8317               	.LBB5470:
 8318               	.LSM948:
 8319 06b6 8823      		tst r24
 8320 06b8 01F4      		brne .L607
 8321 06ba 00C0      		rjmp .L608
 8322               	.LVL422:
 8323               	.L606:
 8324               	.LBE5470:
 8325               	.LBE5469:
 8326               	.LBE5468:
 8327               	.LBE5467:
 8328               	.LSM949:
 8329 06bc 0E94 0000 		call MessageBufferLayerP__0__Tasklet__resume
 8330               	.LVL423:
 8331 06c0 00C0      		rjmp .L618
 8332               	.LVL424:
 8333               	.L607:
 8334               	.LBB5471:
 8335               	.LBB5472:
 8336               	.LBB5473:
 8337               	.LBB5474:
 8338               	.LSM950:
 8339 06c2 8C5F      		subi r24,lo8(-(4))
 8340 06c4 8093 0000 		sts PacketLinkLayerP__0__state,r24
 8341               	.LVL425:
 8342               	.L608:
 8343               	.LSM951:
 8344 06c8 0E94 0000 		call PacketLinkLayerP__0__send__postTask
 8345               	.LVL426:
 8346 06cc 00C0      		rjmp .L618
 8347               	.LVL427:
 8348               	.L627:
 8349               	.LBE5474:
 8350               	.LBE5473:
 8351               	.LBE5472:
 8352               	.LBE5471:
 8353               	.LBE5461:
 8354               	.LBE5460:
 8355               	.LBB5475:
 8356               	.LBB5476:
 8357               	.LBB5477:
 8358               	.LBB5478:
 8359               	.LBB5479:
 8360               	.LBB5480:
 8361               	.LSM952:
 8362 06ce 8FB7      		in r24,95-0x20
 8363               	.LVL428:
 8364               	.LBB5481:
 8365               	.LBB5482:
 8366               	.LSM953:
 8367               	/* #APP */
 8368 06d0 F894      		cli
 8369               	/* #NOAPP */
 8370               	.LBE5482:
 8371               	.LBE5481:
 8372               	.LSM954:
 8373               	.LBE5480:
 8374               	.LBE5479:
 8375               	.LSM955:
 8376 06d2 282F      		mov r18,r24
 8377 06d4 3327      		clr r19
 8378               	.LSM956:
 8379 06d6 8091 0000 		lds r24,MessageBufferLayerP__0__receiveQueueSize
 8380               	.LVL429:
 8381 06da 8823      		tst r24
 8382 06dc 01F4      		brne .+2
 8383 06de 00C0      		rjmp .L619
 8384               	.LSM957:
 8385 06e0 E091 0000 		lds r30,MessageBufferLayerP__0__receiveQueueHead
 8386 06e4 FF27      		clr r31
 8387 06e6 EE0F      		lsl r30
 8388 06e8 FF1F      		rol r31
 8389 06ea E050      		subi r30,lo8(-(MessageBufferLayerP__0__receiveQueue))
 8390 06ec F040      		sbci r31,hi8(-(MessageBufferLayerP__0__receiveQueue))
 8391 06ee 0081      		ld r16,Z
 8392 06f0 1181      		ldd r17,Z+1
 8393               	.LBB5483:
 8394               	.LBB5484:
 8395               	.LSM958:
 8396               	.LSM959:
 8397 06f2 2FBF      		out 95-0x20,r18
 8398               	.LBE5484:
 8399               	.LBE5483:
 8400               	.LBE5478:
 8401               	.LBB5485:
 8402               	.LBB5486:
 8403               	.LBB5487:
 8404               	.LBB5488:
 8405               	.LBB5489:
 8406               	.LBB5490:
 8407               	.LBB5491:
 8408               	.LBB5492:
 8409               	.LBB5493:
 8410               	.LBB5494:
 8411               	.LBB5495:
 8412               	.LSM960:
 8413 06f4 C801      		movw r24,r16
 8414 06f6 0E94 0000 		call Ieee154PacketLayerP__0__Ieee154PacketLayer__getDestAddr
 8415               	.LVL430:
 8416               	.LBB5496:
 8417               	.LBB5497:
 8418               	.LBB5498:
 8419               	.LBB5499:
 8420               	.LBB5500:
 8421               	.LBB5501:
 8422               	.LBB5502:
 8423               	.LBB5503:
 8424               	.LBB5504:
 8425               	.LBB5505:
 8426               	.LBB5506:
 8427               	.LBB5507:
 8428               	.LSM961:
 8429 06fa 8FB7      		in r24,95-0x20
 8430               	.LVL431:
 8431               	.LBB5508:
 8432               	.LBB5509:
 8433               	.LSM962:
 8434               	/* #APP */
 8435 06fc F894      		cli
 8436               	/* #NOAPP */
 8437               	.LBE5509:
 8438               	.LBE5508:
 8439               	.LSM963:
 8440               	.LBE5507:
 8441               	.LBE5506:
 8442               	.LSM964:
 8443 06fe 9927      		clr r25
 8444               	.LBB5510:
 8445               	.LBB5511:
 8446               	.LSM965:
 8447               	.LSM966:
 8448 0700 8FBF      		out 95-0x20,r24
 8449               	.LBE5511:
 8450               	.LBE5510:
 8451               	.LBE5505:
 8452               	.LBE5504:
 8453               	.LBE5503:
 8454               	.LBE5502:
 8455               	.LBE5501:
 8456               	.LBE5500:
 8457               	.LBE5499:
 8458               	.LBE5498:
 8459               	.LBE5497:
 8460               	.LBE5496:
 8461               	.LBE5495:
 8462               	.LBE5494:
 8463               	.LBE5493:
 8464               	.LBE5492:
 8465               	.LBE5491:
 8466               	.LBE5490:
 8467               	.LBE5489:
 8468               	.LBE5488:
 8469               	.LBE5487:
 8470               	.LBE5486:
 8471               	.LBE5485:
 8472               	.LBB5512:
 8473               	.LBB5513:
 8474               	.LBB5514:
 8475               	.LSM967:
 8476 0702 9FB7      		in r25,95-0x20
 8477               	.LVL432:
 8478               	.LBB5515:
 8479               	.LBB5516:
 8480               	.LSM968:
 8481               	/* #APP */
 8482 0704 F894      		cli
 8483               	/* #NOAPP */
 8484               	.LBE5516:
 8485               	.LBE5515:
 8486               	.LSM969:
 8487               	.LBE5514:
 8488               	.LBE5513:
 8489               	.LSM970:
 8490 0706 8091 0000 		lds r24,MessageBufferLayerP__0__receiveQueueHead
 8491               	.LVL433:
 8492 070a E82F      		mov r30,r24
 8493 070c FF27      		clr r31
 8494 070e EE0F      		lsl r30
 8495 0710 FF1F      		rol r31
 8496 0712 E050      		subi r30,lo8(-(MessageBufferLayerP__0__receiveQueue))
 8497 0714 F040      		sbci r31,hi8(-(MessageBufferLayerP__0__receiveQueue))
 8498 0716 1183      		std Z+1,r17
 8499 0718 0083      		st Z,r16
 8500               	.LSM971:
 8501 071a 8F5F      		subi r24,lo8(-(1))
 8502 071c 8093 0000 		sts MessageBufferLayerP__0__receiveQueueHead,r24
 8503 0720 8330      		cpi r24,lo8(3)
 8504 0722 00F0      		brlo .L614
 8505               	.LSM972:
 8506 0724 1092 0000 		sts MessageBufferLayerP__0__receiveQueueHead,__zero_reg__
 8507               	.L614:
 8508               	.LSM973:
 8509 0728 8091 0000 		lds r24,MessageBufferLayerP__0__receiveQueueSize
 8510 072c 8150      		subi r24,lo8(-(-1))
 8511 072e 8093 0000 		sts MessageBufferLayerP__0__receiveQueueSize,r24
 8512               	.LBB5517:
 8513               	.LBB5518:
 8514               	.LSM974:
 8515               	.LBE5518:
 8516               	.LBE5517:
 8517               	.LSM975:
 8518 0732 892F      		mov r24,r25
 8519 0734 9927      		clr r25
 8520               	.LBB5519:
 8521               	.LBB5520:
 8522               	.LSM976:
 8523 0736 8FBF      		out 95-0x20,r24
 8524 0738 00C0      		rjmp .L627
 8525               	.LVL434:
 8526               	.L539:
 8527               	.LBE5520:
 8528               	.LBE5519:
 8529               	.LBE5512:
 8530               	.LBE5477:
 8531               	.LBE5476:
 8532               	.LBE5475:
 8533               	.LBB5521:
 8534               	.LBB5522:
 8535               	.LBB5523:
 8536               	.LBB5524:
 8537               	.LBB5525:
 8538               	.LBB5526:
 8539               	.LBB5527:
 8540               	.LBB5528:
 8541               	.LBB5529:
 8542               	.LBB5530:
 8543               	.LBB5531:
 8544               	.LSM977:
 8545 073a FFB7      		in r31,95-0x20
 8546 073c F9A3      		std Y+33,r31
 8547               	.LVL435:
 8548               	.LBB5532:
 8549               	.LBB5533:
 8550               	.LSM978:
 8551               	/* #APP */
 8552 073e F894      		cli
 8553               	/* #NOAPP */
 8554               	.LBE5533:
 8555               	.LBE5532:
 8556               	.LSM979:
 8557               	.LBE5531:
 8558               	.LBE5530:
 8559               	.LSM980:
 8560 0740 2090 0000 		lds r2,RandomMlcgC__seed
 8561 0744 3090 0000 		lds r3,(RandomMlcgC__seed)+1
 8562 0748 4090 0000 		lds r4,(RandomMlcgC__seed)+2
 8563 074c 5090 0000 		lds r5,(RandomMlcgC__seed)+3
 8564 0750 6624      		clr r6
 8565 0752 7724      		clr r7
 8566 0754 8824      		clr r8
 8567 0756 1EE4      		ldi r17,lo8(78)
 8568 0758 A12E      		mov r10,r17
 8569 075a B3E8      		ldi r27,lo8(-125)
 8570 075c BB2E      		mov r11,r27
 8571 075e CC24      		clr r12
 8572 0760 DD24      		clr r13
 8573 0762 EE24      		clr r14
 8574 0764 FF24      		clr r15
 8575 0766 00E0      		ldi r16,lo8(0)
 8576 0768 10E0      		ldi r17,lo8(0)
 8577 076a 222D      		mov r18,r2
 8578 076c 332D      		mov r19,r3
 8579 076e 442D      		mov r20,r4
 8580 0770 552D      		mov r21,r5
 8581 0772 662D      		mov r22,r6
 8582 0774 772D      		mov r23,r7
 8583 0776 882D      		mov r24,r8
 8584               	.LVL436:
 8585 0778 90E0      		ldi r25,lo8(0)
 8586 077a 0E94 0000 		call __muldi3
 8587 077e 2AA3      		std Y+34,r18
 8588 0780 3BA3      		std Y+35,r19
 8589 0782 4CA3      		std Y+36,r20
 8590 0784 5DA3      		std Y+37,r21
 8591 0786 6EA3      		std Y+38,r22
 8592 0788 7FA3      		std Y+39,r23
 8593 078a 88A7      		std Y+40,r24
 8594 078c 99A7      		std Y+41,r25
 8595 078e 822E      		mov r8,r18
 8596               	.LVL437:
 8597 0790 932E      		mov r9,r19
 8598               	.LVL438:
 8599 0792 A42E      		mov r10,r20
 8600               	.LVL439:
 8601 0794 B52E      		mov r11,r21
 8602               	.LVL440:
 8603               	.LSM981:
 8604 0796 2401      		movw r4,r8
 8605 0798 3501      		movw r6,r10
 8606               	.LVL441:
 8607               	.LSM982:
 8608 079a 00E2      		ldi r16,lo8(32)
 8609 079c 0E94 0000 		call __lshrdi3
 8610 07a0 A22E      		mov r10,r18
 8611               	.LVL442:
 8612 07a2 B32E      		mov r11,r19
 8613               	.LVL443:
 8614 07a4 C42E      		mov r12,r20
 8615 07a6 D52E      		mov r13,r21
 8616 07a8 A301      		movw r20,r6
 8617 07aa 9201      		movw r18,r4
 8618               	.LVL444:
 8619 07ac 5695      		lsr r21
 8620 07ae 4795      		ror r20
 8621 07b0 3795      		ror r19
 8622 07b2 2795      		ror r18
 8623 07b4 2A0D      		add r18,r10
 8624 07b6 3B1D      		adc r19,r11
 8625 07b8 4C1D      		adc r20,r12
 8626 07ba 5D1D      		adc r21,r13
 8627               	.LSM983:
 8628 07bc 57FF      		sbrs r21,7
 8629 07be 00C0      		rjmp .L616
 8630               	.LSM984:
 8631 07c0 5F77      		andi r21,hhi8(2147483647)
 8632               	.LSM985:
 8633 07c2 2F5F      		subi r18,lo8(-(1))
 8634 07c4 3F4F      		sbci r19,hi8(-(1))
 8635 07c6 4F4F      		sbci r20,hlo8(-(1))
 8636 07c8 5F4F      		sbci r21,hhi8(-(1))
 8637               	.L616:
 8638               	.LSM986:
 8639 07ca 2093 0000 		sts RandomMlcgC__seed,r18
 8640 07ce 3093 0000 		sts (RandomMlcgC__seed)+1,r19
 8641 07d2 4093 0000 		sts (RandomMlcgC__seed)+2,r20
 8642 07d6 5093 0000 		sts (RandomMlcgC__seed)+3,r21
 8643               	.LBB5534:
 8644               	.LBB5535:
 8645               	.LSM987:
 8646               	.LBE5535:
 8647               	.LBE5534:
 8648               	.LSM988:
 8649 07da E9A0      		ldd r14,Y+33
 8650 07dc 8E2D      		mov r24,r14
 8651 07de 9927      		clr r25
 8652               	.LBB5536:
 8653               	.LBB5537:
 8654               	.LSM989:
 8655 07e0 8FBF      		out 95-0x20,r24
 8656               	.LBE5537:
 8657               	.LBE5536:
 8658               	.LBE5529:
 8659               	.LBE5528:
 8660               	.LBE5527:
 8661               	.LBE5526:
 8662               	.LBE5525:
 8663               	.LBE5524:
 8664               	.LBE5523:
 8665               	.LBB5538:
 8666               	.LBB5539:
 8667               	.LBB5540:
 8668               	.LSM990:
 8669 07e2 8FB7      		in r24,95-0x20
 8670               	.LVL445:
 8671               	.LBB5541:
 8672               	.LBB5542:
 8673               	.LSM991:
 8674               	/* #APP */
 8675 07e4 F894      		cli
 8676               	/* #NOAPP */
 8677               	.LBE5542:
 8678               	.LBE5541:
 8679               	.LSM992:
 8680               	.LBE5540:
 8681               	.LBE5539:
 8682               	.LSM993:
 8683 07e6 9927      		clr r25
 8684 07e8 3093 0000 		sts (RandomCollisionLayerP__0__nextRandom)+1,r19
 8685 07ec 2093 0000 		sts RandomCollisionLayerP__0__nextRandom,r18
 8686               	.LVL446:
 8687               	.L637:
 8688               	.LBB5543:
 8689               	.LBB5544:
 8690               	.LSM994:
 8691 07f0 00C0      		rjmp .L631
 8692               	.LVL447:
 8693               	.L619:
 8694               	.LBE5544:
 8695               	.LBE5543:
 8696               	.LBE5538:
 8697               	.LBE5522:
 8698               	.LBE5521:
 8699               	.LBB5545:
 8700               	.LBB5546:
 8701               	.LBB5547:
 8702               	.LBB5548:
 8703               	.LBB5549:
 8704               	.LBB5550:
 8705               	.LSM995:
 8706 07f2 2FBF      		out 95-0x20,r18
 8707               	.LVL448:
 8708               	.L618:
 8709               	.LBE5550:
 8710               	.LBE5549:
 8711               	.LBE5548:
 8712               	.LBE5547:
 8713               	.LBE5546:
 8714               	.LBE5545:
 8715               	/* epilogue: frame size=41 */
 8716 07f4 A996      		adiw r28,41
 8717 07f6 0FB6      		in __tmp_reg__,__SREG__
 8718 07f8 F894      		cli
 8719 07fa DEBF      		out __SP_H__,r29
 8720 07fc 0FBE      		out __SREG__,__tmp_reg__
 8721 07fe CDBF      		out __SP_L__,r28
 8722 0800 DF91      		pop r29
 8723 0802 CF91      		pop r28
 8724 0804 1F91      		pop r17
 8725 0806 0F91      		pop r16
 8726 0808 FF90      		pop r15
 8727 080a EF90      		pop r14
 8728 080c DF90      		pop r13
 8729 080e CF90      		pop r12
 8730 0810 BF90      		pop r11
 8731 0812 AF90      		pop r10
 8732 0814 9F90      		pop r9
 8733 0816 8F90      		pop r8
 8734 0818 7F90      		pop r7
 8735 081a 6F90      		pop r6
 8736 081c 5F90      		pop r5
 8737 081e 4F90      		pop r4
 8738 0820 3F90      		pop r3
 8739 0822 2F90      		pop r2
 8740 0824 0895      		ret
 8741               	/* epilogue end (size=25) */
 8742               	/* function SchedulerBasicP__TaskBasic__runTask size 1106 (1055) */
 8743               	.LFE605:
 8745               		.section	.text.RealMainP__Scheduler__runNextTask,"ax",@progbits
 8747               	RealMainP__Scheduler__runNextTask:
 8748               	.LFB295:
 8749               	.LSM996:
 8750               	/* prologue: frame size=0 */
 8751               	/* prologue end (size=0) */
 8752               	.LBB5554:
 8753               	.LSM997:
 8754 0000 0E94 0000 		call SchedulerBasicP__popTask
 8755               	.LVL449:
 8756               	.LBB5555:
 8757               	.LSM998:
 8758 0004 8F3F      		cpi r24,lo8(-1)
 8759 0006 01F4      		brne .L639
 8760               	.LSM999:
 8761 0008 80E0      		ldi r24,lo8(0)
 8762 000a 90E0      		ldi r25,hi8(0)
 8763               	.LVL450:
 8764 000c 0895      		ret
 8765               	.LVL451:
 8766               	.L639:
 8767               	.LSM1000:
 8768 000e 0E94 0000 		call SchedulerBasicP__TaskBasic__runTask
 8769               	.LVL452:
 8770 0012 81E0      		ldi r24,lo8(1)
 8771 0014 90E0      		ldi r25,hi8(1)
 8772               	.LBE5555:
 8773               	.LBE5554:
 8774               	.LSM1001:
 8775 0016 0895      		ret
 8776               	/* epilogue: frame size=0 */
 8777               	/* epilogue: noreturn */
 8778               	/* epilogue end (size=0) */
 8779               	/* function RealMainP__Scheduler__runNextTask size 12 (12) */
 8780               	.LFE295:
 8782               		.section	.text.main,"ax",@progbits
 8783               	.global	main
 8785               	main:
 8786               	.LFB602:
 8787               	.LSM1002:
 8788               	/* prologue: frame size=0 */
 8789 0000 1F93      		push r17
 8790 0002 CF93      		push r28
 8791 0004 DF93      		push r29
 8792               	/* prologue end (size=3) */
 8793               	.LBB5753:
 8794               	.LBB5754:
 8795               	.LBB5755:
 8796               	.LSM1003:
 8797 0006 1FB7      		in r17,95-0x20
 8798               	.LVL453:
 8799               	.LBB5756:
 8800               	.LBB5757:
 8801               	.LSM1004:
 8802               	/* #APP */
 8803 0008 F894      		cli
 8804               	/* #NOAPP */
 8805               	.LBE5757:
 8806               	.LBE5756:
 8807               	.LSM1005:
 8808               	.LBE5755:
 8809               	.LBE5754:
 8810               	.LSM1006:
 8811 000a 14BE      		out 84-0x20,__zero_reg__
 8812 000c 88E1      		ldi r24,lo8(24)
 8813               	/* #APP */
 8814 000e 0FB6      		in __tmp_reg__, __SREG__
 8815 0010 F894      		cli
 8816 0012 8093 6000 		sts 96, r24
 8817 0016 1092 6000 		sts 96, __zero_reg__
 8818 001a 0FBE      		out __SREG__,__tmp_reg__
 8819               		
 8820               	/* #NOAPP */
 8821               	.LBB5758:
 8822               	.LBB5759:
 8823               	.LBB5760:
 8824               	.LBB5761:
 8825               	.LSM1007:
 8826 001c 43E1      		ldi r20,lo8(19)
 8827 001e 50E0      		ldi r21,hi8(19)
 8828 0020 6FEF      		ldi r22,lo8(255)
 8829 0022 70E0      		ldi r23,hi8(255)
 8830 0024 80E0      		ldi r24,lo8(SchedulerBasicP__m_next)
 8831 0026 90E0      		ldi r25,hi8(SchedulerBasicP__m_next)
 8832 0028 0E94 0000 		call memset
 8833               	.LSM1008:
 8834 002c 8FEF      		ldi r24,lo8(-1)
 8835 002e 8093 0000 		sts SchedulerBasicP__m_head,r24
 8836               	.LSM1009:
 8837 0032 8093 0000 		sts SchedulerBasicP__m_tail,r24
 8838               	.LBE5761:
 8839               	.LBE5760:
 8840               	.LBE5759:
 8841               	.LBE5758:
 8842               	.LBB5762:
 8843               	.LBB5763:
 8844               	.LBB5764:
 8845               	.LBB5765:
 8846               	.LSM1010:
 8847 0036 80E0      		ldi r24,lo8(RFA1DriverLayerP__rxMsgBuffer)
 8848 0038 90E0      		ldi r25,hi8(RFA1DriverLayerP__rxMsgBuffer)
 8849 003a 9093 0000 		sts (RFA1DriverLayerP__rxMsg)+1,r25
 8850 003e 8093 0000 		sts RFA1DriverLayerP__rxMsg,r24
 8851               	.LSM1011:
 8852 0042 1092 0000 		sts RFA1DriverLayerP__rssiClear,__zero_reg__
 8853               	.LSM1012:
 8854 0046 8AE5      		ldi r24,lo8(90)
 8855 0048 8093 0000 		sts RFA1DriverLayerP__rssiBusy,r24
 8856               	.LBE5765:
 8857               	.LBE5764:
 8858               	.LBB5766:
 8859               	.LBB5767:
 8860               	.LSM1013:
 8861 004c 85B7      		in r24,85-0x20
 8862 004e 8068      		ori r24,lo8(-128)
 8863 0050 85BF      		out 85-0x20,r24
 8864               	.LSM1014:
 8865 0052 85B7      		in r24,85-0x20
 8866 0054 8068      		ori r24,lo8(-128)
 8867 0056 85BF      		out 85-0x20,r24
 8868               	.LBB5768:
 8869               	.LBB5769:
 8870               	.LBB5770:
 8871               	.LBB5771:
 8872               	.LBB5772:
 8873               	.LBB5773:
 8874               	.LSM1015:
 8875 0058 80E8      		ldi r24,lo8(-128)
 8876 005a 8093 6100 		sts 97,r24
 8877               	.LSM1016:
 8878 005e 8FE0      		ldi r24,lo8(15)
 8879 0060 8093 6100 		sts 97,r24
 8880               	.LBE5773:
 8881               	.LBE5772:
 8882               	.LBB5774:
 8883               	.LBB5775:
 8884               	.LBB5776:
 8885               	.LBB5777:
 8886               	.LBB5778:
 8887               	.LSM1017:
 8888 0064 91E0      		ldi r25,lo8(1)
 8889 0066 9093 8100 		sts 129,r25
 8890               	.LSM1018:
 8891 006a 80E2      		ldi r24,lo8(32)
 8892 006c 8093 B600 		sts 182,r24
 8893               	.LSM1019:
 8894 0070 9093 B100 		sts 177,r25
 8895               	.LSM1020:
 8896 0074 AEEF      		ldi r26,lo8(-2)
 8897               	.LVL454:
 8898 0076 E0E0      		ldi r30,lo8(0)
 8899 0078 F0E0      		ldi r31,hi8(0)
 8900               	.LVL455:
 8901 007a 6FEF      		ldi r22,lo8(-1)
 8902 007c 7FEF      		ldi r23,hi8(-1)
 8903               	.LVL456:
 8904 007e B0E0      		ldi r27,lo8(0)
 8905               	.LVL457:
 8906               	.LVL458:
 8907               	.L682:
 8908               	.LSM1021:
 8909 0080 8091 B200 		lds r24,178
 8910 0084 8823      		tst r24
 8911 0086 01F4      		brne .L682
 8912               	.LSM1022:
 8913 0088 4091 8400 		lds r20,132
 8914 008c 5091 8500 		lds r21,(132)+1
 8915               	.L646:
 8916               	.LSM1023:
 8917 0090 8091 B200 		lds r24,178
 8918 0094 8034      		cpi r24,lo8(64)
 8919 0096 01F4      		brne .L646
 8920               	.LSM1024:
 8921 0098 2091 8400 		lds r18,132
 8922 009c 3091 8500 		lds r19,(132)+1
 8923 00a0 241B      		sub r18,r20
 8924 00a2 350B      		sbc r19,r21
 8925 00a4 6217      		cp r22,r18
 8926 00a6 7307      		cpc r23,r19
 8927 00a8 00F4      		brsh .L648
 8928 00aa B901      		movw r22,r18
 8929               	.L648:
 8930 00ac 2E17      		cp r18,r30
 8931 00ae 3F07      		cpc r19,r31
 8932 00b0 00F4      		brsh .L649
 8933 00b2 F901      		movw r30,r18
 8934               	.L649:
 8935               	.LSM1025:
 8936 00b4 CF01      		movw r24,r30
 8937 00b6 861B      		sub r24,r22
 8938 00b8 970B      		sbc r25,r23
 8939 00ba 0297      		sbiw r24,2
 8940 00bc 00F0      		brlo .L650
 8941 00be B0E0      		ldi r27,lo8(0)
 8942 00c0 6FEF      		ldi r22,lo8(-1)
 8943 00c2 7FEF      		ldi r23,hi8(-1)
 8944 00c4 E0E0      		ldi r30,lo8(0)
 8945 00c6 F0E0      		ldi r31,hi8(0)
 8946 00c8 00C0      		rjmp .L652
 8947               	.L650:
 8948               	.LSM1026:
 8949 00ca BF5F      		subi r27,lo8(-(1))
 8950               	.LSM1027:
 8951 00cc B233      		cpi r27,lo8(50)
 8952 00ce 00F4      		brsh .L653
 8953               	.L652:
 8954 00d0 A150      		subi r26,lo8(-(-1))
 8955 00d2 01F4      		brne .L682
 8956               	.L653:
 8957 00d4 3093 0000 		sts (MeasureClockC__cycles)+1,r19
 8958 00d8 2093 0000 		sts MeasureClockC__cycles,r18
 8959               	.LSM1028:
 8960 00dc 1092 B100 		sts 177,__zero_reg__
 8961 00e0 8091 B100 		lds r24,177
 8962 00e4 8093 8100 		sts 129,r24
 8963 00e8 8091 8100 		lds r24,129
 8964 00ec 8093 B600 		sts 182,r24
 8965               	.L656:
 8966               	.LSM1029:
 8967 00f0 8091 B600 		lds r24,182
 8968 00f4 9927      		clr r25
 8969 00f6 8370      		andi r24,lo8(3)
 8970 00f8 9070      		andi r25,hi8(3)
 8971 00fa 892B      		or r24,r25
 8972 00fc 01F4      		brne .L656
 8973               	.LBE5778:
 8974               	.LBE5777:
 8975               	.LBE5776:
 8976               	.LBE5775:
 8977               	.LBE5774:
 8978               	.LBB5779:
 8979               	.LBB5780:
 8980               	.LBB5781:
 8981               	.LBB5782:
 8982               	.LBB5783:
 8983               	.LBB5784:
 8984               	.LBB5785:
 8985               	.LBB5786:
 8986               	.LSM1030:
 8987 00fe 8091 DF00 		lds r24,223
 8988 0102 8D7F      		andi r24,lo8(-3)
 8989 0104 8093 DF00 		sts 223,r24
 8990               	.LBE5786:
 8991               	.LBE5785:
 8992               	.LBE5784:
 8993               	.LBE5783:
 8994               	.LBB5787:
 8995               	.LBB5788:
 8996               	.LBB5789:
 8997               	.LBB5790:
 8998               	.LSM1031:
 8999 0108 8091 DC00 		lds r24,220
 9000 010c 8D7F      		andi r24,lo8(-3)
 9001 010e 8093 DC00 		sts 220,r24
 9002               	.LBE5790:
 9003               	.LBE5789:
 9004               	.LBE5788:
 9005               	.LBE5787:
 9006               	.LBE5782:
 9007               	.LBE5781:
 9008               	.LBB5791:
 9009               	.LBB5792:
 9010               	.LBB5793:
 9011               	.LBB5794:
 9012               	.LBB5795:
 9013               	.LBB5796:
 9014               	.LSM1032:
 9015 0112 8091 DF00 		lds r24,223
 9016 0116 8E7F      		andi r24,lo8(-2)
 9017 0118 8093 DF00 		sts 223,r24
 9018               	.LBE5796:
 9019               	.LBE5795:
 9020               	.LBE5794:
 9021               	.LBE5793:
 9022               	.LBB5797:
 9023               	.LBB5798:
 9024               	.LBB5799:
 9025               	.LBB5800:
 9026               	.LSM1033:
 9027 011c 8091 DC00 		lds r24,220
 9028 0120 8E7F      		andi r24,lo8(-2)
 9029 0122 8093 DC00 		sts 220,r24
 9030               	.LBE5800:
 9031               	.LBE5799:
 9032               	.LBE5798:
 9033               	.LBE5797:
 9034               	.LBE5792:
 9035               	.LBE5791:
 9036               	.LBB5801:
 9037               	.LBB5802:
 9038               	.LBB5803:
 9039               	.LBB5804:
 9040               	.LBB5805:
 9041               	.LBB5806:
 9042               	.LSM1034:
 9043 0126 80E2      		ldi r24,lo8(32)
 9044 0128 8093 B600 		sts 182,r24
 9045               	.LSM1035:
 9046 012c 8091 DC00 		lds r24,220
 9047 0130 8F7C      		andi r24,lo8(-49)
 9048 0132 8063      		ori r24,lo8(48)
 9049 0134 8093 DC00 		sts 220,r24
 9050               	.LBB5807:
 9051               	.LBB5808:
 9052               	.LBB5809:
 9053               	.LBB5810:
 9054               	.LSM1036:
 9055 0138 8FEF      		ldi r24,lo8(-1)
 9056 013a 8093 0000 		sts McuSleepC__powerState,r24
 9057               	.LBE5810:
 9058               	.LBE5809:
 9059               	.LBE5808:
 9060               	.LBE5807:
 9061               	.LBE5806:
 9062               	.LBE5805:
 9063               	.LBE5804:
 9064               	.LBE5803:
 9065               	.LBB5811:
 9066               	.LBB5812:
 9067               	.LBB5813:
 9068               	.LBB5814:
 9069               	.LSM1037:
 9070 013e 8091 DF00 		lds r24,223
 9071 0142 8860      		ori r24,lo8(8)
 9072 0144 8093 DF00 		sts 223,r24
 9073               	.LBE5814:
 9074               	.LBE5813:
 9075               	.LBE5812:
 9076               	.LBE5811:
 9077               	.LBE5802:
 9078               	.LBE5801:
 9079               	.LBE5780:
 9080               	.LBE5779:
 9081               	.LBB5815:
 9082               	.LBB5816:
 9083               	.LBB5817:
 9084               	.LBB5818:
 9085               	.LSM1038:
 9086 0148 84E4      		ldi r24,lo8(68)
 9087 014a 8093 0000 		sts Atm128Rfa1SerialP__m_byte_time,r24
 9088               	.LSM1039:
 9089 014e 8091 C800 		lds r24,200
 9090 0152 8F77      		andi r24,lo8(127)
 9091 0154 8093 C800 		sts 200,r24
 9092               	.LSM1040:
 9093 0158 8091 C800 		lds r24,200
 9094 015c 8F7B      		andi r24,lo8(-65)
 9095 015e 8093 C800 		sts 200,r24
 9096               	.LSM1041:
 9097 0162 8091 C800 		lds r24,200
 9098 0166 8260      		ori r24,lo8(2)
 9099 0168 8093 C800 		sts 200,r24
 9100               	.LSM1042:
 9101 016c 8091 C900 		lds r24,201
 9102 0170 8F7D      		andi r24,lo8(-33)
 9103 0172 8093 C900 		sts 201,r24
 9104               	.LSM1043:
 9105 0176 8091 C900 		lds r24,201
 9106 017a 8B7F      		andi r24,lo8(-5)
 9107 017c 8093 C900 		sts 201,r24
 9108               	.LSM1044:
 9109 0180 8091 C900 		lds r24,201
 9110 0184 8068      		ori r24,lo8(-128)
 9111 0186 8093 C900 		sts 201,r24
 9112               	.LSM1045:
 9113 018a 8091 C900 		lds r24,201
 9114 018e 8064      		ori r24,lo8(64)
 9115 0190 8093 C900 		sts 201,r24
 9116               	.LSM1046:
 9117 0194 8091 C900 		lds r24,201
 9118 0198 8061      		ori r24,lo8(16)
 9119 019a 8093 C900 		sts 201,r24
 9120               	.LSM1047:
 9121 019e 8091 C900 		lds r24,201
 9122 01a2 8860      		ori r24,lo8(8)
 9123 01a4 8093 C900 		sts 201,r24
 9124               	.LSM1048:
 9125 01a8 8091 CA00 		lds r24,202
 9126 01ac 8F77      		andi r24,lo8(127)
 9127 01ae 8093 CA00 		sts 202,r24
 9128               	.LSM1049:
 9129 01b2 8091 CA00 		lds r24,202
 9130 01b6 8F7B      		andi r24,lo8(-65)
 9131 01b8 8093 CA00 		sts 202,r24
 9132               	.LSM1050:
 9133 01bc 8091 CA00 		lds r24,202
 9134 01c0 8F7D      		andi r24,lo8(-33)
 9135 01c2 8093 CA00 		sts 202,r24
 9136               	.LSM1051:
 9137 01c6 8091 CA00 		lds r24,202
 9138 01ca 8F7E      		andi r24,lo8(-17)
 9139 01cc 8093 CA00 		sts 202,r24
 9140               	.LSM1052:
 9141 01d0 8091 CA00 		lds r24,202
 9142 01d4 8E7F      		andi r24,lo8(-2)
 9143 01d6 8093 CA00 		sts 202,r24
 9144               	.LSM1053:
 9145 01da 8091 CA00 		lds r24,202
 9146 01de 8460      		ori r24,lo8(4)
 9147 01e0 8093 CA00 		sts 202,r24
 9148               	.LSM1054:
 9149 01e4 8091 CA00 		lds r24,202
 9150 01e8 8260      		ori r24,lo8(2)
 9151 01ea 8093 CA00 		sts 202,r24
 9152               	.LSM1055:
 9153 01ee 1092 CD00 		sts 205,__zero_reg__
 9154               	.LSM1056:
 9155 01f2 82E2      		ldi r24,lo8(34)
 9156 01f4 8093 CC00 		sts 204,r24
 9157               	.LSM1057:
 9158 01f8 1092 0000 		sts Atm128Rfa1SerialP__rxBusy,__zero_reg__
 9159               	.LSM1058:
 9160 01fc 1092 0000 		sts Atm128Rfa1SerialP__txBusy,__zero_reg__
 9161               	.LSM1059:
 9162 0200 1092 0000 		sts (Atm128Rfa1SerialP__rxBuf)+1,__zero_reg__
 9163 0204 1092 0000 		sts Atm128Rfa1SerialP__rxBuf,__zero_reg__
 9164               	.LSM1060:
 9165 0208 1092 0000 		sts (Atm128Rfa1SerialP__txBuf)+1,__zero_reg__
 9166 020c 1092 0000 		sts Atm128Rfa1SerialP__txBuf,__zero_reg__
 9167               	.LSM1061:
 9168 0210 1092 0000 		sts (Atm128Rfa1SerialP__rxPos)+1,__zero_reg__
 9169 0214 1092 0000 		sts Atm128Rfa1SerialP__rxPos,__zero_reg__
 9170               	.LSM1062:
 9171 0218 1092 0000 		sts (Atm128Rfa1SerialP__txPos)+1,__zero_reg__
 9172 021c 1092 0000 		sts Atm128Rfa1SerialP__txPos,__zero_reg__
 9173               	.LSM1063:
 9174 0220 1092 0000 		sts (Atm128Rfa1SerialP__rxLen)+1,__zero_reg__
 9175 0224 1092 0000 		sts Atm128Rfa1SerialP__rxLen,__zero_reg__
 9176               	.LSM1064:
 9177 0228 1092 0000 		sts (Atm128Rfa1SerialP__txLen)+1,__zero_reg__
 9178 022c 1092 0000 		sts Atm128Rfa1SerialP__txLen,__zero_reg__
 9179               	.LBE5818:
 9180               	.LBE5817:
 9181               	.LBE5816:
 9182               	.LBE5815:
 9183               	.LBE5771:
 9184               	.LBE5770:
 9185               	.LBE5769:
 9186               	.LBE5768:
 9187               	.LBB5819:
 9188               	.LBB5820:
 9189               	.LBB5821:
 9190               	.LBB5822:
 9191               	.LBB5823:
 9192               	.LBB5824:
 9193               	.LBB5825:
 9194               	.LBB5826:
 9195               	.LSM1065:
 9196 0230 6A9A      		sbi 45-0x20,2
 9197               	.LBE5826:
 9198               	.LBE5825:
 9199               	.LBE5824:
 9200               	.LBE5823:
 9201               	.LBB5827:
 9202               	.LBB5828:
 9203               	.LBB5829:
 9204               	.LBB5830:
 9205 0232 6B9A      		sbi 45-0x20,3
 9206               	.LBE5830:
 9207               	.LBE5829:
 9208               	.LBE5828:
 9209               	.LBE5827:
 9210               	.LBB5831:
 9211               	.LBB5832:
 9212               	.LBB5833:
 9213               	.LBB5834:
 9214 0234 6C9A      		sbi 45-0x20,4
 9215               	.LBE5834:
 9216               	.LBE5833:
 9217               	.LBE5832:
 9218               	.LBE5831:
 9219               	.LBB5835:
 9220               	.LBB5836:
 9221               	.LBB5837:
 9222               	.LBB5838:
 9223               	.LSM1066:
 9224 0236 729A      		sbi 46-0x20,2
 9225               	.LBE5838:
 9226               	.LBE5837:
 9227               	.LBE5836:
 9228               	.LBE5835:
 9229               	.LBB5839:
 9230               	.LBB5840:
 9231               	.LBB5841:
 9232               	.LBB5842:
 9233 0238 739A      		sbi 46-0x20,3
 9234               	.LBE5842:
 9235               	.LBE5841:
 9236               	.LBE5840:
 9237               	.LBE5839:
 9238               	.LBB5843:
 9239               	.LBB5844:
 9240               	.LBB5845:
 9241               	.LBB5846:
 9242 023a 749A      		sbi 46-0x20,4
 9243               	.LBE5846:
 9244               	.LBE5845:
 9245               	.LBE5844:
 9246               	.LBE5843:
 9247               	.LBE5822:
 9248               	.LBE5821:
 9249               	.LBE5820:
 9250               	.LBE5819:
 9251               	.LBB5847:
 9252               	.LBB5848:
 9253               	.LSM1067:
 9254 023c 81E0      		ldi r24,lo8(1)
 9255 023e 85BF      		out 85-0x20,r24
 9256               	.LBE5848:
 9257               	.LBE5847:
 9258               	.LBB5849:
 9259               	.LBB5850:
 9260               	.LBB5851:
 9261               	.LBB5852:
 9262               	.LSM1068:
 9263 0240 8091 3901 		lds r24,313
 9264 0244 8260      		ori r24,lo8(2)
 9265 0246 8093 3901 		sts 313,r24
 9266               	.L658:
 9267               	.LBE5852:
 9268               	.LBE5851:
 9269               	.LBE5850:
 9270               	.LBE5849:
 9271               	.LBE5767:
 9272               	.LBE5766:
 9273               	.LBE5763:
 9274               	.LBE5762:
 9275               	.LSM1069:
 9276 024a 0E94 0000 		call RealMainP__Scheduler__runNextTask
 9277               	.LVL459:
 9278 024e 8823      		tst r24
 9279 0250 01F4      		brne .L658
 9280               	.LBB5853:
 9281               	.LBB5854:
 9282               	.LBB5855:
 9283               	.LBB5856:
 9284               	.LSM1070:
 9285 0252 1092 0000 		sts RFA1DriverLayerP__txPower,__zero_reg__
 9286               	.LSM1071:
 9287 0256 8AE1      		ldi r24,lo8(26)
 9288 0258 8093 0000 		sts RFA1DriverLayerP__channel,r24
 9289               	.LSM1072:
 9290 025c 87EC      		ldi r24,lo8(-57)
 9291 025e 8093 4901 		sts 329,r24
 9292               	.LSM1073:
 9293 0262 8AE7      		ldi r24,lo8(122)
 9294 0264 8093 4801 		sts 328,r24
 9295               	.LSM1074:
 9296 0268 80EC      		ldi r24,lo8(-64)
 9297 026a 8093 4501 		sts 325,r24
 9298               	.LSM1075:
 9299 026e 88E3      		ldi r24,lo8(56)
 9300 0270 8093 DC00 		sts 220,r24
 9301               	.LSM1076:
 9302 0274 8091 3901 		lds r24,313
 9303 0278 8260      		ori r24,lo8(2)
 9304 027a 8093 3901 		sts 313,r24
 9305               	.LSM1077:
 9306 027e 81E0      		ldi r24,lo8(1)
 9307 0280 8093 0000 		sts RFA1DriverLayerP__state,r24
 9308               	.LBE5856:
 9309               	.LBE5855:
 9310               	.LBB5857:
 9311               	.LBB5858:
 9312               	.LSM1078:
 9313 0284 2091 0000 		lds r18,TOS_NODE_ID
 9314 0288 3091 0000 		lds r19,(TOS_NODE_ID)+1
 9315 028c 2F5F      		subi r18,lo8(-(1))
 9316 028e 3F4F      		sbci r19,hi8(-(1))
 9317 0290 C901      		movw r24,r18
 9318 0292 AA27      		clr r26
 9319 0294 BB27      		clr r27
 9320 0296 2150      		subi r18,lo8(-(-1))
 9321 0298 3040      		sbci r19,hi8(-(-1))
 9322 029a 8093 0000 		sts RandomMlcgC__seed,r24
 9323 029e 9093 0000 		sts (RandomMlcgC__seed)+1,r25
 9324 02a2 A093 0000 		sts (RandomMlcgC__seed)+2,r26
 9325 02a6 B093 0000 		sts (RandomMlcgC__seed)+3,r27
 9326               	.LBE5858:
 9327               	.LBE5857:
 9328               	.LBB5859:
 9329               	.LBB5860:
 9330               	.LSM1079:
 9331 02aa 80E0      		ldi r24,lo8(MessageBufferLayerP__0__receiveQueueData)
 9332 02ac 90E0      		ldi r25,hi8(MessageBufferLayerP__0__receiveQueueData)
 9333 02ae 9093 0000 		sts (MessageBufferLayerP__0__receiveQueue)+1,r25
 9334 02b2 8093 0000 		sts MessageBufferLayerP__0__receiveQueue,r24
 9335 02b6 C296      		adiw r24,50
 9336 02b8 9093 0000 		sts (MessageBufferLayerP__0__receiveQueue+2)+1,r25
 9337 02bc 8093 0000 		sts MessageBufferLayerP__0__receiveQueue+2,r24
 9338 02c0 80E0      		ldi r24,lo8(MessageBufferLayerP__0__receiveQueueData+100)
 9339 02c2 90E0      		ldi r25,hi8(MessageBufferLayerP__0__receiveQueueData+100)
 9340 02c4 9093 0000 		sts (MessageBufferLayerP__0__receiveQueue+4)+1,r25
 9341 02c8 8093 0000 		sts MessageBufferLayerP__0__receiveQueue+4,r24
 9342               	.LBE5860:
 9343               	.LBE5859:
 9344               	.LBB5861:
 9345               	.LBB5862:
 9346               	.LSM1080:
 9347 02cc 8FEF      		ldi r24,lo8(-1)
 9348 02ce 9FEF      		ldi r25,hi8(-1)
 9349 02d0 9093 0000 		sts (NeighborhoodP__nodes)+1,r25
 9350 02d4 8093 0000 		sts NeighborhoodP__nodes,r24
 9351 02d8 9093 0000 		sts (NeighborhoodP__nodes+2)+1,r25
 9352 02dc 8093 0000 		sts NeighborhoodP__nodes+2,r24
 9353 02e0 9093 0000 		sts (NeighborhoodP__nodes+4)+1,r25
 9354 02e4 8093 0000 		sts NeighborhoodP__nodes+4,r24
 9355 02e8 9093 0000 		sts (NeighborhoodP__nodes+6)+1,r25
 9356 02ec 8093 0000 		sts NeighborhoodP__nodes+6,r24
 9357 02f0 9093 0000 		sts (NeighborhoodP__nodes+8)+1,r25
 9358 02f4 8093 0000 		sts NeighborhoodP__nodes+8,r24
 9359               	.LBE5862:
 9360               	.LBE5861:
 9361               	.LBB5863:
 9362               	.LBB5864:
 9363               	.LSM1081:
 9364 02f8 2295      		swap r18
 9365 02fa 207F      		andi r18,0xf0
 9366 02fc 2093 0000 		sts UniqueLayerP__0__sequenceNumber,r18
 9367               	.LBE5864:
 9368               	.LBE5863:
 9369               	.LBB5865:
 9370               	.LBB5866:
 9371               	.LSM1082:
 9372 0300 1092 0000 		sts RoundRobinResourceQueueC__0__resQ,__zero_reg__
 9373               	.L660:
 9374               	.LBE5866:
 9375               	.LBE5865:
 9376               	.LBE5854:
 9377               	.LBE5853:
 9378               	.LSM1083:
 9379 0304 0E94 0000 		call RealMainP__Scheduler__runNextTask
 9380 0308 8823      		tst r24
 9381 030a 01F4      		brne .L660
 9382               	.LBB5867:
 9383               	.LBB5868:
 9384               	.LSM1084:
 9385               	.LBE5868:
 9386               	.LBE5867:
 9387               	.LSM1085:
 9388 030c 812F      		mov r24,r17
 9389 030e 9927      		clr r25
 9390               	.LBB5869:
 9391               	.LBB5870:
 9392               	.LSM1086:
 9393 0310 8FBF      		out 95-0x20,r24
 9394               	.LBE5870:
 9395               	.LBE5869:
 9396               	.LBE5753:
 9397               	.LBB5871:
 9398               	.LBB5872:
 9399               	.LSM1087:
 9400               	/* #APP */
 9401 0312 7894      		sei
 9402               	/* #NOAPP */
 9403               	.LBE5872:
 9404               	.LBE5871:
 9405               	.LBB5873:
 9406               	.LBB5874:
 9407               	.LBB5875:
 9408               	.LBB5876:
 9409               	.LSM1088:
 9410 0314 8098      		cbi 48-0x20,0
 9411               	.LSM1089:
 9412 0316 8091 7E00 		lds r24,126
 9413 031a 8160      		ori r24,lo8(1)
 9414 031c 8093 7E00 		sts 126,r24
 9415               	.LBB5877:
 9416               	.LBB5878:
 9417               	.LSM1090:
 9418 0320 44EF      		ldi r20,lo8(500)
 9419 0322 51E0      		ldi r21,hi8(500)
 9420 0324 60E0      		ldi r22,hlo8(500)
 9421 0326 70E0      		ldi r23,hhi8(500)
 9422 0328 80E0      		ldi r24,lo8(0)
 9423 032a 0E94 0000 		call VirtualizeTimerC__0__Timer__startPeriodic
 9424               	.LBE5878:
 9425               	.LBE5877:
 9426               	.LBB5879:
 9427               	.LBB5880:
 9428 032e 40E1      		ldi r20,lo8(10000)
 9429 0330 57E2      		ldi r21,hi8(10000)
 9430 0332 60E0      		ldi r22,hlo8(10000)
 9431 0334 70E0      		ldi r23,hhi8(10000)
 9432 0336 81E0      		ldi r24,lo8(1)
 9433 0338 0E94 0000 		call VirtualizeTimerC__0__Timer__startPeriodic
 9434               	.LBE5880:
 9435               	.LBE5879:
 9436               	.LBB5881:
 9437               	.LBB5882:
 9438 033c 48E8      		ldi r20,lo8(5000)
 9439 033e 53E1      		ldi r21,hi8(5000)
 9440 0340 60E0      		ldi r22,hlo8(5000)
 9441 0342 70E0      		ldi r23,hhi8(5000)
 9442 0344 82E0      		ldi r24,lo8(2)
 9443 0346 0E94 0000 		call VirtualizeTimerC__0__Timer__startPeriodic
 9444               	.L662:
 9445               	.LBE5882:
 9446               	.LBE5881:
 9447               	.LBE5876:
 9448               	.LBE5875:
 9449               	.LBE5874:
 9450               	.LBE5873:
 9451               	.LBB5883:
 9452               	.LBB5884:
 9453               	.LBB5885:
 9454               	.LBB5886:
 9455               	.LBB5887:
 9456               	.LBB5888:
 9457               	.LBB5889:
 9458               	.LBB5890:
 9459               	.LSM1091:
 9460 034a 8FB7      		in r24,95-0x20
 9461               	.LVL460:
 9462               	.LBB5891:
 9463               	.LBB5892:
 9464               	.LSM1092:
 9465               	/* #APP */
 9466 034c F894      		cli
 9467               	/* #NOAPP */
 9468               	.LBE5892:
 9469               	.LBE5891:
 9470               	.LSM1093:
 9471               	.LSM1094:
 9472 034e C82F      		mov r28,r24
 9473 0350 DD27      		clr r29
 9474 0352 00C0      		rjmp .L663
 9475               	.LVL461:
 9476               	.L664:
 9477               	.LBE5890:
 9478               	.LBE5889:
 9479               	.LBB5893:
 9480               	.LBB5894:
 9481               	.LBB5895:
 9482               	.LBB5896:
 9483               	.LSM1095:
 9484 0354 8091 0000 		lds r24,McuSleepC__powerState
 9485               	.LVL462:
 9486 0358 87FF      		sbrs r24,7
 9487 035a 00C0      		rjmp .L665
 9488               	.LBB5897:
 9489               	.LBB5898:
 9490               	.LBB5899:
 9491               	.LBB5900:
 9492               	.LSM1096:
 9493 035c 8091 7A00 		lds r24,122
 9494               	.LBE5900:
 9495               	.LBE5899:
 9496               	.LBB5901:
 9497               	.LBB5902:
 9498               	.LSM1097:
 9499 0360 8091 DC00 		lds r24,220
 9500               	.LBE5902:
 9501               	.LBE5901:
 9502               	.LBE5898:
 9503               	.LBE5897:
 9504               	.LSM1098:
 9505 0364 1092 0000 		sts McuSleepC__powerState,__zero_reg__
 9506               	.LSM1099:
 9507 0368 83B7      		in r24,83-0x20
 9508               	.LBB5903:
 9509 036a E0E0      		ldi r30,lo8(McuSleepC__atm128PowerBits)
 9510 036c F0E0      		ldi r31,hi8(McuSleepC__atm128PowerBits)
 9511               	/* #APP */
 9512 036e E491      		lpm r30, Z
 9513               		
 9514               	.LVL463:
 9515               	/* #NOAPP */
 9516               	.LBE5903:
 9517 0370 807F      		andi r24,lo8(-16)
 9518 0372 8E2B      		or r24,r30
 9519 0374 83BF      		out 83-0x20,r24
 9520               	.L665:
 9521               	.LSM1100:
 9522 0376 83B7      		in r24,83-0x20
 9523 0378 8160      		ori r24,lo8(1)
 9524 037a 83BF      		out 83-0x20,r24
 9525               	.LSM1101:
 9526               	/* #APP */
 9527 037c 7894      		sei
 9528               	.LSM1102:
 9529 037e 8895      		sleep
 9530               	.LSM1103:
 9531 0380 F894      		cli
 9532               	.LSM1104:
 9533               	/* #NOAPP */
 9534 0382 83B7      		in r24,83-0x20
 9535 0384 8E7F      		andi r24,lo8(-2)
 9536 0386 83BF      		out 83-0x20,r24
 9537               	.LVL464:
 9538               	.L663:
 9539               	.LBE5896:
 9540               	.LBE5895:
 9541               	.LBE5894:
 9542               	.LBE5893:
 9543               	.LBE5888:
 9544               	.LBE5887:
 9545               	.LBE5886:
 9546               	.LSM1105:
 9547 0388 0E94 0000 		call SchedulerBasicP__popTask
 9548               	.LVL465:
 9549               	.LBB5904:
 9550               	.LBB5905:
 9551               	.LBB5906:
 9552 038c 8F3F      		cpi r24,lo8(-1)
 9553 038e 01F0      		breq .L664
 9554               	.LBB5907:
 9555               	.LBB5908:
 9556               	.LSM1106:
 9557               	.LSM1107:
 9558 0390 CFBF      		out 95-0x20,r28
 9559               	.LBE5908:
 9560               	.LBE5907:
 9561               	.LBE5906:
 9562               	.LSM1108:
 9563 0392 0E94 0000 		call SchedulerBasicP__TaskBasic__runTask
 9564               	.LVL466:
 9565 0396 00C0      		rjmp .L662
 9566               	.LBE5905:
 9567               	.LBE5904:
 9568               	.LBE5885:
 9569               	.LBE5884:
 9570               	.LBE5883:
 9571               	/* epilogue: frame size=0 */
 9572               	/* epilogue: noreturn */
 9573               	/* epilogue end (size=0) */
 9574               	/* function main size 484 (481) */
 9575               	.LFE602:
 9577               	.global	TOS_NODE_ID
 9578               		.data
 9581               	TOS_NODE_ID:
 9582 00df 0100      		.word	1
 9583               	.global	signature
 9586               	signature:
 9587 00e1 2323 2323 		.ascii	"############################################################"
 9587      2323 2323 
 9587      2323 2323 
 9587      2323 2323 
 9587      2323 2323 
 9588 011d 2323 2323 		.ascii	"####\r\n#\r\n#\tAlp Sayin\r\n#\talp_sayin[at]ieee[dot]org\r\n"
 9588      0D0A 230D 
 9588      0A23 0941 
 9588      6C70 2053 
 9588      6179 696E 
 9589 0150 2309 3134 		.ascii	"#\t14/11/2011\r\n#\tKTH Royal Institute of Technology\r\n#\r"
 9589      2F31 312F 
 9589      3230 3131 
 9589      0D0A 2309 
 9589      4B54 4820 
 9590 0185 0A23 094E 		.ascii	"\n#\tNotes:\r\n#\tWelcome to TinyOS 2.1.1 on Atmega128RFA1\r"
 9590      6F74 6573 
 9590      3A0D 0A23 
 9590      0957 656C 
 9590      636F 6D65 
 9591 01bb 0A23 0954 		.ascii	"\n#\tThis is the working demo for BlinkC\r\n#\tIt should als"
 9591      6869 7320 
 9591      6973 2074 
 9591      6865 2077 
 9591      6F72 6B69 
 9592 01f2 6F20 6563 		.ascii	"o echo the keys coming from serial port\r\n#\r\n##"
 9592      686F 2074 
 9592      6865 206B 
 9592      6579 7320 
 9592      636F 6D69 
 9593 0220 2323 2323 		.string	"##############################################################\r\n"
 9593      2323 2323 
 9593      2323 2323 
 9593      2323 2323 
 9593      2323 2323 
 9594               	.global	Atm128Rfa1Uart1InterruptsP__privReceivedByte
 9595               	.global	Atm128Rfa1Uart1InterruptsP__privReceivedByte
 9596               		.section .bss
 9599               	Atm128Rfa1Uart1InterruptsP__privReceivedByte:
 9600 0000 00        		.skip 1,0
 9601               	.global	McuSleepC__atm128PowerBits
 9602               		.section	.progmem.data,"a",@progbits
 9605               	McuSleepC__atm128PowerBits:
 9606 0000 00        		.byte	0
 9607 0001 02        		.byte	2
 9608 0002 0E        		.byte	14
 9609 0003 06        		.byte	6
 9610 0004 0C        		.byte	12
 9611 0005 04        		.byte	4
 9612               	.global	McuSleepC__powerState
 9613               		.data
 9616               	McuSleepC__powerState:
 9617 0261 FF        		.byte	-1
 9618               	.global	RoundRobinResourceQueueC__0__last
 9619               	.global	RoundRobinResourceQueueC__0__last
 9620               		.section .bss
 9623               	RoundRobinResourceQueueC__0__last:
 9624 0001 00        		.skip 1,0
 9625               	.global	ArbiterP__0__state
 9626               	.global	ArbiterP__0__state
 9629               	ArbiterP__0__state:
 9630 0002 00        		.skip 1,0
 9631               	.global	ArbiterP__0__resId
 9632               		.data
 9635               	ArbiterP__0__resId:
 9636 0262 03        		.byte	3
 9637               	.global	SimpleArbiterP__0__state
 9638               	.global	SimpleArbiterP__0__state
 9639               		.section .bss
 9642               	SimpleArbiterP__0__state:
 9643 0003 00        		.skip 1,0
 9644               	.global	SimpleArbiterP__0__resId
 9645               		.data
 9648               	SimpleArbiterP__0__resId:
 9649 0263 FF        		.byte	-1
 9650               	.global	ActiveMessageAddressC__addr
 9653               	ActiveMessageAddressC__addr:
 9654 0264 0100      		.word	1
 9655               	.global	PacketLinkLayerP__0__state
 9656               	.global	PacketLinkLayerP__0__state
 9657               		.section .bss
 9660               	PacketLinkLayerP__0__state:
 9661 0004 00        		.skip 1,0
 9662               		.comm MeasureClockC__cycles,2,1
 9663               		.comm Atm128Rfa1SerialP__rxBusy,1,1
 9664               		.comm Atm128Rfa1SerialP__txBusy,1,1
 9665               		.comm Atm128Rfa1SerialP__txBuf,2,1
 9666               		.comm Atm128Rfa1SerialP__rxBuf,2,1
 9667               		.comm Atm128Rfa1SerialP__txLen,2,1
 9668               		.comm Atm128Rfa1SerialP__rxLen,2,1
 9669               		.comm Atm128Rfa1SerialP__txPos,2,1
 9670               		.comm Atm128Rfa1SerialP__rxPos,2,1
 9671               		.comm Atm128Rfa1SerialP__txResult,1,1
 9672               		.comm Atm128Rfa1SerialP__rxResult,1,1
 9673               		.comm Atm128Rfa1SerialP__m_byte_time,1,1
 9674               		.comm Atm128Rfa1SerialP__rxUnexpectedByte,1,1
 9675               		.comm TransformCounterC__0__m_upper,1,1
 9676               		.comm SchedulerBasicP__m_head,1,1
 9677               		.comm SchedulerBasicP__m_tail,1,1
 9678               		.comm SchedulerBasicP__m_next,19,1
 9679               		.comm BlinkC__commandBuf,255,1
 9680               		.comm BlinkC__commandLength,1,1
 9681               		.comm TransformAlarmC__0__m_t0,4,1
 9682               		.comm TransformAlarmC__0__m_dt,4,1
 9683               		.comm AlarmToTimerC__0__m_dt,4,1
 9684               		.comm AlarmToTimerC__0__m_oneshot,1,1
 9685               		.comm VirtualizeTimerC__0__m_timers,36,1
 9686               		.comm Atm128AdcP__f,1,1
 9687               		.comm Atm128AdcP__nextF,1,1
 9688               		.comm RoundRobinResourceQueueC__0__resQ,1,1
 9689               		.comm ArbiterP__0__reqResId,1,1
 9690               		.comm AdcP__state,1,1
 9691               		.comm AdcP__client,1,1
 9692               		.comm AdcP__val,2,1
 9693               		.comm RadioAlarmP__0__state,1,1
 9694               		.comm RadioAlarmP__0__alarm,1,1
 9695               		.comm TaskletC__state,1,1
 9696               		.comm FcfsResourceQueueC__0__resQ,0,1
 9697               		.comm SimpleArbiterP__0__reqResId,1,1
 9698               		.comm UniqueLayerP__0__sequenceNumber,1,1
 9699               		.comm UniqueLayerP__0__receivedNumbers,5,1
 9700               		.comm NeighborhoodP__nodes,10,1
 9701               		.comm NeighborhoodP__ages,5,1
 9702               		.comm NeighborhoodP__flags,5,1
 9703               		.comm NeighborhoodP__time,1,1
 9704               		.comm NeighborhoodP__last,1,1
 9705               		.comm PacketLinkLayerP__0__currentMsg,2,1
 9706               		.comm PacketLinkLayerP__0__totalRetries,2,1
 9707               		.comm MessageBufferLayerP__0__state,1,1
 9708               		.comm MessageBufferLayerP__0__txMsg,2,1
 9709               		.comm MessageBufferLayerP__0__txError,1,1
 9710               		.comm MessageBufferLayerP__0__retries,1,1
 9711               		.comm MessageBufferLayerP__0__receiveQueueData,150,1
 9712               		.comm MessageBufferLayerP__0__receiveQueue,6,1
 9713               		.comm MessageBufferLayerP__0__receiveQueueHead,1,1
 9714               		.comm MessageBufferLayerP__0__receiveQueueSize,1,1
 9715               		.comm RandomCollisionLayerP__0__state,1,1
 9716               		.comm RandomCollisionLayerP__0__txMsg,2,1
 9717               		.comm RandomCollisionLayerP__0__txBarrier,2,1
 9718               		.comm RandomCollisionLayerP__0__nextRandom,2,1
 9719               		.comm RandomMlcgC__seed,4,1
 9720               		.comm SoftwareAckLayerC__0__state,1,1
 9721               		.comm SoftwareAckLayerC__0__txMsg,2,1
 9722               		.comm SoftwareAckLayerC__0__ackMsg,50,1
 9723               		.comm RFA1DriverLayerP__state,1,1
 9724               		.comm RFA1DriverLayerP__cmd,1,1
 9725               		.comm RFA1DriverLayerP__radioIrq,1,1
 9726               		.comm RFA1DriverLayerP__txPower,1,1
 9727               		.comm RFA1DriverLayerP__channel,1,1
 9728               		.comm RFA1DriverLayerP__rxMsg,2,1
 9729               		.comm RFA1DriverLayerP__rxMsgBuffer,50,1
 9730               		.comm RFA1DriverLayerP__rssiClear,1,1
 9731               		.comm RFA1DriverLayerP__rssiBusy,1,1
 10332               	.Letext0:
DEFINED SYMBOLS
                            *ABS*:00000000 app.c
     /tmp/ccN13uIQ.s:3      *ABS*:0000003f __SREG__
     /tmp/ccN13uIQ.s:4      *ABS*:0000003e __SP_H__
     /tmp/ccN13uIQ.s:5      *ABS*:0000003d __SP_L__
     /tmp/ccN13uIQ.s:6      *ABS*:00000000 __tmp_reg__
     /tmp/ccN13uIQ.s:7      *ABS*:00000001 __zero_reg__
     /tmp/ccN13uIQ.s:21     .text.__nesc_atomic_start:00000000 __nesc_atomic_start
     /tmp/ccN13uIQ.s:50     .text.__nesc_atomic_end:00000000 __nesc_atomic_end
     /tmp/ccN13uIQ.s:67     .text.MetadataFlagsLayerC__0__PacketFlag__clear:00000000 MetadataFlagsLayerC__0__PacketFlag__clear
     /tmp/ccN13uIQ.s:95     .text.__nesc_hton_uint32:00000000 __nesc_hton_uint32
     /tmp/ccN13uIQ.s:133    .text.MessageBufferLayerP__0__Tasklet__suspend:00000000 MessageBufferLayerP__0__Tasklet__suspend
                            *COM*:00000001 TaskletC__state
     /tmp/ccN13uIQ.s:180    .text.PacketLinkLayerP__0__getMeta:00000000 PacketLinkLayerP__0__getMeta
     /tmp/ccN13uIQ.s:197    .text.Atm128AdcP__isPrecise:00000000 Atm128AdcP__isPrecise
     /tmp/ccN13uIQ.s:256    .text.Atm128AdcP__HplAtm128Adc__getAdmux:00000000 Atm128AdcP__HplAtm128Adc__getAdmux
     /tmp/ccN13uIQ.s:270    .text.SchedulerBasicP__popTask:00000000 SchedulerBasicP__popTask
                            *COM*:00000001 SchedulerBasicP__m_head
                            *COM*:00000013 SchedulerBasicP__m_next
                            *COM*:00000001 SchedulerBasicP__m_tail
     /tmp/ccN13uIQ.s:314    .text.SchedulerBasicP__TaskBasic__postTask:00000000 SchedulerBasicP__TaskBasic__postTask
     /tmp/ccN13uIQ.s:421    .text.ArbiterP__0__grantedTask__postTask:00000000 ArbiterP__0__grantedTask__postTask
     /tmp/ccN13uIQ.s:437    .text.VirtualizeTimerC__0__updateFromTimer__postTask:00000000 VirtualizeTimerC__0__updateFromTimer__postTask
     /tmp/ccN13uIQ.s:453    .text.MessageBufferLayerP__0__sendTask__postTask:00000000 MessageBufferLayerP__0__sendTask__postTask
     /tmp/ccN13uIQ.s:469    .text.PacketLinkLayerP__0__send__postTask:00000000 PacketLinkLayerP__0__send__postTask
     /tmp/ccN13uIQ.s:486    .text.__vector_36:00000000 __vector_36
     /tmp/ccN13uIQ.s:9599   .bss:00000000 Atm128Rfa1Uart1InterruptsP__privReceivedByte
                            *COM*:00000002 Atm128Rfa1SerialP__rxBuf
                            *COM*:00000002 Atm128Rfa1SerialP__rxPos
                            *COM*:00000002 Atm128Rfa1SerialP__rxLen
                            *COM*:00000001 Atm128Rfa1SerialP__rxUnexpectedByte
     /tmp/ccN13uIQ.s:605    .text.__vector_38:00000000 __vector_38
                            *COM*:00000002 Atm128Rfa1SerialP__txBuf
                            *COM*:00000002 Atm128Rfa1SerialP__txPos
                            *COM*:00000002 Atm128Rfa1SerialP__txLen
                            *COM*:00000001 Atm128Rfa1SerialP__txBusy
     /tmp/ccN13uIQ.s:723    .text.__vector_68:00000000 __vector_68
                            *COM*:00000001 TransformCounterC__0__m_upper
     /tmp/ccN13uIQ.s:767    .text.HplAtmRfa1TimerMacP__Counter__get:00000000 HplAtmRfa1TimerMacP__Counter__get
     /tmp/ccN13uIQ.s:824    .text.AtmegaCompareP__1__AtmegaCounter__get:00000000 AtmegaCompareP__1__AtmegaCounter__get
     /tmp/ccN13uIQ.s:838    .text.RandomCollisionLayerP__0__RadioAlarm__getNow:00000000 RandomCollisionLayerP__0__RadioAlarm__getNow
     /tmp/ccN13uIQ.s:863    .text.AtmegaCounterP__0__Counter__get:00000000 AtmegaCounterP__0__Counter__get
     /tmp/ccN13uIQ.s:880    .text.CounterToLocalTimeC__1__LocalTime__get:00000000 CounterToLocalTimeC__1__LocalTime__get
     /tmp/ccN13uIQ.s:897    .text.TransformCounterC__0__CounterFrom__get:00000000 TransformCounterC__0__CounterFrom__get
     /tmp/ccN13uIQ.s:911    .text.TransformAlarmC__0__Counter__get:00000000 TransformAlarmC__0__Counter__get
     /tmp/ccN13uIQ.s:1038   .text.TransformAlarmC__0__set_alarm:00000000 TransformAlarmC__0__set_alarm
                            *COM*:00000004 TransformAlarmC__0__m_t0
                            *COM*:00000004 TransformAlarmC__0__m_dt
     /tmp/ccN13uIQ.s:9616   .data:00000261 McuSleepC__powerState
     /tmp/ccN13uIQ.s:1305   .text.__vector_65:00000000 __vector_65
     /tmp/ccN13uIQ.s:1417   .text.VirtualizeTimerC__0__TimerFrom__getNow:00000000 VirtualizeTimerC__0__TimerFrom__getNow
     /tmp/ccN13uIQ.s:1442   .text.MetadataFlagsLayerC__0__PacketFlag__set:00000000 MetadataFlagsLayerC__0__PacketFlag__set
     /tmp/ccN13uIQ.s:1469   .text.RFA1DriverLayerP__PacketTimeStamp__set:00000000 RFA1DriverLayerP__PacketTimeStamp__set
     /tmp/ccN13uIQ.s:1518   .text.Ieee154PacketLayerP__0__Ieee154PacketLayer__getAckRequired:00000000 Ieee154PacketLayerP__0__Ieee154PacketLayer__getAckRequired
     /tmp/ccN13uIQ.s:1555   .text.Ieee154PacketLayerP__0__Ieee154PacketLayer__isDataFrame:00000000 Ieee154PacketLayerP__0__Ieee154PacketLayer__isDataFrame
     /tmp/ccN13uIQ.s:1597   .text.Ieee154PacketLayerP__0__Ieee154PacketLayer__getDestAddr:00000000 Ieee154PacketLayerP__0__Ieee154PacketLayer__getDestAddr
     /tmp/ccN13uIQ.s:1627   .text.RadioAlarmP__0__RadioAlarm__wait:00000000 RadioAlarmP__0__RadioAlarm__wait
                            *COM*:00000001 RadioAlarmP__0__alarm
                            *COM*:00000001 RadioAlarmP__0__state
     /tmp/ccN13uIQ.s:1785   .text.RandomCollisionLayerP__0__RadioSend__sendDone:00000000 RandomCollisionLayerP__0__RadioSend__sendDone
                            *COM*:00000001 MessageBufferLayerP__0__txError
                            *COM*:00000001 MessageBufferLayerP__0__state
     /tmp/ccN13uIQ.s:1821   .text.SoftwareAckLayerC__0__RadioSend__sendDone:00000000 SoftwareAckLayerC__0__RadioSend__sendDone
                            *COM*:00000001 RandomCollisionLayerP__0__state
     /tmp/ccN13uIQ.s:1844   .text.SoftwareAckLayerC__0__Config__isAckPacket:00000000 SoftwareAckLayerC__0__Config__isAckPacket
     /tmp/ccN13uIQ.s:1888   .text.RFA1RadioP__Ieee154PacketLayer__requiresAckReply:00000000 RFA1RadioP__Ieee154PacketLayer__requiresAckReply
     /tmp/ccN13uIQ.s:9653   .data:00000264 ActiveMessageAddressC__addr
     /tmp/ccN13uIQ.s:1983   .text.MetadataFlagsLayerC__0__PacketFlag__get:00000000 MetadataFlagsLayerC__0__PacketFlag__get
     /tmp/ccN13uIQ.s:2010   .text.RandomCollisionLayerP__0__RadioAlarm__wait:00000000 RandomCollisionLayerP__0__RadioAlarm__wait
     /tmp/ccN13uIQ.s:2029   .text.RandomCollisionLayerP__0__RadioSend__ready:00000000 RandomCollisionLayerP__0__RadioSend__ready
     /tmp/ccN13uIQ.s:2057   .text.RandomCollisionLayerP__0__getBackoff:00000000 RandomCollisionLayerP__0__getBackoff
                            *COM*:00000002 RandomCollisionLayerP__0__nextRandom
     /tmp/ccN13uIQ.s:2130   .text.__vector_67:00000000 __vector_67
     /tmp/ccN13uIQ.s:2152   .text.VirtualizeTimerC__0__startTimer:00000000 VirtualizeTimerC__0__startTimer
                            *COM*:00000024 VirtualizeTimerC__0__m_timers
     /tmp/ccN13uIQ.s:2203   .text.RoundRobinResourceQueueC__0__RoundRobinQueue__isEnqueued:00000000 RoundRobinResourceQueueC__0__RoundRobinQueue__isEnqueued
                            *COM*:00000001 RoundRobinResourceQueueC__0__resQ
     /tmp/ccN13uIQ.s:2238   .text.ArbiterP__0__Resource__release:00000000 ArbiterP__0__Resource__release
     /tmp/ccN13uIQ.s:9629   .bss:00000002 ArbiterP__0__state
     /tmp/ccN13uIQ.s:9635   .data:00000262 ArbiterP__0__resId
     /tmp/ccN13uIQ.s:9623   .bss:00000001 RoundRobinResourceQueueC__0__last
                            *COM*:00000001 ArbiterP__0__reqResId
     /tmp/ccN13uIQ.s:2479   .text.BlinkC__SerialStream__send:00000000 BlinkC__SerialStream__send
                            *COM*:00000001 Atm128Rfa1SerialP__txResult
     /tmp/ccN13uIQ.s:2664   .text.BlinkC__Leds__led2Toggle:00000000 BlinkC__Leds__led2Toggle
     /tmp/ccN13uIQ.s:2720   .text.BlinkC__Leds__led1Toggle:00000000 BlinkC__Leds__led1Toggle
     /tmp/ccN13uIQ.s:2776   .text.AdcP__sample:00000000 AdcP__sample
                            *COM*:00000001 AdcP__client
                            *COM*:00000001 Atm128AdcP__f
     /tmp/ccN13uIQ.s:3057   .text.ArbitratedReadC__0__Resource__granted:00000000 ArbitratedReadC__0__Resource__granted
                            *COM*:00000001 AdcP__state
     /tmp/ccN13uIQ.s:3091   .text.VirtualizeTimerC__0__fireTimers:00000000 VirtualizeTimerC__0__fireTimers
     /tmp/ccN13uIQ.s:3289   .text.AlarmToTimerC__0__start:00000000 AlarmToTimerC__0__start
                            *COM*:00000004 AlarmToTimerC__0__m_dt
                            *COM*:00000001 AlarmToTimerC__0__m_oneshot
     /tmp/ccN13uIQ.s:3362   .text.ArbiterP__0__Resource__request:00000000 ArbiterP__0__Resource__request
     /tmp/ccN13uIQ.s:3634   .text.ArbitratedReadC__0__Read__read:00000000 ArbitratedReadC__0__Read__read
     /tmp/ccN13uIQ.s:3684   .text.VirtualizeTimerC__0__Timer__startPeriodic:00000000 VirtualizeTimerC__0__Timer__startPeriodic
     /tmp/ccN13uIQ.s:3728   .text.__vector_29:00000000 __vector_29
                            *COM*:00000002 AdcP__val
     /tmp/ccN13uIQ.s:4070   .text.__vector_58:00000000 __vector_58
     /tmp/ccN13uIQ.s:4093   .text.__vector_62:00000000 __vector_62
     /tmp/ccN13uIQ.s:4115   .text.SoftwareAckLayerC__0__SubSend__send:00000000 SoftwareAckLayerC__0__SubSend__send
                            *COM*:00000001 RFA1DriverLayerP__cmd
                            *COM*:00000001 RFA1DriverLayerP__state
                            *COM*:00000001 RFA1DriverLayerP__radioIrq
                            *COM*:00000001 RFA1DriverLayerP__txPower
                            *COM*:00000001 RFA1DriverLayerP__rssiClear
                            *COM*:00000001 RFA1DriverLayerP__rssiBusy
     /tmp/ccN13uIQ.s:4536   .text.TaskletC__doit:00000000 TaskletC__doit
                            *COM*:00000002 RFA1DriverLayerP__rxMsg
                            *COM*:00000001 SoftwareAckLayerC__0__state
                            *COM*:00000002 SoftwareAckLayerC__0__txMsg
                            *COM*:00000001 MessageBufferLayerP__0__receiveQueueSize
                            *COM*:00000032 SoftwareAckLayerC__0__ackMsg
                            *COM*:00000002 RandomCollisionLayerP__0__txBarrier
                            *COM*:00000001 NeighborhoodP__last
                            *COM*:0000000a NeighborhoodP__nodes
                            *COM*:00000001 NeighborhoodP__time
                            *COM*:00000005 NeighborhoodP__ages
                            *COM*:00000005 NeighborhoodP__flags
                            *COM*:00000005 UniqueLayerP__0__receivedNumbers
                            *COM*:00000001 MessageBufferLayerP__0__receiveQueueHead
                            *COM*:00000006 MessageBufferLayerP__0__receiveQueue
                            *COM*:00000001 RFA1DriverLayerP__channel
                            *COM*:00000002 RandomCollisionLayerP__0__txMsg
     /tmp/ccN13uIQ.s:6311   .text.MessageBufferLayerP__0__Tasklet__resume:00000000 MessageBufferLayerP__0__Tasklet__resume
     /tmp/ccN13uIQ.s:6379   .text.TaskletC__Tasklet__schedule:00000000 TaskletC__Tasklet__schedule
     /tmp/ccN13uIQ.s:6407   .text.RFA1DriverLayerP__Tasklet__schedule:00000000 RFA1DriverLayerP__Tasklet__schedule
     /tmp/ccN13uIQ.s:6422   .text.__vector_61:00000000 __vector_61
     /tmp/ccN13uIQ.s:6475   .text.__vector_64:00000000 __vector_64
     /tmp/ccN13uIQ.s:6528   .text.__vector_57:00000000 __vector_57
     /tmp/ccN13uIQ.s:6581   .text.__vector_63:00000000 __vector_63
     /tmp/ccN13uIQ.s:6634   .text.__vector_60:00000000 __vector_60
     /tmp/ccN13uIQ.s:6687   .text.__vector_59:00000000 __vector_59
     /tmp/ccN13uIQ.s:6740   .text.__vector_66:00000000 __vector_66
     /tmp/ccN13uIQ.s:6860   .text.SchedulerBasicP__TaskBasic__runTask:00000000 SchedulerBasicP__TaskBasic__runTask
                            *COM*:00000001 Atm128Rfa1SerialP__rxBusy
                            *COM*:00000001 BlinkC__commandLength
                            *COM*:000000ff BlinkC__commandBuf
                            *COM*:00000001 SimpleArbiterP__0__reqResId
     /tmp/ccN13uIQ.s:9648   .data:00000263 SimpleArbiterP__0__resId
     /tmp/ccN13uIQ.s:9642   .bss:00000003 SimpleArbiterP__0__state
                            *COM*:00000002 PacketLinkLayerP__0__currentMsg
     /tmp/ccN13uIQ.s:9660   .bss:00000004 PacketLinkLayerP__0__state
                            *COM*:00000002 PacketLinkLayerP__0__totalRetries
                            *COM*:00000002 MessageBufferLayerP__0__txMsg
                            *COM*:00000001 MessageBufferLayerP__0__retries
                            *COM*:00000004 RandomMlcgC__seed
     /tmp/ccN13uIQ.s:8747   .text.RealMainP__Scheduler__runNextTask:00000000 RealMainP__Scheduler__runNextTask
     /tmp/ccN13uIQ.s:8785   .text.main:00000000 main
                            *COM*:00000032 RFA1DriverLayerP__rxMsgBuffer
                            *COM*:00000002 MeasureClockC__cycles
                            *COM*:00000001 Atm128Rfa1SerialP__m_byte_time
     /tmp/ccN13uIQ.s:9581   .data:000000df TOS_NODE_ID
                            *COM*:00000096 MessageBufferLayerP__0__receiveQueueData
                            *COM*:00000001 UniqueLayerP__0__sequenceNumber
     /tmp/ccN13uIQ.s:9605   .progmem.data:00000000 McuSleepC__atm128PowerBits
     /tmp/ccN13uIQ.s:9586   .data:000000e1 signature
                            *COM*:00000001 Atm128Rfa1SerialP__rxResult
                            *COM*:00000001 Atm128AdcP__nextF
                            *COM*:00000000 FcfsResourceQueueC__0__resQ

UNDEFINED SYMBOLS
__do_copy_data
__do_clear_bss
__udivmodhi4
memcpy
sprintf
strcmp
__floatsisf
__addsf3
__mulsf3
__subsf3
__fixunssfsi
__muldi3
__lshrdi3
memset

app.elf:     file format elf32-avr

Disassembly of section .text:

00000000 <__vectors>:
       0:	92 c0       	rjmp	.+292    	; 0x126 <__ctors_end>
       2:	00 00       	nop
       4:	af c0       	rjmp	.+350    	; 0x164 <__bad_interrupt>
       6:	00 00       	nop
       8:	ad c0       	rjmp	.+346    	; 0x164 <__bad_interrupt>
       a:	00 00       	nop
       c:	ab c0       	rjmp	.+342    	; 0x164 <__bad_interrupt>
       e:	00 00       	nop
      10:	a9 c0       	rjmp	.+338    	; 0x164 <__bad_interrupt>
      12:	00 00       	nop
      14:	a7 c0       	rjmp	.+334    	; 0x164 <__bad_interrupt>
      16:	00 00       	nop
      18:	a5 c0       	rjmp	.+330    	; 0x164 <__bad_interrupt>
      1a:	00 00       	nop
      1c:	a3 c0       	rjmp	.+326    	; 0x164 <__bad_interrupt>
      1e:	00 00       	nop
      20:	a1 c0       	rjmp	.+322    	; 0x164 <__bad_interrupt>
      22:	00 00       	nop
      24:	9f c0       	rjmp	.+318    	; 0x164 <__bad_interrupt>
      26:	00 00       	nop
      28:	9d c0       	rjmp	.+314    	; 0x164 <__bad_interrupt>
      2a:	00 00       	nop
      2c:	9b c0       	rjmp	.+310    	; 0x164 <__bad_interrupt>
      2e:	00 00       	nop
      30:	99 c0       	rjmp	.+306    	; 0x164 <__bad_interrupt>
      32:	00 00       	nop
      34:	97 c0       	rjmp	.+302    	; 0x164 <__bad_interrupt>
      36:	00 00       	nop
      38:	95 c0       	rjmp	.+298    	; 0x164 <__bad_interrupt>
      3a:	00 00       	nop
      3c:	93 c0       	rjmp	.+294    	; 0x164 <__bad_interrupt>
      3e:	00 00       	nop
      40:	91 c0       	rjmp	.+290    	; 0x164 <__bad_interrupt>
      42:	00 00       	nop
      44:	8f c0       	rjmp	.+286    	; 0x164 <__bad_interrupt>
      46:	00 00       	nop
      48:	8d c0       	rjmp	.+282    	; 0x164 <__bad_interrupt>
      4a:	00 00       	nop
      4c:	8b c0       	rjmp	.+278    	; 0x164 <__bad_interrupt>
      4e:	00 00       	nop
      50:	89 c0       	rjmp	.+274    	; 0x164 <__bad_interrupt>
      52:	00 00       	nop
      54:	87 c0       	rjmp	.+270    	; 0x164 <__bad_interrupt>
      56:	00 00       	nop
      58:	85 c0       	rjmp	.+266    	; 0x164 <__bad_interrupt>
      5a:	00 00       	nop
      5c:	83 c0       	rjmp	.+262    	; 0x164 <__bad_interrupt>
      5e:	00 00       	nop
      60:	81 c0       	rjmp	.+258    	; 0x164 <__bad_interrupt>
      62:	00 00       	nop
      64:	7f c0       	rjmp	.+254    	; 0x164 <__bad_interrupt>
      66:	00 00       	nop
      68:	7d c0       	rjmp	.+250    	; 0x164 <__bad_interrupt>
      6a:	00 00       	nop
      6c:	7b c0       	rjmp	.+246    	; 0x164 <__bad_interrupt>
      6e:	00 00       	nop
      70:	79 c0       	rjmp	.+242    	; 0x164 <__bad_interrupt>
      72:	00 00       	nop
      74:	0c 94 80 08 	jmp	0x1100	; 0x1100 <__vector_29>
      78:	75 c0       	rjmp	.+234    	; 0x164 <__bad_interrupt>
      7a:	00 00       	nop
      7c:	73 c0       	rjmp	.+230    	; 0x164 <__bad_interrupt>
      7e:	00 00       	nop
      80:	71 c0       	rjmp	.+226    	; 0x164 <__bad_interrupt>
      82:	00 00       	nop
      84:	6f c0       	rjmp	.+222    	; 0x164 <__bad_interrupt>
      86:	00 00       	nop
      88:	6d c0       	rjmp	.+218    	; 0x164 <__bad_interrupt>
      8a:	00 00       	nop
      8c:	6b c0       	rjmp	.+214    	; 0x164 <__bad_interrupt>
      8e:	00 00       	nop
      90:	8b c2       	rjmp	.+1302   	; 0x5a8 <__vector_36>
      92:	00 00       	nop
      94:	67 c0       	rjmp	.+206    	; 0x164 <__bad_interrupt>
      96:	00 00       	nop
      98:	e0 c2       	rjmp	.+1472   	; 0x65a <__vector_38>
      9a:	00 00       	nop
      9c:	63 c0       	rjmp	.+198    	; 0x164 <__bad_interrupt>
      9e:	00 00       	nop
      a0:	61 c0       	rjmp	.+194    	; 0x164 <__bad_interrupt>
      a2:	00 00       	nop
      a4:	5f c0       	rjmp	.+190    	; 0x164 <__bad_interrupt>
      a6:	00 00       	nop
      a8:	5d c0       	rjmp	.+186    	; 0x164 <__bad_interrupt>
      aa:	00 00       	nop
      ac:	5b c0       	rjmp	.+182    	; 0x164 <__bad_interrupt>
      ae:	00 00       	nop
      b0:	59 c0       	rjmp	.+178    	; 0x164 <__bad_interrupt>
      b2:	00 00       	nop
      b4:	57 c0       	rjmp	.+174    	; 0x164 <__bad_interrupt>
      b6:	00 00       	nop
      b8:	55 c0       	rjmp	.+170    	; 0x164 <__bad_interrupt>
      ba:	00 00       	nop
      bc:	53 c0       	rjmp	.+166    	; 0x164 <__bad_interrupt>
      be:	00 00       	nop
      c0:	51 c0       	rjmp	.+162    	; 0x164 <__bad_interrupt>
      c2:	00 00       	nop
      c4:	4f c0       	rjmp	.+158    	; 0x164 <__bad_interrupt>
      c6:	00 00       	nop
      c8:	4d c0       	rjmp	.+154    	; 0x164 <__bad_interrupt>
      ca:	00 00       	nop
      cc:	4b c0       	rjmp	.+150    	; 0x164 <__bad_interrupt>
      ce:	00 00       	nop
      d0:	49 c0       	rjmp	.+146    	; 0x164 <__bad_interrupt>
      d2:	00 00       	nop
      d4:	47 c0       	rjmp	.+142    	; 0x164 <__bad_interrupt>
      d6:	00 00       	nop
      d8:	45 c0       	rjmp	.+138    	; 0x164 <__bad_interrupt>
      da:	00 00       	nop
      dc:	43 c0       	rjmp	.+134    	; 0x164 <__bad_interrupt>
      de:	00 00       	nop
      e0:	41 c0       	rjmp	.+130    	; 0x164 <__bad_interrupt>
      e2:	00 00       	nop
      e4:	0c 94 81 0e 	jmp	0x1d02	; 0x1d02 <__vector_57>
      e8:	0c 94 06 09 	jmp	0x120c	; 0x120c <__vector_58>
      ec:	0c 94 f9 0e 	jmp	0x1df2	; 0x1df2 <__vector_59>
      f0:	0c 94 d1 0e 	jmp	0x1da2	; 0x1da2 <__vector_60>
      f4:	0c 94 31 0e 	jmp	0x1c62	; 0x1c62 <__vector_61>
      f8:	0c 94 10 09 	jmp	0x1220	; 0x1220 <__vector_62>
      fc:	0c 94 a9 0e 	jmp	0x1d52	; 0x1d52 <__vector_63>
     100:	0c 94 59 0e 	jmp	0x1cb2	; 0x1cb2 <__vector_64>
     104:	21 c4       	rjmp	.+2114   	; 0x948 <__vector_65>
     106:	00 00       	nop
     108:	0c 94 21 0f 	jmp	0x1e42	; 0x1e42 <__vector_66>
     10c:	60 c5       	rjmp	.+2752   	; 0xbce <__vector_67>
     10e:	00 00       	nop
     110:	ff c2       	rjmp	.+1534   	; 0x710 <__vector_68>
     112:	00 00       	nop
     114:	27 c0       	rjmp	.+78     	; 0x164 <__bad_interrupt>
     116:	00 00       	nop
     118:	25 c0       	rjmp	.+74     	; 0x164 <__bad_interrupt>
     11a:	00 00       	nop
     11c:	23 c0       	rjmp	.+70     	; 0x164 <__bad_interrupt>
	...

00000120 <McuSleepC__atm128PowerBits>:
     120:	00 02 0e 06 0c 04                                   ......

00000126 <__ctors_end>:
     126:	11 24       	eor	r1, r1
     128:	1f be       	out	0x3f, r1	; 63
     12a:	cf ef       	ldi	r28, 0xFF	; 255
     12c:	d1 e4       	ldi	r29, 0x41	; 65
     12e:	de bf       	out	0x3e, r29	; 62
     130:	cd bf       	out	0x3d, r28	; 61

00000132 <__do_copy_data>:
     132:	14 e0       	ldi	r17, 0x04	; 4
     134:	a0 e0       	ldi	r26, 0x00	; 0
     136:	b2 e0       	ldi	r27, 0x02	; 2
     138:	ec e9       	ldi	r30, 0x9C	; 156
     13a:	f3 e3       	ldi	r31, 0x33	; 51
     13c:	00 e0       	ldi	r16, 0x00	; 0
     13e:	0b bf       	out	0x3b, r16	; 59
     140:	02 c0       	rjmp	.+4      	; 0x146 <__do_copy_data+0x14>
     142:	07 90       	elpm	r0, Z+
     144:	0d 92       	st	X+, r0
     146:	a6 36       	cpi	r26, 0x66	; 102
     148:	b1 07       	cpc	r27, r17
     14a:	d9 f7       	brne	.-10     	; 0x142 <__do_copy_data+0x10>

0000014c <__do_clear_bss>:
     14c:	17 e0       	ldi	r17, 0x07	; 7
     14e:	a6 e6       	ldi	r26, 0x66	; 102
     150:	b4 e0       	ldi	r27, 0x04	; 4
     152:	01 c0       	rjmp	.+2      	; 0x156 <.do_clear_bss_start>

00000154 <.do_clear_bss_loop>:
     154:	1d 92       	st	X+, r1

00000156 <.do_clear_bss_start>:
     156:	a0 31       	cpi	r26, 0x10	; 16
     158:	b1 07       	cpc	r27, r17
     15a:	e1 f7       	brne	.-8      	; 0x154 <.do_clear_bss_loop>
     15c:	0e 94 5c 13 	call	0x26b8	; 0x26b8 <main>
     160:	0c 94 cd 19 	jmp	0x339a	; 0x339a <_exit>

00000164 <__bad_interrupt>:
     164:	4d cf       	rjmp	.-358    	; 0x0 <__heap_end>

00000166 <__muldi3>:
     166:	ac e2       	ldi	r26, 0x2C	; 44
     168:	b0 e0       	ldi	r27, 0x00	; 0
     16a:	e9 eb       	ldi	r30, 0xB9	; 185
     16c:	f0 e0       	ldi	r31, 0x00	; 0
     16e:	0c 94 d9 16 	jmp	0x2db2	; 0x2db2 <__prologue_saves__>
     172:	22 2e       	mov	r2, r18
     174:	33 2e       	mov	r3, r19
     176:	44 2e       	mov	r4, r20
     178:	55 2e       	mov	r5, r21
     17a:	66 2e       	mov	r6, r22
     17c:	77 2e       	mov	r7, r23
     17e:	88 2e       	mov	r8, r24
     180:	99 2e       	mov	r9, r25
     182:	fe 01       	movw	r30, r28
     184:	31 96       	adiw	r30, 0x01	; 1
     186:	a8 e0       	ldi	r26, 0x08	; 8
     188:	11 92       	st	Z+, r1
     18a:	aa 95       	dec	r26
     18c:	e9 f7       	brne	.-6      	; 0x188 <__muldi3+0x22>
     18e:	29 82       	std	Y+1, r2	; 0x01
     190:	3a 82       	std	Y+2, r3	; 0x02
     192:	4b 82       	std	Y+3, r4	; 0x03
     194:	5c 82       	std	Y+4, r5	; 0x04
     196:	6d 82       	std	Y+5, r6	; 0x05
     198:	7e 82       	std	Y+6, r7	; 0x06
     19a:	8f 82       	std	Y+7, r8	; 0x07
     19c:	98 86       	std	Y+8, r9	; 0x08
     19e:	fe 01       	movw	r30, r28
     1a0:	39 96       	adiw	r30, 0x09	; 9
     1a2:	b8 e0       	ldi	r27, 0x08	; 8
     1a4:	11 92       	st	Z+, r1
     1a6:	ba 95       	dec	r27
     1a8:	e9 f7       	brne	.-6      	; 0x1a4 <__muldi3+0x3e>
     1aa:	a9 86       	std	Y+9, r10	; 0x09
     1ac:	ba 86       	std	Y+10, r11	; 0x0a
     1ae:	cb 86       	std	Y+11, r12	; 0x0b
     1b0:	dc 86       	std	Y+12, r13	; 0x0c
     1b2:	ed 86       	std	Y+13, r14	; 0x0d
     1b4:	fe 86       	std	Y+14, r15	; 0x0e
     1b6:	0f 87       	std	Y+15, r16	; 0x0f
     1b8:	18 8b       	std	Y+16, r17	; 0x10
     1ba:	89 81       	ldd	r24, Y+1	; 0x01
     1bc:	9a 81       	ldd	r25, Y+2	; 0x02
     1be:	ab 81       	ldd	r26, Y+3	; 0x03
     1c0:	bc 81       	ldd	r27, Y+4	; 0x04
     1c2:	89 a7       	std	Y+41, r24	; 0x29
     1c4:	9a a7       	std	Y+42, r25	; 0x2a
     1c6:	ab a7       	std	Y+43, r26	; 0x2b
     1c8:	bc a7       	std	Y+44, r27	; 0x2c
     1ca:	7c 01       	movw	r14, r24
     1cc:	8d 01       	movw	r16, r26
     1ce:	8f ef       	ldi	r24, 0xFF	; 255
     1d0:	9f ef       	ldi	r25, 0xFF	; 255
     1d2:	a0 e0       	ldi	r26, 0x00	; 0
     1d4:	b0 e0       	ldi	r27, 0x00	; 0
     1d6:	e8 22       	and	r14, r24
     1d8:	f9 22       	and	r15, r25
     1da:	0a 23       	and	r16, r26
     1dc:	1b 23       	and	r17, r27
     1de:	89 a5       	ldd	r24, Y+41	; 0x29
     1e0:	9a a5       	ldd	r25, Y+42	; 0x2a
     1e2:	ab a5       	ldd	r26, Y+43	; 0x2b
     1e4:	bc a5       	ldd	r27, Y+44	; 0x2c
     1e6:	1d 01       	movw	r2, r26
     1e8:	44 24       	eor	r4, r4
     1ea:	55 24       	eor	r5, r5
     1ec:	89 85       	ldd	r24, Y+9	; 0x09
     1ee:	9a 85       	ldd	r25, Y+10	; 0x0a
     1f0:	ab 85       	ldd	r26, Y+11	; 0x0b
     1f2:	bc 85       	ldd	r27, Y+12	; 0x0c
     1f4:	8d a3       	std	Y+37, r24	; 0x25
     1f6:	9e a3       	std	Y+38, r25	; 0x26
     1f8:	af a3       	std	Y+39, r26	; 0x27
     1fa:	b8 a7       	std	Y+40, r27	; 0x28
     1fc:	5c 01       	movw	r10, r24
     1fe:	6d 01       	movw	r12, r26
     200:	8f ef       	ldi	r24, 0xFF	; 255
     202:	9f ef       	ldi	r25, 0xFF	; 255
     204:	a0 e0       	ldi	r26, 0x00	; 0
     206:	b0 e0       	ldi	r27, 0x00	; 0
     208:	a8 22       	and	r10, r24
     20a:	b9 22       	and	r11, r25
     20c:	ca 22       	and	r12, r26
     20e:	db 22       	and	r13, r27
     210:	8d a1       	ldd	r24, Y+37	; 0x25
     212:	9e a1       	ldd	r25, Y+38	; 0x26
     214:	af a1       	ldd	r26, Y+39	; 0x27
     216:	b8 a5       	ldd	r27, Y+40	; 0x28
     218:	3d 01       	movw	r6, r26
     21a:	88 24       	eor	r8, r8
     21c:	99 24       	eor	r9, r9
     21e:	c8 01       	movw	r24, r16
     220:	b7 01       	movw	r22, r14
     222:	a6 01       	movw	r20, r12
     224:	95 01       	movw	r18, r10
     226:	0e 94 ba 16 	call	0x2d74	; 0x2d74 <__mulsi3>
     22a:	69 a3       	std	Y+33, r22	; 0x21
     22c:	7a a3       	std	Y+34, r23	; 0x22
     22e:	8b a3       	std	Y+35, r24	; 0x23
     230:	9c a3       	std	Y+36, r25	; 0x24
     232:	c8 01       	movw	r24, r16
     234:	b7 01       	movw	r22, r14
     236:	a4 01       	movw	r20, r8
     238:	93 01       	movw	r18, r6
     23a:	0e 94 ba 16 	call	0x2d74	; 0x2d74 <__mulsi3>
     23e:	7b 01       	movw	r14, r22
     240:	8c 01       	movw	r16, r24
     242:	c2 01       	movw	r24, r4
     244:	b1 01       	movw	r22, r2
     246:	a6 01       	movw	r20, r12
     248:	95 01       	movw	r18, r10
     24a:	0e 94 ba 16 	call	0x2d74	; 0x2d74 <__mulsi3>
     24e:	5b 01       	movw	r10, r22
     250:	6c 01       	movw	r12, r24
     252:	c2 01       	movw	r24, r4
     254:	b1 01       	movw	r22, r2
     256:	a4 01       	movw	r20, r8
     258:	93 01       	movw	r18, r6
     25a:	0e 94 ba 16 	call	0x2d74	; 0x2d74 <__mulsi3>
     25e:	3b 01       	movw	r6, r22
     260:	4c 01       	movw	r8, r24
     262:	ea 0c       	add	r14, r10
     264:	fb 1c       	adc	r15, r11
     266:	0c 1d       	adc	r16, r12
     268:	1d 1d       	adc	r17, r13
     26a:	89 a1       	ldd	r24, Y+33	; 0x21
     26c:	9a a1       	ldd	r25, Y+34	; 0x22
     26e:	ab a1       	ldd	r26, Y+35	; 0x23
     270:	bc a1       	ldd	r27, Y+36	; 0x24
     272:	9d 01       	movw	r18, r26
     274:	44 27       	eor	r20, r20
     276:	55 27       	eor	r21, r21
     278:	2e 0d       	add	r18, r14
     27a:	3f 1d       	adc	r19, r15
     27c:	40 1f       	adc	r20, r16
     27e:	51 1f       	adc	r21, r17
     280:	2a 15       	cp	r18, r10
     282:	3b 05       	cpc	r19, r11
     284:	4c 05       	cpc	r20, r12
     286:	5d 05       	cpc	r21, r13
     288:	40 f4       	brcc	.+16     	; 0x29a <__muldi3+0x134>
     28a:	80 e0       	ldi	r24, 0x00	; 0
     28c:	90 e0       	ldi	r25, 0x00	; 0
     28e:	a1 e0       	ldi	r26, 0x01	; 1
     290:	b0 e0       	ldi	r27, 0x00	; 0
     292:	68 0e       	add	r6, r24
     294:	79 1e       	adc	r7, r25
     296:	8a 1e       	adc	r8, r26
     298:	9b 1e       	adc	r9, r27
     29a:	ca 01       	movw	r24, r20
     29c:	aa 27       	eor	r26, r26
     29e:	bb 27       	eor	r27, r27
     2a0:	86 0d       	add	r24, r6
     2a2:	97 1d       	adc	r25, r7
     2a4:	a8 1d       	adc	r26, r8
     2a6:	b9 1d       	adc	r27, r9
     2a8:	8d 8f       	std	Y+29, r24	; 0x1d
     2aa:	9e 8f       	std	Y+30, r25	; 0x1e
     2ac:	af 8f       	std	Y+31, r26	; 0x1f
     2ae:	b8 a3       	std	Y+32, r27	; 0x20
     2b0:	a9 01       	movw	r20, r18
     2b2:	33 27       	eor	r19, r19
     2b4:	22 27       	eor	r18, r18
     2b6:	89 a1       	ldd	r24, Y+33	; 0x21
     2b8:	9a a1       	ldd	r25, Y+34	; 0x22
     2ba:	ab a1       	ldd	r26, Y+35	; 0x23
     2bc:	bc a1       	ldd	r27, Y+36	; 0x24
     2be:	a0 70       	andi	r26, 0x00	; 0
     2c0:	b0 70       	andi	r27, 0x00	; 0
     2c2:	28 0f       	add	r18, r24
     2c4:	39 1f       	adc	r19, r25
     2c6:	4a 1f       	adc	r20, r26
     2c8:	5b 1f       	adc	r21, r27
     2ca:	29 8f       	std	Y+25, r18	; 0x19
     2cc:	3a 8f       	std	Y+26, r19	; 0x1a
     2ce:	4b 8f       	std	Y+27, r20	; 0x1b
     2d0:	5c 8f       	std	Y+28, r21	; 0x1c
     2d2:	a9 8c       	ldd	r10, Y+25	; 0x19
     2d4:	ba 8c       	ldd	r11, Y+26	; 0x1a
     2d6:	cb 8c       	ldd	r12, Y+27	; 0x1b
     2d8:	dc 8c       	ldd	r13, Y+28	; 0x1c
     2da:	ed 8c       	ldd	r14, Y+29	; 0x1d
     2dc:	fe 8c       	ldd	r15, Y+30	; 0x1e
     2de:	0f 8d       	ldd	r16, Y+31	; 0x1f
     2e0:	18 a1       	ldd	r17, Y+32	; 0x20
     2e2:	fe 01       	movw	r30, r28
     2e4:	71 96       	adiw	r30, 0x11	; 17
     2e6:	98 e0       	ldi	r25, 0x08	; 8
     2e8:	11 92       	st	Z+, r1
     2ea:	9a 95       	dec	r25
     2ec:	e9 f7       	brne	.-6      	; 0x2e8 <__muldi3+0x182>
     2ee:	ed 8a       	std	Y+21, r14	; 0x15
     2f0:	fe 8a       	std	Y+22, r15	; 0x16
     2f2:	0f 8b       	std	Y+23, r16	; 0x17
     2f4:	18 8f       	std	Y+24, r17	; 0x18
     2f6:	2d 81       	ldd	r18, Y+5	; 0x05
     2f8:	3e 81       	ldd	r19, Y+6	; 0x06
     2fa:	4f 81       	ldd	r20, Y+7	; 0x07
     2fc:	58 85       	ldd	r21, Y+8	; 0x08
     2fe:	6d a1       	ldd	r22, Y+37	; 0x25
     300:	7e a1       	ldd	r23, Y+38	; 0x26
     302:	8f a1       	ldd	r24, Y+39	; 0x27
     304:	98 a5       	ldd	r25, Y+40	; 0x28
     306:	0e 94 ba 16 	call	0x2d74	; 0x2d74 <__mulsi3>
     30a:	3b 01       	movw	r6, r22
     30c:	4c 01       	movw	r8, r24
     30e:	2d 85       	ldd	r18, Y+13	; 0x0d
     310:	3e 85       	ldd	r19, Y+14	; 0x0e
     312:	4f 85       	ldd	r20, Y+15	; 0x0f
     314:	58 89       	ldd	r21, Y+16	; 0x10
     316:	69 a5       	ldd	r22, Y+41	; 0x29
     318:	7a a5       	ldd	r23, Y+42	; 0x2a
     31a:	8b a5       	ldd	r24, Y+43	; 0x2b
     31c:	9c a5       	ldd	r25, Y+44	; 0x2c
     31e:	0e 94 ba 16 	call	0x2d74	; 0x2d74 <__mulsi3>
     322:	2d 89       	ldd	r18, Y+21	; 0x15
     324:	3e 89       	ldd	r19, Y+22	; 0x16
     326:	4f 89       	ldd	r20, Y+23	; 0x17
     328:	58 8d       	ldd	r21, Y+24	; 0x18
     32a:	26 0f       	add	r18, r22
     32c:	37 1f       	adc	r19, r23
     32e:	48 1f       	adc	r20, r24
     330:	59 1f       	adc	r21, r25
     332:	26 0d       	add	r18, r6
     334:	37 1d       	adc	r19, r7
     336:	48 1d       	adc	r20, r8
     338:	59 1d       	adc	r21, r9
     33a:	2d 8b       	std	Y+21, r18	; 0x15
     33c:	3e 8b       	std	Y+22, r19	; 0x16
     33e:	4f 8b       	std	Y+23, r20	; 0x17
     340:	58 8f       	std	Y+24, r21	; 0x18
     342:	6d 88       	ldd	r6, Y+21	; 0x15
     344:	7e 88       	ldd	r7, Y+22	; 0x16
     346:	8f 88       	ldd	r8, Y+23	; 0x17
     348:	98 8c       	ldd	r9, Y+24	; 0x18
     34a:	2a 2d       	mov	r18, r10
     34c:	3b 2d       	mov	r19, r11
     34e:	4c 2d       	mov	r20, r12
     350:	5d 2d       	mov	r21, r13
     352:	66 2d       	mov	r22, r6
     354:	77 2d       	mov	r23, r7
     356:	88 2d       	mov	r24, r8
     358:	99 2d       	mov	r25, r9
     35a:	e2 e1       	ldi	r30, 0x12	; 18
     35c:	ac 96       	adiw	r28, 0x2c	; 44
     35e:	0c 94 f5 16 	jmp	0x2dea	; 0x2dea <__epilogue_restores__>

00000362 <__lshrdi3>:
     362:	a0 e1       	ldi	r26, 0x10	; 16
     364:	b0 e0       	ldi	r27, 0x00	; 0
     366:	e7 eb       	ldi	r30, 0xB7	; 183
     368:	f1 e0       	ldi	r31, 0x01	; 1
     36a:	0c 94 d9 16 	jmp	0x2db2	; 0x2db2 <__prologue_saves__>
     36e:	22 2e       	mov	r2, r18
     370:	33 2e       	mov	r3, r19
     372:	44 2e       	mov	r4, r20
     374:	55 2e       	mov	r5, r21
     376:	66 2e       	mov	r6, r22
     378:	77 2e       	mov	r7, r23
     37a:	88 2e       	mov	r8, r24
     37c:	99 2e       	mov	r9, r25
     37e:	00 23       	and	r16, r16
     380:	09 f4       	brne	.+2      	; 0x384 <__lshrdi3+0x22>
     382:	66 c0       	rjmp	.+204    	; 0x450 <__lshrdi3+0xee>
     384:	88 e0       	ldi	r24, 0x08	; 8
     386:	fe 01       	movw	r30, r28
     388:	31 96       	adiw	r30, 0x01	; 1
     38a:	11 92       	st	Z+, r1
     38c:	8a 95       	dec	r24
     38e:	e9 f7       	brne	.-6      	; 0x38a <__lshrdi3+0x28>
     390:	29 83       	std	Y+1, r18	; 0x01
     392:	3a 83       	std	Y+2, r19	; 0x02
     394:	4b 83       	std	Y+3, r20	; 0x03
     396:	5c 83       	std	Y+4, r21	; 0x04
     398:	6d 83       	std	Y+5, r22	; 0x05
     39a:	7e 83       	std	Y+6, r23	; 0x06
     39c:	8f 82       	std	Y+7, r8	; 0x07
     39e:	98 87       	std	Y+8, r25	; 0x08
     3a0:	e0 e2       	ldi	r30, 0x20	; 32
     3a2:	e0 1b       	sub	r30, r16
     3a4:	1e 16       	cp	r1, r30
     3a6:	cc f5       	brge	.+114    	; 0x41a <__lshrdi3+0xb8>
     3a8:	2d 81       	ldd	r18, Y+5	; 0x05
     3aa:	3e 81       	ldd	r19, Y+6	; 0x06
     3ac:	4f 81       	ldd	r20, Y+7	; 0x07
     3ae:	58 85       	ldd	r21, Y+8	; 0x08
     3b0:	60 2f       	mov	r22, r16
     3b2:	77 27       	eor	r23, r23
     3b4:	67 fd       	sbrc	r22, 7
     3b6:	70 95       	com	r23
     3b8:	da 01       	movw	r26, r20
     3ba:	c9 01       	movw	r24, r18
     3bc:	06 2e       	mov	r0, r22
     3be:	04 c0       	rjmp	.+8      	; 0x3c8 <__lshrdi3+0x66>
     3c0:	b6 95       	lsr	r27
     3c2:	a7 95       	ror	r26
     3c4:	97 95       	ror	r25
     3c6:	87 95       	ror	r24
     3c8:	0a 94       	dec	r0
     3ca:	d2 f7       	brpl	.-12     	; 0x3c0 <__lshrdi3+0x5e>
     3cc:	8d 87       	std	Y+13, r24	; 0x0d
     3ce:	9e 87       	std	Y+14, r25	; 0x0e
     3d0:	af 87       	std	Y+15, r26	; 0x0f
     3d2:	b8 8b       	std	Y+16, r27	; 0x10
     3d4:	04 c0       	rjmp	.+8      	; 0x3de <__lshrdi3+0x7c>
     3d6:	22 0f       	add	r18, r18
     3d8:	33 1f       	adc	r19, r19
     3da:	44 1f       	adc	r20, r20
     3dc:	55 1f       	adc	r21, r21
     3de:	ea 95       	dec	r30
     3e0:	d2 f7       	brpl	.-12     	; 0x3d6 <__lshrdi3+0x74>
     3e2:	89 81       	ldd	r24, Y+1	; 0x01
     3e4:	9a 81       	ldd	r25, Y+2	; 0x02
     3e6:	ab 81       	ldd	r26, Y+3	; 0x03
     3e8:	bc 81       	ldd	r27, Y+4	; 0x04
     3ea:	04 c0       	rjmp	.+8      	; 0x3f4 <__lshrdi3+0x92>
     3ec:	b6 95       	lsr	r27
     3ee:	a7 95       	ror	r26
     3f0:	97 95       	ror	r25
     3f2:	87 95       	ror	r24
     3f4:	6a 95       	dec	r22
     3f6:	d2 f7       	brpl	.-12     	; 0x3ec <__lshrdi3+0x8a>
     3f8:	28 2b       	or	r18, r24
     3fa:	39 2b       	or	r19, r25
     3fc:	4a 2b       	or	r20, r26
     3fe:	5b 2b       	or	r21, r27
     400:	29 87       	std	Y+9, r18	; 0x09
     402:	3a 87       	std	Y+10, r19	; 0x0a
     404:	4b 87       	std	Y+11, r20	; 0x0b
     406:	5c 87       	std	Y+12, r21	; 0x0c
     408:	29 84       	ldd	r2, Y+9	; 0x09
     40a:	3a 84       	ldd	r3, Y+10	; 0x0a
     40c:	4b 84       	ldd	r4, Y+11	; 0x0b
     40e:	5c 84       	ldd	r5, Y+12	; 0x0c
     410:	6d 84       	ldd	r6, Y+13	; 0x0d
     412:	7e 84       	ldd	r7, Y+14	; 0x0e
     414:	8f 84       	ldd	r8, Y+15	; 0x0f
     416:	98 88       	ldd	r9, Y+16	; 0x10
     418:	1b c0       	rjmp	.+54     	; 0x450 <__lshrdi3+0xee>
     41a:	1d 86       	std	Y+13, r1	; 0x0d
     41c:	1e 86       	std	Y+14, r1	; 0x0e
     41e:	1f 86       	std	Y+15, r1	; 0x0f
     420:	18 8a       	std	Y+16, r1	; 0x10
     422:	2e 2f       	mov	r18, r30
     424:	33 27       	eor	r19, r19
     426:	27 fd       	sbrc	r18, 7
     428:	30 95       	com	r19
     42a:	30 95       	com	r19
     42c:	21 95       	neg	r18
     42e:	3f 4f       	sbci	r19, 0xFF	; 255
     430:	8d 81       	ldd	r24, Y+5	; 0x05
     432:	9e 81       	ldd	r25, Y+6	; 0x06
     434:	af 81       	ldd	r26, Y+7	; 0x07
     436:	b8 85       	ldd	r27, Y+8	; 0x08
     438:	04 c0       	rjmp	.+8      	; 0x442 <__lshrdi3+0xe0>
     43a:	b6 95       	lsr	r27
     43c:	a7 95       	ror	r26
     43e:	97 95       	ror	r25
     440:	87 95       	ror	r24
     442:	2a 95       	dec	r18
     444:	d2 f7       	brpl	.-12     	; 0x43a <__lshrdi3+0xd8>
     446:	89 87       	std	Y+9, r24	; 0x09
     448:	9a 87       	std	Y+10, r25	; 0x0a
     44a:	ab 87       	std	Y+11, r26	; 0x0b
     44c:	bc 87       	std	Y+12, r27	; 0x0c
     44e:	dc cf       	rjmp	.-72     	; 0x408 <__lshrdi3+0xa6>
     450:	22 2d       	mov	r18, r2
     452:	33 2d       	mov	r19, r3
     454:	44 2d       	mov	r20, r4
     456:	55 2d       	mov	r21, r5
     458:	66 2d       	mov	r22, r6
     45a:	77 2d       	mov	r23, r7
     45c:	88 2d       	mov	r24, r8
     45e:	99 2d       	mov	r25, r9
     460:	e2 e1       	ldi	r30, 0x12	; 18
     462:	60 96       	adiw	r28, 0x10	; 16
     464:	0c 94 f5 16 	jmp	0x2dea	; 0x2dea <__epilogue_restores__>

00000468 <MetadataFlagsLayerC__0__PacketFlag__clear>:
     468:	fb 01       	movw	r30, r22
     46a:	21 e0       	ldi	r18, 0x01	; 1
     46c:	30 e0       	ldi	r19, 0x00	; 0
     46e:	02 c0       	rjmp	.+4      	; 0x474 <MetadataFlagsLayerC__0__PacketFlag__clear+0xc>
     470:	22 0f       	add	r18, r18
     472:	33 1f       	adc	r19, r19
     474:	8a 95       	dec	r24
     476:	e2 f7       	brpl	.-8      	; 0x470 <MetadataFlagsLayerC__0__PacketFlag__clear+0x8>
     478:	20 95       	com	r18
     47a:	87 a5       	ldd	r24, Z+47	; 0x2f
     47c:	82 23       	and	r24, r18
     47e:	87 a7       	std	Z+47, r24	; 0x2f
     480:	08 95       	ret

00000482 <__nesc_hton_uint32>:
     482:	fc 01       	movw	r30, r24
     484:	43 83       	std	Z+3, r20	; 0x03
     486:	bb 27       	eor	r27, r27
     488:	a7 2f       	mov	r26, r23
     48a:	96 2f       	mov	r25, r22
     48c:	85 2f       	mov	r24, r21
     48e:	82 83       	std	Z+2, r24	; 0x02
     490:	cb 01       	movw	r24, r22
     492:	aa 27       	eor	r26, r26
     494:	bb 27       	eor	r27, r27
     496:	81 83       	std	Z+1, r24	; 0x01
     498:	87 2f       	mov	r24, r23
     49a:	99 27       	eor	r25, r25
     49c:	aa 27       	eor	r26, r26
     49e:	bb 27       	eor	r27, r27
     4a0:	80 83       	st	Z, r24
     4a2:	cb 01       	movw	r24, r22
     4a4:	ba 01       	movw	r22, r20
     4a6:	08 95       	ret

000004a8 <MessageBufferLayerP__0__Tasklet__suspend>:
     4a8:	2f b7       	in	r18, 0x3f	; 63
     4aa:	f8 94       	cli
     4ac:	33 27       	eor	r19, r19
     4ae:	80 91 92 04 	lds	r24, 0x0492
     4b2:	8f 5f       	subi	r24, 0xFF	; 255
     4b4:	80 93 92 04 	sts	0x0492, r24
     4b8:	2f bf       	out	0x3f, r18	; 63
     4ba:	08 95       	ret

000004bc <PacketLinkLayerP__0__getMeta>:
     4bc:	87 96       	adiw	r24, 0x27	; 39
     4be:	08 95       	ret

000004c0 <Atm128AdcP__isPrecise>:
     4c0:	78 2f       	mov	r23, r24
     4c2:	7f 71       	andi	r23, 0x1F	; 31
     4c4:	55 27       	eor	r21, r21
     4c6:	82 95       	swap	r24
     4c8:	86 95       	lsr	r24
     4ca:	86 95       	lsr	r24
     4cc:	83 70       	andi	r24, 0x03	; 3
     4ce:	99 27       	eor	r25, r25
     4d0:	48 17       	cp	r20, r24
     4d2:	59 07       	cpc	r21, r25
     4d4:	19 f0       	breq	.+6      	; 0x4dc <Atm128AdcP__isPrecise+0x1c>
     4d6:	80 e0       	ldi	r24, 0x00	; 0
     4d8:	90 e0       	ldi	r25, 0x00	; 0
     4da:	13 c0       	rjmp	.+38     	; 0x502 <Atm128AdcP__isPrecise+0x42>
     4dc:	86 2f       	mov	r24, r22
     4de:	88 50       	subi	r24, 0x08	; 8
     4e0:	86 31       	cpi	r24, 0x16	; 22
     4e2:	18 f0       	brcs	.+6      	; 0x4ea <Atm128AdcP__isPrecise+0x2a>
     4e4:	81 e0       	ldi	r24, 0x01	; 1
     4e6:	90 e0       	ldi	r25, 0x00	; 0
     4e8:	0c c0       	rjmp	.+24     	; 0x502 <Atm128AdcP__isPrecise+0x42>
     4ea:	40 e0       	ldi	r20, 0x00	; 0
     4ec:	50 e0       	ldi	r21, 0x00	; 0
     4ee:	26 2f       	mov	r18, r22
     4f0:	33 27       	eor	r19, r19
     4f2:	87 2f       	mov	r24, r23
     4f4:	99 27       	eor	r25, r25
     4f6:	28 17       	cp	r18, r24
     4f8:	39 07       	cpc	r19, r25
     4fa:	11 f4       	brne	.+4      	; 0x500 <Atm128AdcP__isPrecise+0x40>
     4fc:	41 e0       	ldi	r20, 0x01	; 1
     4fe:	50 e0       	ldi	r21, 0x00	; 0
     500:	ca 01       	movw	r24, r20
     502:	99 27       	eor	r25, r25
     504:	08 95       	ret

00000506 <Atm128AdcP__HplAtm128Adc__getAdmux>:
     506:	80 91 7c 00 	lds	r24, 0x007C
     50a:	08 95       	ret

0000050c <SchedulerBasicP__popTask>:
     50c:	80 91 2f 06 	lds	r24, 0x062F
     510:	8f 3f       	cpi	r24, 0xFF	; 255
     512:	19 f4       	brne	.+6      	; 0x51a <SchedulerBasicP__popTask+0xe>
     514:	2f ef       	ldi	r18, 0xFF	; 255
     516:	30 e0       	ldi	r19, 0x00	; 0
     518:	0e c0       	rjmp	.+28     	; 0x536 <SchedulerBasicP__popTask+0x2a>
     51a:	28 2f       	mov	r18, r24
     51c:	33 27       	eor	r19, r19
     51e:	f9 01       	movw	r30, r18
     520:	e6 58       	subi	r30, 0x86	; 134
     522:	fb 4f       	sbci	r31, 0xFB	; 251
     524:	80 81       	ld	r24, Z
     526:	80 93 2f 06 	sts	0x062F, r24
     52a:	8f 3f       	cpi	r24, 0xFF	; 255
     52c:	11 f4       	brne	.+4      	; 0x532 <SchedulerBasicP__popTask+0x26>
     52e:	80 93 d4 06 	sts	0x06D4, r24
     532:	8f ef       	ldi	r24, 0xFF	; 255
     534:	80 83       	st	Z, r24
     536:	c9 01       	movw	r24, r18
     538:	08 95       	ret

0000053a <SchedulerBasicP__TaskBasic__postTask>:
     53a:	28 2f       	mov	r18, r24
     53c:	9f b7       	in	r25, 0x3f	; 63
     53e:	f8 94       	cli
     540:	e8 2f       	mov	r30, r24
     542:	ff 27       	eor	r31, r31
     544:	e6 58       	subi	r30, 0x86	; 134
     546:	fb 4f       	sbci	r31, 0xFB	; 251
     548:	80 81       	ld	r24, Z
     54a:	8f 3f       	cpi	r24, 0xFF	; 255
     54c:	81 f4       	brne	.+32     	; 0x56e <SchedulerBasicP__TaskBasic__postTask+0x34>
     54e:	e0 91 d4 06 	lds	r30, 0x06D4
     552:	e2 17       	cp	r30, r18
     554:	71 f4       	brne	.+28     	; 0x572 <SchedulerBasicP__TaskBasic__postTask+0x38>
     556:	0b c0       	rjmp	.+22     	; 0x56e <SchedulerBasicP__TaskBasic__postTask+0x34>
     558:	20 93 2f 06 	sts	0x062F, r18
     55c:	04 c0       	rjmp	.+8      	; 0x566 <SchedulerBasicP__TaskBasic__postTask+0x2c>
     55e:	ff 27       	eor	r31, r31
     560:	e6 58       	subi	r30, 0x86	; 134
     562:	fb 4f       	sbci	r31, 0xFB	; 251
     564:	20 83       	st	Z, r18
     566:	20 93 d4 06 	sts	0x06D4, r18
     56a:	20 e0       	ldi	r18, 0x00	; 0
     56c:	07 c0       	rjmp	.+14     	; 0x57c <SchedulerBasicP__TaskBasic__postTask+0x42>
     56e:	25 e0       	ldi	r18, 0x05	; 5
     570:	05 c0       	rjmp	.+10     	; 0x57c <SchedulerBasicP__TaskBasic__postTask+0x42>
     572:	80 91 2f 06 	lds	r24, 0x062F
     576:	8f 3f       	cpi	r24, 0xFF	; 255
     578:	91 f7       	brne	.-28     	; 0x55e <SchedulerBasicP__TaskBasic__postTask+0x24>
     57a:	ee cf       	rjmp	.-36     	; 0x558 <SchedulerBasicP__TaskBasic__postTask+0x1e>
     57c:	89 2f       	mov	r24, r25
     57e:	99 27       	eor	r25, r25
     580:	8f bf       	out	0x3f, r24	; 63
     582:	82 2f       	mov	r24, r18
     584:	99 27       	eor	r25, r25
     586:	08 95       	ret

00000588 <ArbiterP__0__grantedTask__postTask>:
     588:	8b e0       	ldi	r24, 0x0B	; 11
     58a:	d7 df       	rcall	.-82     	; 0x53a <SchedulerBasicP__TaskBasic__postTask>
     58c:	99 27       	eor	r25, r25
     58e:	08 95       	ret

00000590 <VirtualizeTimerC__0__updateFromTimer__postTask>:
     590:	8a e0       	ldi	r24, 0x0A	; 10
     592:	d3 df       	rcall	.-90     	; 0x53a <SchedulerBasicP__TaskBasic__postTask>
     594:	99 27       	eor	r25, r25
     596:	08 95       	ret

00000598 <MessageBufferLayerP__0__sendTask__postTask>:
     598:	80 e1       	ldi	r24, 0x10	; 16
     59a:	cf df       	rcall	.-98     	; 0x53a <SchedulerBasicP__TaskBasic__postTask>
     59c:	99 27       	eor	r25, r25
     59e:	08 95       	ret

000005a0 <PacketLinkLayerP__0__send__postTask>:
     5a0:	8e e0       	ldi	r24, 0x0E	; 14
     5a2:	cb df       	rcall	.-106    	; 0x53a <SchedulerBasicP__TaskBasic__postTask>
     5a4:	99 27       	eor	r25, r25
     5a6:	08 95       	ret

000005a8 <__vector_36>:
     5a8:	1f 92       	push	r1
     5aa:	0f 92       	push	r0
     5ac:	0f b6       	in	r0, 0x3f	; 63
     5ae:	0f 92       	push	r0
     5b0:	11 24       	eor	r1, r1
     5b2:	2f 93       	push	r18
     5b4:	3f 93       	push	r19
     5b6:	4f 93       	push	r20
     5b8:	5f 93       	push	r21
     5ba:	6f 93       	push	r22
     5bc:	7f 93       	push	r23
     5be:	8f 93       	push	r24
     5c0:	9f 93       	push	r25
     5c2:	af 93       	push	r26
     5c4:	bf 93       	push	r27
     5c6:	ef 93       	push	r30
     5c8:	ff 93       	push	r31
     5ca:	80 91 c8 00 	lds	r24, 0x00C8
     5ce:	87 ff       	sbrs	r24, 7
     5d0:	33 c0       	rjmp	.+102    	; 0x638 <__vector_36+0x90>
     5d2:	40 91 ce 00 	lds	r20, 0x00CE
     5d6:	40 93 66 04 	sts	0x0466, r20
     5da:	e0 91 32 06 	lds	r30, 0x0632
     5de:	f0 91 33 06 	lds	r31, 0x0633
     5e2:	30 97       	sbiw	r30, 0x00	; 0
     5e4:	01 f1       	breq	.+64     	; 0x626 <__vector_36+0x7e>
     5e6:	20 91 a5 05 	lds	r18, 0x05A5
     5ea:	30 91 a6 05 	lds	r19, 0x05A6
     5ee:	80 91 1d 06 	lds	r24, 0x061D
     5f2:	90 91 1e 06 	lds	r25, 0x061E
     5f6:	28 17       	cp	r18, r24
     5f8:	39 07       	cpc	r19, r25
     5fa:	c8 f4       	brcc	.+50     	; 0x62e <__vector_36+0x86>
     5fc:	e2 0f       	add	r30, r18
     5fe:	f3 1f       	adc	r31, r19
     600:	40 83       	st	Z, r20
     602:	80 91 a5 05 	lds	r24, 0x05A5
     606:	90 91 a6 05 	lds	r25, 0x05A6
     60a:	01 96       	adiw	r24, 0x01	; 1
     60c:	90 93 a6 05 	sts	0x05A6, r25
     610:	80 93 a5 05 	sts	0x05A5, r24
     614:	20 91 1d 06 	lds	r18, 0x061D
     618:	30 91 1e 06 	lds	r19, 0x061E
     61c:	82 17       	cp	r24, r18
     61e:	93 07       	cpc	r25, r19
     620:	31 f4       	brne	.+12     	; 0x62e <__vector_36+0x86>
     622:	83 e0       	ldi	r24, 0x03	; 3
     624:	03 c0       	rjmp	.+6      	; 0x62c <__vector_36+0x84>
     626:	40 93 dd 05 	sts	0x05DD, r20
     62a:	84 e0       	ldi	r24, 0x04	; 4
     62c:	86 df       	rcall	.-244    	; 0x53a <SchedulerBasicP__TaskBasic__postTask>
     62e:	80 91 c8 00 	lds	r24, 0x00C8
     632:	8f 77       	andi	r24, 0x7F	; 127
     634:	80 93 c8 00 	sts	0x00C8, r24
     638:	ff 91       	pop	r31
     63a:	ef 91       	pop	r30
     63c:	bf 91       	pop	r27
     63e:	af 91       	pop	r26
     640:	9f 91       	pop	r25
     642:	8f 91       	pop	r24
     644:	7f 91       	pop	r23
     646:	6f 91       	pop	r22
     648:	5f 91       	pop	r21
     64a:	4f 91       	pop	r20
     64c:	3f 91       	pop	r19
     64e:	2f 91       	pop	r18
     650:	0f 90       	pop	r0
     652:	0f be       	out	0x3f, r0	; 63
     654:	0f 90       	pop	r0
     656:	1f 90       	pop	r1
     658:	18 95       	reti

0000065a <__vector_38>:
     65a:	1f 92       	push	r1
     65c:	0f 92       	push	r0
     65e:	0f b6       	in	r0, 0x3f	; 63
     660:	0f 92       	push	r0
     662:	11 24       	eor	r1, r1
     664:	2f 93       	push	r18
     666:	3f 93       	push	r19
     668:	4f 93       	push	r20
     66a:	5f 93       	push	r21
     66c:	6f 93       	push	r22
     66e:	7f 93       	push	r23
     670:	8f 93       	push	r24
     672:	9f 93       	push	r25
     674:	af 93       	push	r26
     676:	bf 93       	push	r27
     678:	ef 93       	push	r30
     67a:	ff 93       	push	r31
     67c:	e0 91 6c 04 	lds	r30, 0x046C
     680:	f0 91 6d 04 	lds	r31, 0x046D
     684:	30 97       	sbiw	r30, 0x00	; 0
     686:	71 f1       	breq	.+92     	; 0x6e4 <__vector_38+0x8a>
     688:	20 91 2d 06 	lds	r18, 0x062D
     68c:	30 91 2e 06 	lds	r19, 0x062E
     690:	80 91 8d 04 	lds	r24, 0x048D
     694:	90 91 8e 04 	lds	r25, 0x048E
     698:	28 17       	cp	r18, r24
     69a:	39 07       	cpc	r19, r25
     69c:	80 f4       	brcc	.+32     	; 0x6be <__vector_38+0x64>
     69e:	80 91 c8 00 	lds	r24, 0x00C8
     6a2:	85 ff       	sbrs	r24, 5
     6a4:	fc cf       	rjmp	.-8      	; 0x69e <__vector_38+0x44>
     6a6:	e2 0f       	add	r30, r18
     6a8:	f3 1f       	adc	r31, r19
     6aa:	80 81       	ld	r24, Z
     6ac:	80 93 ce 00 	sts	0x00CE, r24
     6b0:	2f 5f       	subi	r18, 0xFF	; 255
     6b2:	3f 4f       	sbci	r19, 0xFF	; 255
     6b4:	30 93 2e 06 	sts	0x062E, r19
     6b8:	20 93 2d 06 	sts	0x062D, r18
     6bc:	13 c0       	rjmp	.+38     	; 0x6e4 <__vector_38+0x8a>
     6be:	28 17       	cp	r18, r24
     6c0:	39 07       	cpc	r19, r25
     6c2:	81 f4       	brne	.+32     	; 0x6e4 <__vector_38+0x8a>
     6c4:	10 92 8e 04 	sts	0x048E, r1
     6c8:	10 92 8d 04 	sts	0x048D, r1
     6cc:	10 92 2e 06 	sts	0x062E, r1
     6d0:	10 92 2d 06 	sts	0x062D, r1
     6d4:	10 92 6d 04 	sts	0x046D, r1
     6d8:	10 92 6c 04 	sts	0x046C, r1
     6dc:	10 92 a4 05 	sts	0x05A4, r1
     6e0:	82 e0       	ldi	r24, 0x02	; 2
     6e2:	2b df       	rcall	.-426    	; 0x53a <SchedulerBasicP__TaskBasic__postTask>
     6e4:	80 91 c8 00 	lds	r24, 0x00C8
     6e8:	8f 7b       	andi	r24, 0xBF	; 191
     6ea:	80 93 c8 00 	sts	0x00C8, r24
     6ee:	ff 91       	pop	r31
     6f0:	ef 91       	pop	r30
     6f2:	bf 91       	pop	r27
     6f4:	af 91       	pop	r26
     6f6:	9f 91       	pop	r25
     6f8:	8f 91       	pop	r24
     6fa:	7f 91       	pop	r23
     6fc:	6f 91       	pop	r22
     6fe:	5f 91       	pop	r21
     700:	4f 91       	pop	r20
     702:	3f 91       	pop	r19
     704:	2f 91       	pop	r18
     706:	0f 90       	pop	r0
     708:	0f be       	out	0x3f, r0	; 63
     70a:	0f 90       	pop	r0
     70c:	1f 90       	pop	r1
     70e:	18 95       	reti

00000710 <__vector_68>:
     710:	1f 92       	push	r1
     712:	0f 92       	push	r0
     714:	0f b6       	in	r0, 0x3f	; 63
     716:	0f 92       	push	r0
     718:	11 24       	eor	r1, r1
     71a:	8f 93       	push	r24
     71c:	80 91 e0 05 	lds	r24, 0x05E0
     720:	8f 5f       	subi	r24, 0xFF	; 255
     722:	80 93 e0 05 	sts	0x05E0, r24
     726:	8f 91       	pop	r24
     728:	0f 90       	pop	r0
     72a:	0f be       	out	0x3f, r0	; 63
     72c:	0f 90       	pop	r0
     72e:	1f 90       	pop	r1
     730:	18 95       	reti

00000732 <HplAtmRfa1TimerMacP__Counter__get>:
     732:	4f b7       	in	r20, 0x3f	; 63
     734:	f8 94       	cli
     736:	55 27       	eor	r21, r21
     738:	20 91 e1 00 	lds	r18, 0x00E1
     73c:	62 2f       	mov	r22, r18
     73e:	20 91 e2 00 	lds	r18, 0x00E2
     742:	72 2f       	mov	r23, r18
     744:	20 91 e3 00 	lds	r18, 0x00E3
     748:	82 2f       	mov	r24, r18
     74a:	20 91 e4 00 	lds	r18, 0x00E4
     74e:	92 2f       	mov	r25, r18
     750:	4f bf       	out	0x3f, r20	; 63
     752:	08 95       	ret

00000754 <AtmegaCompareP__1__AtmegaCounter__get>:
     754:	ee cf       	rjmp	.-36     	; 0x732 <HplAtmRfa1TimerMacP__Counter__get>
     756:	08 95       	ret

00000758 <RandomCollisionLayerP__0__RadioAlarm__getNow>:
     758:	fd cf       	rjmp	.-6      	; 0x754 <AtmegaCompareP__1__AtmegaCounter__get>
     75a:	08 95       	ret

0000075c <AtmegaCounterP__0__Counter__get>:
     75c:	ea cf       	rjmp	.-44     	; 0x732 <HplAtmRfa1TimerMacP__Counter__get>
     75e:	08 95       	ret

00000760 <CounterToLocalTimeC__1__LocalTime__get>:
     760:	fd cf       	rjmp	.-6      	; 0x75c <AtmegaCounterP__0__Counter__get>
     762:	08 95       	ret

00000764 <TransformCounterC__0__CounterFrom__get>:
     764:	fb cf       	rjmp	.-10     	; 0x75c <AtmegaCounterP__0__Counter__get>
     766:	08 95       	ret

00000768 <TransformAlarmC__0__Counter__get>:
     768:	0f 93       	push	r16
     76a:	1f 93       	push	r17
     76c:	0f b7       	in	r16, 0x3f	; 63
     76e:	f8 94       	cli
     770:	10 91 e0 05 	lds	r17, 0x05E0
     774:	f7 df       	rcall	.-18     	; 0x764 <TransformCounterC__0__CounterFrom__get>
     776:	9b 01       	movw	r18, r22
     778:	ac 01       	movw	r20, r24
     77a:	80 91 e0 00 	lds	r24, 0x00E0
     77e:	83 ff       	sbrs	r24, 3
     780:	04 c0       	rjmp	.+8      	; 0x78a <TransformAlarmC__0__Counter__get+0x22>
     782:	1f 5f       	subi	r17, 0xFF	; 255
     784:	ef df       	rcall	.-34     	; 0x764 <TransformCounterC__0__CounterFrom__get>
     786:	9b 01       	movw	r18, r22
     788:	ac 01       	movw	r20, r24
     78a:	80 2f       	mov	r24, r16
     78c:	99 27       	eor	r25, r25
     78e:	8f bf       	out	0x3f, r24	; 63
     790:	61 2f       	mov	r22, r17
     792:	77 27       	eor	r23, r23
     794:	88 27       	eor	r24, r24
     796:	99 27       	eor	r25, r25
     798:	fa e1       	ldi	r31, 0x1A	; 26
     79a:	66 0f       	add	r22, r22
     79c:	77 1f       	adc	r23, r23
     79e:	88 1f       	adc	r24, r24
     7a0:	99 1f       	adc	r25, r25
     7a2:	fa 95       	dec	r31
     7a4:	d1 f7       	brne	.-12     	; 0x79a <TransformAlarmC__0__Counter__get+0x32>
     7a6:	e6 e0       	ldi	r30, 0x06	; 6
     7a8:	56 95       	lsr	r21
     7aa:	47 95       	ror	r20
     7ac:	37 95       	ror	r19
     7ae:	27 95       	ror	r18
     7b0:	ea 95       	dec	r30
     7b2:	d1 f7       	brne	.-12     	; 0x7a8 <TransformAlarmC__0__Counter__get+0x40>
     7b4:	62 2b       	or	r22, r18
     7b6:	73 2b       	or	r23, r19
     7b8:	84 2b       	or	r24, r20
     7ba:	95 2b       	or	r25, r21
     7bc:	1f 91       	pop	r17
     7be:	0f 91       	pop	r16
     7c0:	08 95       	ret

000007c2 <TransformAlarmC__0__set_alarm>:
     7c2:	af 92       	push	r10
     7c4:	bf 92       	push	r11
     7c6:	cf 92       	push	r12
     7c8:	df 92       	push	r13
     7ca:	ef 92       	push	r14
     7cc:	ff 92       	push	r15
     7ce:	0f 93       	push	r16
     7d0:	1f 93       	push	r17
     7d2:	ca df       	rcall	.-108    	; 0x768 <TransformAlarmC__0__Counter__get>
     7d4:	7b 01       	movw	r14, r22
     7d6:	8c 01       	movw	r16, r24
     7d8:	20 91 a0 05 	lds	r18, 0x05A0
     7dc:	30 91 a1 05 	lds	r19, 0x05A1
     7e0:	40 91 a2 05 	lds	r20, 0x05A2
     7e4:	50 91 a3 05 	lds	r21, 0x05A3
     7e8:	80 91 9c 05 	lds	r24, 0x059C
     7ec:	90 91 9d 05 	lds	r25, 0x059D
     7f0:	a0 91 9e 05 	lds	r26, 0x059E
     7f4:	b0 91 9f 05 	lds	r27, 0x059F
     7f8:	82 0f       	add	r24, r18
     7fa:	93 1f       	adc	r25, r19
     7fc:	a4 1f       	adc	r26, r20
     7fe:	b5 1f       	adc	r27, r21
     800:	e2 16       	cp	r14, r18
     802:	f3 06       	cpc	r15, r19
     804:	04 07       	cpc	r16, r20
     806:	15 07       	cpc	r17, r21
     808:	30 f0       	brcs	.+12     	; 0x816 <TransformAlarmC__0__set_alarm+0x54>
     80a:	82 17       	cp	r24, r18
     80c:	93 07       	cpc	r25, r19
     80e:	a4 07       	cpc	r26, r20
     810:	b5 07       	cpc	r27, r21
     812:	58 f0       	brcs	.+22     	; 0x82a <TransformAlarmC__0__set_alarm+0x68>
     814:	05 c0       	rjmp	.+10     	; 0x820 <TransformAlarmC__0__set_alarm+0x5e>
     816:	82 17       	cp	r24, r18
     818:	93 07       	cpc	r25, r19
     81a:	a4 07       	cpc	r26, r20
     81c:	b5 07       	cpc	r27, r21
     81e:	e0 f5       	brcc	.+120    	; 0x898 <TransformAlarmC__0__set_alarm+0xd6>
     820:	e8 16       	cp	r14, r24
     822:	f9 06       	cpc	r15, r25
     824:	0a 07       	cpc	r16, r26
     826:	1b 07       	cpc	r17, r27
     828:	b8 f5       	brcc	.+110    	; 0x898 <TransformAlarmC__0__set_alarm+0xd6>
     82a:	9c 01       	movw	r18, r24
     82c:	ad 01       	movw	r20, r26
     82e:	2e 19       	sub	r18, r14
     830:	3f 09       	sbc	r19, r15
     832:	40 0b       	sbc	r20, r16
     834:	51 0b       	sbc	r21, r17
     836:	21 30       	cpi	r18, 0x01	; 1
     838:	60 e0       	ldi	r22, 0x00	; 0
     83a:	36 07       	cpc	r19, r22
     83c:	60 e0       	ldi	r22, 0x00	; 0
     83e:	46 07       	cpc	r20, r22
     840:	62 e0       	ldi	r22, 0x02	; 2
     842:	56 07       	cpc	r21, r22
     844:	68 f1       	brcs	.+90     	; 0x8a0 <TransformAlarmC__0__set_alarm+0xde>
     846:	80 e0       	ldi	r24, 0x00	; 0
     848:	90 e0       	ldi	r25, 0x00	; 0
     84a:	a0 e0       	ldi	r26, 0x00	; 0
     84c:	b2 e0       	ldi	r27, 0x02	; 2
     84e:	e8 0e       	add	r14, r24
     850:	f9 1e       	adc	r15, r25
     852:	0a 1f       	adc	r16, r26
     854:	1b 1f       	adc	r17, r27
     856:	e0 92 a0 05 	sts	0x05A0, r14
     85a:	f0 92 a1 05 	sts	0x05A1, r15
     85e:	00 93 a2 05 	sts	0x05A2, r16
     862:	10 93 a3 05 	sts	0x05A3, r17
     866:	80 e0       	ldi	r24, 0x00	; 0
     868:	90 e0       	ldi	r25, 0x00	; 0
     86a:	a0 e0       	ldi	r26, 0x00	; 0
     86c:	be ef       	ldi	r27, 0xFE	; 254
     86e:	e8 0e       	add	r14, r24
     870:	f9 1e       	adc	r15, r25
     872:	0a 1f       	adc	r16, r26
     874:	1b 1f       	adc	r17, r27
     876:	20 50       	subi	r18, 0x00	; 0
     878:	30 40       	sbci	r19, 0x00	; 0
     87a:	40 40       	sbci	r20, 0x00	; 0
     87c:	52 40       	sbci	r21, 0x02	; 2
     87e:	20 93 9c 05 	sts	0x059C, r18
     882:	30 93 9d 05 	sts	0x059D, r19
     886:	40 93 9e 05 	sts	0x059E, r20
     88a:	50 93 9f 05 	sts	0x059F, r21
     88e:	20 e0       	ldi	r18, 0x00	; 0
     890:	30 e0       	ldi	r19, 0x00	; 0
     892:	40 e0       	ldi	r20, 0x00	; 0
     894:	52 e0       	ldi	r21, 0x02	; 2
     896:	14 c0       	rjmp	.+40     	; 0x8c0 <TransformAlarmC__0__set_alarm+0xfe>
     898:	20 e0       	ldi	r18, 0x00	; 0
     89a:	30 e0       	ldi	r19, 0x00	; 0
     89c:	40 e0       	ldi	r20, 0x00	; 0
     89e:	50 e0       	ldi	r21, 0x00	; 0
     8a0:	80 93 a0 05 	sts	0x05A0, r24
     8a4:	90 93 a1 05 	sts	0x05A1, r25
     8a8:	a0 93 a2 05 	sts	0x05A2, r26
     8ac:	b0 93 a3 05 	sts	0x05A3, r27
     8b0:	10 92 9c 05 	sts	0x059C, r1
     8b4:	10 92 9d 05 	sts	0x059D, r1
     8b8:	10 92 9e 05 	sts	0x059E, r1
     8bc:	10 92 9f 05 	sts	0x059F, r1
     8c0:	59 01       	movw	r10, r18
     8c2:	6a 01       	movw	r12, r20
     8c4:	b6 e0       	ldi	r27, 0x06	; 6
     8c6:	aa 0c       	add	r10, r10
     8c8:	bb 1c       	adc	r11, r11
     8ca:	cc 1c       	adc	r12, r12
     8cc:	dd 1c       	adc	r13, r13
     8ce:	ba 95       	dec	r27
     8d0:	d1 f7       	brne	.-12     	; 0x8c6 <TransformAlarmC__0__set_alarm+0x104>
     8d2:	a6 e0       	ldi	r26, 0x06	; 6
     8d4:	ee 0c       	add	r14, r14
     8d6:	ff 1c       	adc	r15, r15
     8d8:	00 1f       	adc	r16, r16
     8da:	11 1f       	adc	r17, r17
     8dc:	aa 95       	dec	r26
     8de:	d1 f7       	brne	.-12     	; 0x8d4 <TransformAlarmC__0__set_alarm+0x112>
     8e0:	28 df       	rcall	.-432    	; 0x732 <HplAtmRfa1TimerMacP__Counter__get>
     8e2:	9b 01       	movw	r18, r22
     8e4:	ac 01       	movw	r20, r24
     8e6:	2e 5f       	subi	r18, 0xFE	; 254
     8e8:	3f 4f       	sbci	r19, 0xFF	; 255
     8ea:	4f 4f       	sbci	r20, 0xFF	; 255
     8ec:	5f 4f       	sbci	r21, 0xFF	; 255
     8ee:	da 01       	movw	r26, r20
     8f0:	c9 01       	movw	r24, r18
     8f2:	8e 19       	sub	r24, r14
     8f4:	9f 09       	sbc	r25, r15
     8f6:	a0 0b       	sbc	r26, r16
     8f8:	b1 0b       	sbc	r27, r17
     8fa:	8a 15       	cp	r24, r10
     8fc:	9b 05       	cpc	r25, r11
     8fe:	ac 05       	cpc	r26, r12
     900:	bd 05       	cpc	r27, r13
     902:	30 f4       	brcc	.+12     	; 0x910 <TransformAlarmC__0__set_alarm+0x14e>
     904:	a8 01       	movw	r20, r16
     906:	97 01       	movw	r18, r14
     908:	2a 0d       	add	r18, r10
     90a:	3b 1d       	adc	r19, r11
     90c:	4c 1d       	adc	r20, r12
     90e:	5d 1d       	adc	r21, r13
     910:	50 93 f8 00 	sts	0x00F8, r21
     914:	40 93 f7 00 	sts	0x00F7, r20
     918:	30 93 f6 00 	sts	0x00F6, r19
     91c:	20 93 f5 00 	sts	0x00F5, r18
     920:	81 e0       	ldi	r24, 0x01	; 1
     922:	80 93 e0 00 	sts	0x00E0, r24
     926:	80 91 df 00 	lds	r24, 0x00DF
     92a:	81 60       	ori	r24, 0x01	; 1
     92c:	80 93 df 00 	sts	0x00DF, r24
     930:	8f ef       	ldi	r24, 0xFF	; 255
     932:	80 93 61 04 	sts	0x0461, r24
     936:	1f 91       	pop	r17
     938:	0f 91       	pop	r16
     93a:	ff 90       	pop	r15
     93c:	ef 90       	pop	r14
     93e:	df 90       	pop	r13
     940:	cf 90       	pop	r12
     942:	bf 90       	pop	r11
     944:	af 90       	pop	r10
     946:	08 95       	ret

00000948 <__vector_65>:
     948:	1f 92       	push	r1
     94a:	0f 92       	push	r0
     94c:	0f b6       	in	r0, 0x3f	; 63
     94e:	0f 92       	push	r0
     950:	11 24       	eor	r1, r1
     952:	2f 93       	push	r18
     954:	3f 93       	push	r19
     956:	4f 93       	push	r20
     958:	5f 93       	push	r21
     95a:	6f 93       	push	r22
     95c:	7f 93       	push	r23
     95e:	8f 93       	push	r24
     960:	9f 93       	push	r25
     962:	af 93       	push	r26
     964:	bf 93       	push	r27
     966:	ef 93       	push	r30
     968:	ff 93       	push	r31
     96a:	80 91 df 00 	lds	r24, 0x00DF
     96e:	8e 7f       	andi	r24, 0xFE	; 254
     970:	80 93 df 00 	sts	0x00DF, r24
     974:	8f ef       	ldi	r24, 0xFF	; 255
     976:	80 93 61 04 	sts	0x0461, r24
     97a:	80 91 9c 05 	lds	r24, 0x059C
     97e:	90 91 9d 05 	lds	r25, 0x059D
     982:	a0 91 9e 05 	lds	r26, 0x059E
     986:	b0 91 9f 05 	lds	r27, 0x059F
     98a:	00 97       	sbiw	r24, 0x00	; 0
     98c:	a1 05       	cpc	r26, r1
     98e:	b1 05       	cpc	r27, r1
     990:	19 f4       	brne	.+6      	; 0x998 <__vector_65+0x50>
     992:	89 e0       	ldi	r24, 0x09	; 9
     994:	d2 dd       	rcall	.-1116   	; 0x53a <SchedulerBasicP__TaskBasic__postTask>
     996:	01 c0       	rjmp	.+2      	; 0x99a <__vector_65+0x52>
     998:	14 df       	rcall	.-472    	; 0x7c2 <TransformAlarmC__0__set_alarm>
     99a:	ff 91       	pop	r31
     99c:	ef 91       	pop	r30
     99e:	bf 91       	pop	r27
     9a0:	af 91       	pop	r26
     9a2:	9f 91       	pop	r25
     9a4:	8f 91       	pop	r24
     9a6:	7f 91       	pop	r23
     9a8:	6f 91       	pop	r22
     9aa:	5f 91       	pop	r21
     9ac:	4f 91       	pop	r20
     9ae:	3f 91       	pop	r19
     9b0:	2f 91       	pop	r18
     9b2:	0f 90       	pop	r0
     9b4:	0f be       	out	0x3f, r0	; 63
     9b6:	0f 90       	pop	r0
     9b8:	1f 90       	pop	r1
     9ba:	18 95       	reti

000009bc <VirtualizeTimerC__0__TimerFrom__getNow>:
     9bc:	d5 ce       	rjmp	.-598    	; 0x768 <TransformAlarmC__0__Counter__get>
     9be:	08 95       	ret

000009c0 <MetadataFlagsLayerC__0__PacketFlag__set>:
     9c0:	fb 01       	movw	r30, r22
     9c2:	21 e0       	ldi	r18, 0x01	; 1
     9c4:	30 e0       	ldi	r19, 0x00	; 0
     9c6:	02 c0       	rjmp	.+4      	; 0x9cc <MetadataFlagsLayerC__0__PacketFlag__set+0xc>
     9c8:	22 0f       	add	r18, r18
     9ca:	33 1f       	adc	r19, r19
     9cc:	8a 95       	dec	r24
     9ce:	e2 f7       	brpl	.-8      	; 0x9c8 <MetadataFlagsLayerC__0__PacketFlag__set+0x8>
     9d0:	87 a5       	ldd	r24, Z+47	; 0x2f
     9d2:	82 2b       	or	r24, r18
     9d4:	87 a7       	std	Z+47, r24	; 0x2f
     9d6:	08 95       	ret

000009d8 <RFA1DriverLayerP__PacketTimeStamp__set>:
     9d8:	cf 92       	push	r12
     9da:	df 92       	push	r13
     9dc:	ef 92       	push	r14
     9de:	ff 92       	push	r15
     9e0:	0f 93       	push	r16
     9e2:	1f 93       	push	r17
     9e4:	6c 01       	movw	r12, r24
     9e6:	7a 01       	movw	r14, r20
     9e8:	8b 01       	movw	r16, r22
     9ea:	bc 01       	movw	r22, r24
     9ec:	81 e0       	ldi	r24, 0x01	; 1
     9ee:	e8 df       	rcall	.-48     	; 0x9c0 <MetadataFlagsLayerC__0__PacketFlag__set>
     9f0:	f6 01       	movw	r30, r12
     9f2:	e3 a6       	std	Z+43, r14	; 0x2b
     9f4:	f4 a6       	std	Z+44, r15	; 0x2c
     9f6:	05 a7       	std	Z+45, r16	; 0x2d
     9f8:	16 a7       	std	Z+46, r17	; 0x2e
     9fa:	1f 91       	pop	r17
     9fc:	0f 91       	pop	r16
     9fe:	ff 90       	pop	r15
     a00:	ef 90       	pop	r14
     a02:	df 90       	pop	r13
     a04:	cf 90       	pop	r12
     a06:	08 95       	ret

00000a08 <Ieee154PacketLayerP__0__Ieee154PacketLayer__getAckRequired>:
     a08:	fc 01       	movw	r30, r24
     a0a:	82 81       	ldd	r24, Z+2	; 0x02
     a0c:	99 27       	eor	r25, r25
     a0e:	98 2f       	mov	r25, r24
     a10:	88 27       	eor	r24, r24
     a12:	21 81       	ldd	r18, Z+1	; 0x01
     a14:	33 27       	eor	r19, r19
     a16:	82 2b       	or	r24, r18
     a18:	93 2b       	or	r25, r19
     a1a:	25 e0       	ldi	r18, 0x05	; 5
     a1c:	96 95       	lsr	r25
     a1e:	87 95       	ror	r24
     a20:	2a 95       	dec	r18
     a22:	e1 f7       	brne	.-8      	; 0xa1c <Ieee154PacketLayerP__0__Ieee154PacketLayer__getAckRequired+0x14>
     a24:	81 70       	andi	r24, 0x01	; 1
     a26:	90 70       	andi	r25, 0x00	; 0
     a28:	08 95       	ret

00000a2a <Ieee154PacketLayerP__0__Ieee154PacketLayer__isDataFrame>:
     a2a:	fc 01       	movw	r30, r24
     a2c:	40 e0       	ldi	r20, 0x00	; 0
     a2e:	50 e0       	ldi	r21, 0x00	; 0
     a30:	82 81       	ldd	r24, Z+2	; 0x02
     a32:	99 27       	eor	r25, r25
     a34:	98 2f       	mov	r25, r24
     a36:	88 27       	eor	r24, r24
     a38:	21 81       	ldd	r18, Z+1	; 0x01
     a3a:	33 27       	eor	r19, r19
     a3c:	82 2b       	or	r24, r18
     a3e:	93 2b       	or	r25, r19
     a40:	87 74       	andi	r24, 0x47	; 71
     a42:	9c 7c       	andi	r25, 0xCC	; 204
     a44:	81 54       	subi	r24, 0x41	; 65
     a46:	98 48       	sbci	r25, 0x88	; 136
     a48:	11 f4       	brne	.+4      	; 0xa4e <Ieee154PacketLayerP__0__Ieee154PacketLayer__isDataFrame+0x24>
     a4a:	41 e0       	ldi	r20, 0x01	; 1
     a4c:	50 e0       	ldi	r21, 0x00	; 0
     a4e:	ca 01       	movw	r24, r20
     a50:	08 95       	ret

00000a52 <Ieee154PacketLayerP__0__Ieee154PacketLayer__getDestAddr>:
     a52:	fc 01       	movw	r30, r24
     a54:	87 81       	ldd	r24, Z+7	; 0x07
     a56:	99 27       	eor	r25, r25
     a58:	98 2f       	mov	r25, r24
     a5a:	88 27       	eor	r24, r24
     a5c:	26 81       	ldd	r18, Z+6	; 0x06
     a5e:	33 27       	eor	r19, r19
     a60:	82 2b       	or	r24, r18
     a62:	93 2b       	or	r25, r19
     a64:	08 95       	ret

00000a66 <RadioAlarmP__0__RadioAlarm__wait>:
     a66:	ef 92       	push	r14
     a68:	ff 92       	push	r15
     a6a:	0f 93       	push	r16
     a6c:	1f 93       	push	r17
     a6e:	cf 93       	push	r28
     a70:	df 93       	push	r29
     a72:	7a 01       	movw	r14, r20
     a74:	8b 01       	movw	r16, r22
     a76:	80 93 a7 05 	sts	0x05A7, r24
     a7a:	81 e0       	ldi	r24, 0x01	; 1
     a7c:	80 93 08 06 	sts	0x0608, r24
     a80:	8f b7       	in	r24, 0x3f	; 63
     a82:	f8 94       	cli
     a84:	c8 2f       	mov	r28, r24
     a86:	dd 27       	eor	r29, r29
     a88:	65 de       	rcall	.-822    	; 0x754 <AtmegaCompareP__1__AtmegaCounter__get>
     a8a:	9b 01       	movw	r18, r22
     a8c:	ac 01       	movw	r20, r24
     a8e:	c8 01       	movw	r24, r16
     a90:	b7 01       	movw	r22, r14
     a92:	62 30       	cpi	r22, 0x02	; 2
     a94:	71 05       	cpc	r23, r1
     a96:	81 05       	cpc	r24, r1
     a98:	91 05       	cpc	r25, r1
     a9a:	20 f4       	brcc	.+8      	; 0xaa4 <RadioAlarmP__0__RadioAlarm__wait+0x3e>
     a9c:	62 e0       	ldi	r22, 0x02	; 2
     a9e:	70 e0       	ldi	r23, 0x00	; 0
     aa0:	80 e0       	ldi	r24, 0x00	; 0
     aa2:	90 e0       	ldi	r25, 0x00	; 0
     aa4:	26 0f       	add	r18, r22
     aa6:	37 1f       	adc	r19, r23
     aa8:	48 1f       	adc	r20, r24
     aaa:	59 1f       	adc	r21, r25
     aac:	da 01       	movw	r26, r20
     aae:	c9 01       	movw	r24, r18
     ab0:	b0 93 f4 00 	sts	0x00F4, r27
     ab4:	a0 93 f3 00 	sts	0x00F3, r26
     ab8:	90 93 f2 00 	sts	0x00F2, r25
     abc:	20 93 f1 00 	sts	0x00F1, r18
     ac0:	82 e0       	ldi	r24, 0x02	; 2
     ac2:	80 93 e0 00 	sts	0x00E0, r24
     ac6:	80 91 df 00 	lds	r24, 0x00DF
     aca:	82 60       	ori	r24, 0x02	; 2
     acc:	80 93 df 00 	sts	0x00DF, r24
     ad0:	8f ef       	ldi	r24, 0xFF	; 255
     ad2:	80 93 61 04 	sts	0x0461, r24
     ad6:	cf bf       	out	0x3f, r28	; 63
     ad8:	df 91       	pop	r29
     ada:	cf 91       	pop	r28
     adc:	1f 91       	pop	r17
     ade:	0f 91       	pop	r16
     ae0:	ff 90       	pop	r15
     ae2:	ef 90       	pop	r14
     ae4:	08 95       	ret

00000ae6 <RandomCollisionLayerP__0__RadioSend__sendDone>:
     ae6:	80 93 37 06 	sts	0x0637, r24
     aea:	88 23       	and	r24, r24
     aec:	11 f4       	brne	.+4      	; 0xaf2 <RandomCollisionLayerP__0__RadioSend__sendDone+0xc>
     aee:	84 e0       	ldi	r24, 0x04	; 4
     af0:	01 c0       	rjmp	.+2      	; 0xaf4 <RandomCollisionLayerP__0__RadioSend__sendDone+0xe>
     af2:	81 e0       	ldi	r24, 0x01	; 1
     af4:	80 93 96 05 	sts	0x0596, r24
     af8:	4f cd       	rjmp	.-1378   	; 0x598 <MessageBufferLayerP__0__sendTask__postTask>

00000afa <SoftwareAckLayerC__0__RadioSend__sendDone>:
     afa:	10 92 97 05 	sts	0x0597, r1
     afe:	f3 cf       	rjmp	.-26     	; 0xae6 <RandomCollisionLayerP__0__RadioSend__sendDone>

00000b00 <SoftwareAckLayerC__0__Config__isAckPacket>:
     b00:	20 e0       	ldi	r18, 0x00	; 0
     b02:	fc 01       	movw	r30, r24
     b04:	81 81       	ldd	r24, Z+1	; 0x01
     b06:	87 70       	andi	r24, 0x07	; 7
     b08:	82 30       	cpi	r24, 0x02	; 2
     b0a:	09 f4       	brne	.+2      	; 0xb0e <SoftwareAckLayerC__0__Config__isAckPacket+0xe>
     b0c:	21 e0       	ldi	r18, 0x01	; 1
     b0e:	82 2f       	mov	r24, r18
     b10:	99 27       	eor	r25, r25
     b12:	08 95       	ret

00000b14 <RFA1RadioP__Ieee154PacketLayer__requiresAckReply>:
     b14:	cf 93       	push	r28
     b16:	df 93       	push	r29
     b18:	ec 01       	movw	r28, r24
     b1a:	76 df       	rcall	.-276    	; 0xa08 <Ieee154PacketLayerP__0__Ieee154PacketLayer__getAckRequired>
     b1c:	88 23       	and	r24, r24
     b1e:	c1 f0       	breq	.+48     	; 0xb50 <RFA1RadioP__Ieee154PacketLayer__requiresAckReply+0x3c>
     b20:	ce 01       	movw	r24, r28
     b22:	83 df       	rcall	.-250    	; 0xa2a <Ieee154PacketLayerP__0__Ieee154PacketLayer__isDataFrame>
     b24:	88 23       	and	r24, r24
     b26:	a1 f0       	breq	.+40     	; 0xb50 <RFA1RadioP__Ieee154PacketLayer__requiresAckReply+0x3c>
     b28:	ce 01       	movw	r24, r28
     b2a:	93 df       	rcall	.-218    	; 0xa52 <Ieee154PacketLayerP__0__Ieee154PacketLayer__getDestAddr>
     b2c:	2f b7       	in	r18, 0x3f	; 63
     b2e:	f8 94       	cli
     b30:	33 27       	eor	r19, r19
     b32:	40 91 64 04 	lds	r20, 0x0464
     b36:	50 91 65 04 	lds	r21, 0x0465
     b3a:	2f bf       	out	0x3f, r18	; 63
     b3c:	20 e0       	ldi	r18, 0x00	; 0
     b3e:	84 17       	cp	r24, r20
     b40:	95 07       	cpc	r25, r21
     b42:	09 f0       	breq	.+2      	; 0xb46 <RFA1RadioP__Ieee154PacketLayer__requiresAckReply+0x32>
     b44:	21 e0       	ldi	r18, 0x01	; 1
     b46:	81 e0       	ldi	r24, 0x01	; 1
     b48:	28 27       	eor	r18, r24
     b4a:	82 2f       	mov	r24, r18
     b4c:	99 27       	eor	r25, r25
     b4e:	02 c0       	rjmp	.+4      	; 0xb54 <RFA1RadioP__Ieee154PacketLayer__requiresAckReply+0x40>
     b50:	80 e0       	ldi	r24, 0x00	; 0
     b52:	90 e0       	ldi	r25, 0x00	; 0
     b54:	df 91       	pop	r29
     b56:	cf 91       	pop	r28
     b58:	08 95       	ret

00000b5a <MetadataFlagsLayerC__0__PacketFlag__get>:
     b5a:	fb 01       	movw	r30, r22
     b5c:	21 e0       	ldi	r18, 0x01	; 1
     b5e:	30 e0       	ldi	r19, 0x00	; 0
     b60:	02 c0       	rjmp	.+4      	; 0xb66 <MetadataFlagsLayerC__0__PacketFlag__get+0xc>
     b62:	22 0f       	add	r18, r18
     b64:	33 1f       	adc	r19, r19
     b66:	8a 95       	dec	r24
     b68:	e2 f7       	brpl	.-8      	; 0xb62 <MetadataFlagsLayerC__0__PacketFlag__get+0x8>
     b6a:	87 a5       	ldd	r24, Z+47	; 0x2f
     b6c:	82 23       	and	r24, r18
     b6e:	99 27       	eor	r25, r25
     b70:	08 95       	ret

00000b72 <RandomCollisionLayerP__0__RadioAlarm__wait>:
     b72:	ab 01       	movw	r20, r22
     b74:	bc 01       	movw	r22, r24
     b76:	80 e0       	ldi	r24, 0x00	; 0
     b78:	76 cf       	rjmp	.-276    	; 0xa66 <RadioAlarmP__0__RadioAlarm__wait>

00000b7a <RandomCollisionLayerP__0__RadioSend__ready>:
     b7a:	80 91 96 05 	lds	r24, 0x0596
     b7e:	82 30       	cpi	r24, 0x02	; 2
     b80:	21 f4       	brne	.+8      	; 0xb8a <RandomCollisionLayerP__0__RadioSend__ready+0x10>
     b82:	81 e0       	ldi	r24, 0x01	; 1
     b84:	80 93 96 05 	sts	0x0596, r24
     b88:	07 cd       	rjmp	.-1522   	; 0x598 <MessageBufferLayerP__0__sendTask__postTask>
     b8a:	08 95       	ret

00000b8c <RandomCollisionLayerP__0__getBackoff>:
     b8c:	ef 92       	push	r14
     b8e:	ff 92       	push	r15
     b90:	0f 93       	push	r16
     b92:	1f 93       	push	r17
     b94:	7c 01       	movw	r14, r24
     b96:	8f b7       	in	r24, 0x3f	; 63
     b98:	f8 94       	cli
     b9a:	99 27       	eor	r25, r25
     b9c:	00 91 11 06 	lds	r16, 0x0611
     ba0:	10 91 12 06 	lds	r17, 0x0612
     ba4:	0f 5e       	subi	r16, 0xEF	; 239
     ba6:	1e 4f       	sbci	r17, 0xFE	; 254
     ba8:	10 93 12 06 	sts	0x0612, r17
     bac:	00 93 11 06 	sts	0x0611, r16
     bb0:	01 51       	subi	r16, 0x11	; 17
     bb2:	11 40       	sbci	r17, 0x01	; 1
     bb4:	8f bf       	out	0x3f, r24	; 63
     bb6:	82 e1       	ldi	r24, 0x12	; 18
     bb8:	c0 dc       	rcall	.-1664   	; 0x53a <SchedulerBasicP__TaskBasic__postTask>
     bba:	c8 01       	movw	r24, r16
     bbc:	b7 01       	movw	r22, r14
     bbe:	0e 94 a6 16 	call	0x2d4c	; 0x2d4c <__udivmodhi4>
     bc2:	44 96       	adiw	r24, 0x14	; 20
     bc4:	1f 91       	pop	r17
     bc6:	0f 91       	pop	r16
     bc8:	ff 90       	pop	r15
     bca:	ef 90       	pop	r14
     bcc:	08 95       	ret

00000bce <__vector_67>:
     bce:	1f 92       	push	r1
     bd0:	0f 92       	push	r0
     bd2:	0f b6       	in	r0, 0x3f	; 63
     bd4:	0f 92       	push	r0
     bd6:	11 24       	eor	r1, r1
     bd8:	0f 90       	pop	r0
     bda:	0f be       	out	0x3f, r0	; 63
     bdc:	0f 90       	pop	r0
     bde:	1f 90       	pop	r1
     be0:	18 95       	reti

00000be2 <VirtualizeTimerC__0__startTimer>:
     be2:	ef 92       	push	r14
     be4:	0f 93       	push	r16
     be6:	1f 93       	push	r17
     be8:	ae 2d       	mov	r26, r14
     bea:	99 e0       	ldi	r25, 0x09	; 9
     bec:	89 9f       	mul	r24, r25
     bee:	f0 01       	movw	r30, r0
     bf0:	11 24       	eor	r1, r1
     bf2:	ec 51       	subi	r30, 0x1C	; 28
     bf4:	fa 4f       	sbci	r31, 0xFA	; 250
     bf6:	40 83       	st	Z, r20
     bf8:	51 83       	std	Z+1, r21	; 0x01
     bfa:	62 83       	std	Z+2, r22	; 0x02
     bfc:	73 83       	std	Z+3, r23	; 0x03
     bfe:	04 83       	std	Z+4, r16	; 0x04
     c00:	15 83       	std	Z+5, r17	; 0x05
     c02:	26 83       	std	Z+6, r18	; 0x06
     c04:	37 83       	std	Z+7, r19	; 0x07
     c06:	a1 70       	andi	r26, 0x01	; 1
     c08:	80 85       	ldd	r24, Z+8	; 0x08
     c0a:	8e 7f       	andi	r24, 0xFE	; 254
     c0c:	8a 2b       	or	r24, r26
     c0e:	82 60       	ori	r24, 0x02	; 2
     c10:	80 87       	std	Z+8, r24	; 0x08
     c12:	be dc       	rcall	.-1668   	; 0x590 <VirtualizeTimerC__0__updateFromTimer__postTask>
     c14:	1f 91       	pop	r17
     c16:	0f 91       	pop	r16
     c18:	ef 90       	pop	r14
     c1a:	08 95       	ret

00000c1c <RoundRobinResourceQueueC__0__RoundRobinQueue__isEnqueued>:
     c1c:	98 2f       	mov	r25, r24
     c1e:	96 95       	lsr	r25
     c20:	96 95       	lsr	r25
     c22:	96 95       	lsr	r25
     c24:	e3 ee       	ldi	r30, 0xE3	; 227
     c26:	f5 e0       	ldi	r31, 0x05	; 5
     c28:	e9 0f       	add	r30, r25
     c2a:	f1 1d       	adc	r31, r1
     c2c:	87 70       	andi	r24, 0x07	; 7
     c2e:	21 e0       	ldi	r18, 0x01	; 1
     c30:	30 e0       	ldi	r19, 0x00	; 0
     c32:	02 c0       	rjmp	.+4      	; 0xc38 <RoundRobinResourceQueueC__0__RoundRobinQueue__isEnqueued+0x1c>
     c34:	22 0f       	add	r18, r18
     c36:	33 1f       	adc	r19, r19
     c38:	8a 95       	dec	r24
     c3a:	e2 f7       	brpl	.-8      	; 0xc34 <RoundRobinResourceQueueC__0__RoundRobinQueue__isEnqueued+0x18>
     c3c:	80 81       	ld	r24, Z
     c3e:	82 23       	and	r24, r18
     c40:	99 27       	eor	r25, r25
     c42:	08 95       	ret

00000c44 <ArbiterP__0__Resource__release>:
     c44:	ef 92       	push	r14
     c46:	ff 92       	push	r15
     c48:	0f 93       	push	r16
     c4a:	1f 93       	push	r17
     c4c:	cf 93       	push	r28
     c4e:	df 93       	push	r29
     c50:	98 2f       	mov	r25, r24
     c52:	8f b7       	in	r24, 0x3f	; 63
     c54:	f8 94       	cli
     c56:	e8 2e       	mov	r14, r24
     c58:	80 91 68 04 	lds	r24, 0x0468
     c5c:	83 30       	cpi	r24, 0x03	; 3
     c5e:	09 f0       	breq	.+2      	; 0xc62 <ArbiterP__0__Resource__release+0x1e>
     c60:	42 c0       	rjmp	.+132    	; 0xce6 <ArbiterP__0__Resource__release+0xa2>
     c62:	80 91 62 04 	lds	r24, 0x0462
     c66:	89 17       	cp	r24, r25
     c68:	09 f0       	breq	.+2      	; 0xc6c <ArbiterP__0__Resource__release+0x28>
     c6a:	3d c0       	rjmp	.+122    	; 0xce6 <ArbiterP__0__Resource__release+0xa2>
     c6c:	80 91 e3 05 	lds	r24, 0x05E3
     c70:	88 23       	and	r24, r24
     c72:	09 f0       	breq	.+2      	; 0xc76 <ArbiterP__0__Resource__release+0x32>
     c74:	4a c0       	rjmp	.+148    	; 0xd0a <ArbiterP__0__Resource__release+0xc6>
     c76:	3b c0       	rjmp	.+118    	; 0xcee <ArbiterP__0__Resource__release+0xaa>
     c78:	ef 2d       	mov	r30, r15
     c7a:	e6 95       	lsr	r30
     c7c:	e6 95       	lsr	r30
     c7e:	e6 95       	lsr	r30
     c80:	ff 27       	eor	r31, r31
     c82:	4f 2d       	mov	r20, r15
     c84:	55 27       	eor	r21, r21
     c86:	ed 51       	subi	r30, 0x1D	; 29
     c88:	fa 4f       	sbci	r31, 0xFA	; 250
     c8a:	9a 01       	movw	r18, r20
     c8c:	27 70       	andi	r18, 0x07	; 7
     c8e:	30 70       	andi	r19, 0x00	; 0
     c90:	81 e0       	ldi	r24, 0x01	; 1
     c92:	90 e0       	ldi	r25, 0x00	; 0
     c94:	02 c0       	rjmp	.+4      	; 0xc9a <ArbiterP__0__Resource__release+0x56>
     c96:	88 0f       	add	r24, r24
     c98:	99 1f       	adc	r25, r25
     c9a:	2a 95       	dec	r18
     c9c:	e2 f7       	brpl	.-8      	; 0xc96 <ArbiterP__0__Resource__release+0x52>
     c9e:	80 95       	com	r24
     ca0:	20 81       	ld	r18, Z
     ca2:	28 23       	and	r18, r24
     ca4:	20 83       	st	Z, r18
     ca6:	c0 93 67 04 	sts	0x0467, r28
     caa:	10 c0       	rjmp	.+32     	; 0xccc <ArbiterP__0__Resource__release+0x88>
     cac:	21 96       	adiw	r28, 0x01	; 1
     cae:	c3 30       	cpi	r28, 0x03	; 3
     cb0:	d1 05       	cpc	r29, r1
     cb2:	11 f4       	brne	.+4      	; 0xcb8 <ArbiterP__0__Resource__release+0x74>
     cb4:	c0 e0       	ldi	r28, 0x00	; 0
     cb6:	d0 e0       	ldi	r29, 0x00	; 0
     cb8:	fc 2e       	mov	r15, r28
     cba:	8c 2f       	mov	r24, r28
     cbc:	af df       	rcall	.-162    	; 0xc1c <RoundRobinResourceQueueC__0__RoundRobinQueue__isEnqueued>
     cbe:	88 23       	and	r24, r24
     cc0:	d9 f6       	brne	.-74     	; 0xc78 <ArbiterP__0__Resource__release+0x34>
     cc2:	c0 17       	cp	r28, r16
     cc4:	d1 07       	cpc	r29, r17
     cc6:	91 f7       	brne	.-28     	; 0xcac <ArbiterP__0__Resource__release+0x68>
     cc8:	4f ef       	ldi	r20, 0xFF	; 255
     cca:	50 e0       	ldi	r21, 0x00	; 0
     ccc:	40 93 15 06 	sts	0x0615, r20
     cd0:	8f ef       	ldi	r24, 0xFF	; 255
     cd2:	80 93 62 04 	sts	0x0462, r24
     cd6:	81 e0       	ldi	r24, 0x01	; 1
     cd8:	80 93 68 04 	sts	0x0468, r24
     cdc:	55 dc       	rcall	.-1878   	; 0x588 <ArbiterP__0__grantedTask__postTask>
     cde:	ef be       	out	0x3f, r14	; 63
     ce0:	80 e0       	ldi	r24, 0x00	; 0
     ce2:	90 e0       	ldi	r25, 0x00	; 0
     ce4:	18 c0       	rjmp	.+48     	; 0xd16 <ArbiterP__0__Resource__release+0xd2>
     ce6:	ef be       	out	0x3f, r14	; 63
     ce8:	81 e0       	ldi	r24, 0x01	; 1
     cea:	90 e0       	ldi	r25, 0x00	; 0
     cec:	14 c0       	rjmp	.+40     	; 0xd16 <ArbiterP__0__Resource__release+0xd2>
     cee:	83 e0       	ldi	r24, 0x03	; 3
     cf0:	80 93 62 04 	sts	0x0462, r24
     cf4:	10 92 68 04 	sts	0x0468, r1
     cf8:	80 91 7a 00 	lds	r24, 0x007A
     cfc:	8f 77       	andi	r24, 0x7F	; 127
     cfe:	80 93 7a 00 	sts	0x007A, r24
     d02:	8f ef       	ldi	r24, 0xFF	; 255
     d04:	80 93 61 04 	sts	0x0461, r24
     d08:	ea cf       	rjmp	.-44     	; 0xcde <ArbiterP__0__Resource__release+0x9a>
     d0a:	80 91 67 04 	lds	r24, 0x0467
     d0e:	08 2f       	mov	r16, r24
     d10:	11 27       	eor	r17, r17
     d12:	e8 01       	movw	r28, r16
     d14:	cb cf       	rjmp	.-106    	; 0xcac <ArbiterP__0__Resource__release+0x68>
     d16:	df 91       	pop	r29
     d18:	cf 91       	pop	r28
     d1a:	1f 91       	pop	r17
     d1c:	0f 91       	pop	r16
     d1e:	ff 90       	pop	r15
     d20:	ef 90       	pop	r14
     d22:	08 95       	ret

00000d24 <BlinkC__SerialStream__send>:
     d24:	ac 01       	movw	r20, r24
     d26:	8f b7       	in	r24, 0x3f	; 63
     d28:	f8 94       	cli
     d2a:	28 2f       	mov	r18, r24
     d2c:	33 27       	eor	r19, r19
     d2e:	80 91 a4 05 	lds	r24, 0x05A4
     d32:	88 23       	and	r24, r24
     d34:	21 f0       	breq	.+8      	; 0xd3e <BlinkC__SerialStream__send+0x1a>
     d36:	2f bf       	out	0x3f, r18	; 63
     d38:	85 e0       	ldi	r24, 0x05	; 5
     d3a:	90 e0       	ldi	r25, 0x00	; 0
     d3c:	08 95       	ret
     d3e:	81 e0       	ldi	r24, 0x01	; 1
     d40:	80 93 a4 05 	sts	0x05A4, r24
     d44:	2f bf       	out	0x3f, r18	; 63
     d46:	50 93 6d 04 	sts	0x046D, r21
     d4a:	40 93 6c 04 	sts	0x046C, r20
     d4e:	70 93 8e 04 	sts	0x048E, r23
     d52:	60 93 8d 04 	sts	0x048D, r22
     d56:	20 e0       	ldi	r18, 0x00	; 0
     d58:	30 e0       	ldi	r19, 0x00	; 0
     d5a:	fa 01       	movw	r30, r20
     d5c:	1d c0       	rjmp	.+58     	; 0xd98 <BlinkC__SerialStream__send+0x74>
     d5e:	80 91 c9 00 	lds	r24, 0x00C9
     d62:	8f 7b       	andi	r24, 0xBF	; 191
     d64:	80 93 c9 00 	sts	0x00C9, r24
     d68:	80 91 c8 00 	lds	r24, 0x00C8
     d6c:	85 ff       	sbrs	r24, 5
     d6e:	fc cf       	rjmp	.-8      	; 0xd68 <BlinkC__SerialStream__send+0x44>
     d70:	80 81       	ld	r24, Z
     d72:	80 93 ce 00 	sts	0x00CE, r24
     d76:	80 91 c8 00 	lds	r24, 0x00C8
     d7a:	86 ff       	sbrs	r24, 6
     d7c:	fc cf       	rjmp	.-8      	; 0xd76 <BlinkC__SerialStream__send+0x52>
     d7e:	80 91 c8 00 	lds	r24, 0x00C8
     d82:	80 64       	ori	r24, 0x40	; 64
     d84:	80 93 c8 00 	sts	0x00C8, r24
     d88:	80 91 c9 00 	lds	r24, 0x00C9
     d8c:	80 64       	ori	r24, 0x40	; 64
     d8e:	80 93 c9 00 	sts	0x00C9, r24
     d92:	2f 5f       	subi	r18, 0xFF	; 255
     d94:	3f 4f       	sbci	r19, 0xFF	; 255
     d96:	31 96       	adiw	r30, 0x01	; 1
     d98:	26 17       	cp	r18, r22
     d9a:	37 07       	cpc	r19, r23
     d9c:	01 f7       	brne	.-64     	; 0xd5e <BlinkC__SerialStream__send+0x3a>
     d9e:	8f b7       	in	r24, 0x3f	; 63
     da0:	f8 94       	cli
     da2:	99 27       	eor	r25, r25
     da4:	10 92 a4 05 	sts	0x05A4, r1
     da8:	8f bf       	out	0x3f, r24	; 63
     daa:	10 92 a9 05 	sts	0x05A9, r1
     dae:	80 e0       	ldi	r24, 0x00	; 0
     db0:	c4 db       	rcall	.-2168   	; 0x53a <SchedulerBasicP__TaskBasic__postTask>
     db2:	80 e0       	ldi	r24, 0x00	; 0
     db4:	90 e0       	ldi	r25, 0x00	; 0
     db6:	08 95       	ret

00000db8 <BlinkC__Leds__led2Toggle>:
     db8:	8f b7       	in	r24, 0x3f	; 63
     dba:	f8 94       	cli
     dbc:	99 27       	eor	r25, r25
     dbe:	2e b1       	in	r18, 0x0e	; 14
     dc0:	30 e1       	ldi	r19, 0x10	; 16
     dc2:	23 27       	eor	r18, r19
     dc4:	2e b9       	out	0x0e, r18	; 14
     dc6:	8f bf       	out	0x3f, r24	; 63
     dc8:	08 95       	ret

00000dca <BlinkC__Leds__led1Toggle>:
     dca:	8f b7       	in	r24, 0x3f	; 63
     dcc:	f8 94       	cli
     dce:	99 27       	eor	r25, r25
     dd0:	2e b1       	in	r18, 0x0e	; 14
     dd2:	38 e0       	ldi	r19, 0x08	; 8
     dd4:	23 27       	eor	r18, r19
     dd6:	2e b9       	out	0x0e, r18	; 14
     dd8:	8f bf       	out	0x3f, r24	; 63
     dda:	08 95       	ret

00000ddc <AdcP__sample>:
     ddc:	bf 92       	push	r11
     dde:	cf 92       	push	r12
     de0:	df 92       	push	r13
     de2:	ef 92       	push	r14
     de4:	ff 92       	push	r15
     de6:	0f 93       	push	r16
     de8:	1f 93       	push	r17
     dea:	80 91 35 06 	lds	r24, 0x0635
     dee:	81 30       	cpi	r24, 0x01	; 1
     df0:	09 f4       	brne	.+2      	; 0xdf4 <AdcP__sample+0x18>
     df2:	46 c0       	rjmp	.+140    	; 0xe80 <AdcP__sample+0xa4>
     df4:	81 30       	cpi	r24, 0x01	; 1
     df6:	08 f4       	brcc	.+2      	; 0xdfa <AdcP__sample+0x1e>
     df8:	48 c0       	rjmp	.+144    	; 0xe8a <AdcP__sample+0xae>
     dfa:	82 30       	cpi	r24, 0x02	; 2
     dfc:	09 f4       	brne	.+2      	; 0xe00 <AdcP__sample+0x24>
     dfe:	45 c0       	rjmp	.+138    	; 0xe8a <AdcP__sample+0xae>
     e00:	81 30       	cpi	r24, 0x01	; 1
     e02:	29 f0       	breq	.+10     	; 0xe0e <AdcP__sample+0x32>
     e04:	81 30       	cpi	r24, 0x01	; 1
     e06:	28 f0       	brcs	.+10     	; 0xe12 <AdcP__sample+0x36>
     e08:	82 30       	cpi	r24, 0x02	; 2
     e0a:	29 f4       	brne	.+10     	; 0xe16 <AdcP__sample+0x3a>
     e0c:	02 c0       	rjmp	.+4      	; 0xe12 <AdcP__sample+0x36>
     e0e:	bb 24       	eor	r11, r11
     e10:	39 c0       	rjmp	.+114    	; 0xe84 <AdcP__sample+0xa8>
     e12:	bb 24       	eor	r11, r11
     e14:	3c c0       	rjmp	.+120    	; 0xe8e <AdcP__sample+0xb2>
     e16:	81 30       	cpi	r24, 0x01	; 1
     e18:	41 f0       	breq	.+16     	; 0xe2a <AdcP__sample+0x4e>
     e1a:	81 30       	cpi	r24, 0x01	; 1
     e1c:	50 f0       	brcs	.+20     	; 0xe32 <AdcP__sample+0x56>
     e1e:	82 30       	cpi	r24, 0x02	; 2
     e20:	41 f0       	breq	.+16     	; 0xe32 <AdcP__sample+0x56>
     e22:	8e e1       	ldi	r24, 0x1E	; 30
     e24:	bb 24       	eor	r11, r11
     e26:	cc 24       	eor	r12, r12
     e28:	07 c0       	rjmp	.+14     	; 0xe38 <AdcP__sample+0x5c>
     e2a:	bb 24       	eor	r11, r11
     e2c:	cc 24       	eor	r12, r12
     e2e:	80 e0       	ldi	r24, 0x00	; 0
     e30:	03 c0       	rjmp	.+6      	; 0xe38 <AdcP__sample+0x5c>
     e32:	bb 24       	eor	r11, r11
     e34:	cc 24       	eor	r12, r12
     e36:	89 e2       	ldi	r24, 0x29	; 41
     e38:	e8 2e       	mov	r14, r24
     e3a:	ff 24       	eor	r15, r15
     e3c:	df b6       	in	r13, 0x3f	; 63
     e3e:	f8 94       	cli
     e40:	10 91 91 04 	lds	r17, 0x0491
     e44:	81 2f       	mov	r24, r17
     e46:	8e 7f       	andi	r24, 0xFE	; 254
     e48:	80 93 91 04 	sts	0x0491, r24
     e4c:	5c db       	rcall	.-2376   	; 0x506 <Atm128AdcP__HplAtm128Adc__getAdmux>
     e4e:	4c 2d       	mov	r20, r12
     e50:	6e 2d       	mov	r22, r14
     e52:	36 db       	rcall	.-2452   	; 0x4c0 <Atm128AdcP__isPrecise>
     e54:	81 70       	andi	r24, 0x01	; 1
     e56:	88 0f       	add	r24, r24
     e58:	10 78       	andi	r17, 0x80	; 128
     e5a:	2e 2d       	mov	r18, r14
     e5c:	2f 71       	andi	r18, 0x1F	; 31
     e5e:	92 2f       	mov	r25, r18
     e60:	99 0f       	add	r25, r25
     e62:	99 0f       	add	r25, r25
     e64:	18 2b       	or	r17, r24
     e66:	19 2b       	or	r17, r25
     e68:	10 93 91 04 	sts	0x0491, r17
     e6c:	e5 fe       	sbrs	r14, 5
     e6e:	04 c0       	rjmp	.+8      	; 0xe78 <AdcP__sample+0x9c>
     e70:	80 91 7b 00 	lds	r24, 0x007B
     e74:	88 60       	ori	r24, 0x08	; 8
     e76:	0e c0       	rjmp	.+28     	; 0xe94 <AdcP__sample+0xb8>
     e78:	80 91 7b 00 	lds	r24, 0x007B
     e7c:	87 7f       	andi	r24, 0xF7	; 247
     e7e:	0a c0       	rjmp	.+20     	; 0xe94 <AdcP__sample+0xb8>
     e80:	b7 e0       	ldi	r27, 0x07	; 7
     e82:	bb 2e       	mov	r11, r27
     e84:	a3 e0       	ldi	r26, 0x03	; 3
     e86:	ca 2e       	mov	r12, r26
     e88:	d2 cf       	rjmp	.-92     	; 0xe2e <AdcP__sample+0x52>
     e8a:	f7 e0       	ldi	r31, 0x07	; 7
     e8c:	bf 2e       	mov	r11, r31
     e8e:	e3 e0       	ldi	r30, 0x03	; 3
     e90:	ce 2e       	mov	r12, r30
     e92:	d1 cf       	rjmp	.-94     	; 0xe36 <AdcP__sample+0x5a>
     e94:	80 93 7b 00 	sts	0x007B, r24
     e98:	cc 0c       	add	r12, r12
     e9a:	cc 0c       	add	r12, r12
     e9c:	cc 0c       	add	r12, r12
     e9e:	cc 0c       	add	r12, r12
     ea0:	cc 0c       	add	r12, r12
     ea2:	cc 0c       	add	r12, r12
     ea4:	2c 29       	or	r18, r12
     ea6:	82 2f       	mov	r24, r18
     ea8:	99 27       	eor	r25, r25
     eaa:	80 93 7c 00 	sts	0x007C, r24
     eae:	18 79       	andi	r17, 0x98	; 152
     eb0:	1b 29       	or	r17, r11
     eb2:	18 69       	ori	r17, 0x98	; 152
     eb4:	81 2f       	mov	r24, r17
     eb6:	99 27       	eor	r25, r25
     eb8:	80 93 7a 00 	sts	0x007A, r24
     ebc:	8d 2d       	mov	r24, r13
     ebe:	99 27       	eor	r25, r25
     ec0:	8f bf       	out	0x3f, r24	; 63
     ec2:	1f 91       	pop	r17
     ec4:	0f 91       	pop	r16
     ec6:	ff 90       	pop	r15
     ec8:	ef 90       	pop	r14
     eca:	df 90       	pop	r13
     ecc:	cf 90       	pop	r12
     ece:	bf 90       	pop	r11
     ed0:	08 95       	ret

00000ed2 <ArbitratedReadC__0__Resource__granted>:
     ed2:	91 e0       	ldi	r25, 0x01	; 1
     ed4:	90 93 a8 05 	sts	0x05A8, r25
     ed8:	80 93 35 06 	sts	0x0635, r24
     edc:	7f cf       	rjmp	.-258    	; 0xddc <AdcP__sample>

00000ede <VirtualizeTimerC__0__fireTimers>:
     ede:	af 92       	push	r10
     ee0:	bf 92       	push	r11
     ee2:	cf 92       	push	r12
     ee4:	df 92       	push	r13
     ee6:	ef 92       	push	r14
     ee8:	ff 92       	push	r15
     eea:	0f 93       	push	r16
     eec:	1f 93       	push	r17
     eee:	cf 93       	push	r28
     ef0:	df 93       	push	r29
     ef2:	5b 01       	movw	r10, r22
     ef4:	6c 01       	movw	r12, r24
     ef6:	c0 e0       	ldi	r28, 0x00	; 0
     ef8:	d0 e0       	ldi	r29, 0x00	; 0
     efa:	e4 ee       	ldi	r30, 0xE4	; 228
     efc:	f5 e0       	ldi	r31, 0x05	; 5
     efe:	60 85       	ldd	r22, Z+8	; 0x08
     f00:	61 ff       	sbrs	r22, 1
     f02:	3a c0       	rjmp	.+116    	; 0xf78 <VirtualizeTimerC__0__fireTimers+0x9a>
     f04:	20 81       	ld	r18, Z
     f06:	31 81       	ldd	r19, Z+1	; 0x01
     f08:	42 81       	ldd	r20, Z+2	; 0x02
     f0a:	53 81       	ldd	r21, Z+3	; 0x03
     f0c:	e4 80       	ldd	r14, Z+4	; 0x04
     f0e:	f5 80       	ldd	r15, Z+5	; 0x05
     f10:	06 81       	ldd	r16, Z+6	; 0x06
     f12:	17 81       	ldd	r17, Z+7	; 0x07
     f14:	d6 01       	movw	r26, r12
     f16:	c5 01       	movw	r24, r10
     f18:	82 1b       	sub	r24, r18
     f1a:	93 0b       	sbc	r25, r19
     f1c:	a4 0b       	sbc	r26, r20
     f1e:	b5 0b       	sbc	r27, r21
     f20:	8e 15       	cp	r24, r14
     f22:	9f 05       	cpc	r25, r15
     f24:	a0 07       	cpc	r26, r16
     f26:	b1 07       	cpc	r27, r17
     f28:	38 f1       	brcs	.+78     	; 0xf78 <VirtualizeTimerC__0__fireTimers+0x9a>
     f2a:	60 ff       	sbrs	r22, 0
     f2c:	03 c0       	rjmp	.+6      	; 0xf34 <VirtualizeTimerC__0__fireTimers+0x56>
     f2e:	6d 7f       	andi	r22, 0xFD	; 253
     f30:	60 87       	std	Z+8, r22	; 0x08
     f32:	08 c0       	rjmp	.+16     	; 0xf44 <VirtualizeTimerC__0__fireTimers+0x66>
     f34:	2e 0d       	add	r18, r14
     f36:	3f 1d       	adc	r19, r15
     f38:	40 1f       	adc	r20, r16
     f3a:	51 1f       	adc	r21, r17
     f3c:	20 83       	st	Z, r18
     f3e:	31 83       	std	Z+1, r19	; 0x01
     f40:	42 83       	std	Z+2, r20	; 0x02
     f42:	53 83       	std	Z+3, r21	; 0x03
     f44:	c1 30       	cpi	r28, 0x01	; 1
     f46:	91 f0       	breq	.+36     	; 0xf6c <VirtualizeTimerC__0__fireTimers+0x8e>
     f48:	c1 30       	cpi	r28, 0x01	; 1
     f4a:	28 f0       	brcs	.+10     	; 0xf56 <VirtualizeTimerC__0__fireTimers+0x78>
     f4c:	c2 30       	cpi	r28, 0x02	; 2
     f4e:	81 f0       	breq	.+32     	; 0xf70 <VirtualizeTimerC__0__fireTimers+0x92>
     f50:	c3 30       	cpi	r28, 0x03	; 3
     f52:	c1 f4       	brne	.+48     	; 0xf84 <VirtualizeTimerC__0__fireTimers+0xa6>
     f54:	0f c0       	rjmp	.+30     	; 0xf74 <VirtualizeTimerC__0__fireTimers+0x96>
     f56:	8f b7       	in	r24, 0x3f	; 63
     f58:	f8 94       	cli
     f5a:	99 27       	eor	r25, r25
     f5c:	2e b1       	in	r18, 0x0e	; 14
     f5e:	34 e0       	ldi	r19, 0x04	; 4
     f60:	23 27       	eor	r18, r19
     f62:	2e b9       	out	0x0e, r18	; 14
     f64:	8f bf       	out	0x3f, r24	; 63
     f66:	85 e0       	ldi	r24, 0x05	; 5
     f68:	e8 da       	rcall	.-2608   	; 0x53a <SchedulerBasicP__TaskBasic__postTask>
     f6a:	0c c0       	rjmp	.+24     	; 0xf84 <VirtualizeTimerC__0__fireTimers+0xa6>
     f6c:	2e df       	rcall	.-420    	; 0xdca <BlinkC__Leds__led1Toggle>
     f6e:	0a c0       	rjmp	.+20     	; 0xf84 <VirtualizeTimerC__0__fireTimers+0xa6>
     f70:	23 df       	rcall	.-442    	; 0xdb8 <BlinkC__Leds__led2Toggle>
     f72:	08 c0       	rjmp	.+16     	; 0xf84 <VirtualizeTimerC__0__fireTimers+0xa6>
     f74:	15 db       	rcall	.-2518   	; 0x5a0 <PacketLinkLayerP__0__send__postTask>
     f76:	06 c0       	rjmp	.+12     	; 0xf84 <VirtualizeTimerC__0__fireTimers+0xa6>
     f78:	21 96       	adiw	r28, 0x01	; 1
     f7a:	39 96       	adiw	r30, 0x09	; 9
     f7c:	c4 30       	cpi	r28, 0x04	; 4
     f7e:	d1 05       	cpc	r29, r1
     f80:	09 f0       	breq	.+2      	; 0xf84 <VirtualizeTimerC__0__fireTimers+0xa6>
     f82:	bd cf       	rjmp	.-134    	; 0xefe <VirtualizeTimerC__0__fireTimers+0x20>
     f84:	05 db       	rcall	.-2550   	; 0x590 <VirtualizeTimerC__0__updateFromTimer__postTask>
     f86:	df 91       	pop	r29
     f88:	cf 91       	pop	r28
     f8a:	1f 91       	pop	r17
     f8c:	0f 91       	pop	r16
     f8e:	ff 90       	pop	r15
     f90:	ef 90       	pop	r14
     f92:	df 90       	pop	r13
     f94:	cf 90       	pop	r12
     f96:	bf 90       	pop	r11
     f98:	af 90       	pop	r10
     f9a:	08 95       	ret

00000f9c <AlarmToTimerC__0__start>:
     f9c:	0f 93       	push	r16
     f9e:	1f 93       	push	r17
     fa0:	20 93 29 06 	sts	0x0629, r18
     fa4:	30 93 2a 06 	sts	0x062A, r19
     fa8:	40 93 2b 06 	sts	0x062B, r20
     fac:	50 93 2c 06 	sts	0x062C, r21
     fb0:	00 93 90 04 	sts	0x0490, r16
     fb4:	0f b7       	in	r16, 0x3f	; 63
     fb6:	f8 94       	cli
     fb8:	11 27       	eor	r17, r17
     fba:	60 93 a0 05 	sts	0x05A0, r22
     fbe:	70 93 a1 05 	sts	0x05A1, r23
     fc2:	80 93 a2 05 	sts	0x05A2, r24
     fc6:	90 93 a3 05 	sts	0x05A3, r25
     fca:	20 93 9c 05 	sts	0x059C, r18
     fce:	30 93 9d 05 	sts	0x059D, r19
     fd2:	40 93 9e 05 	sts	0x059E, r20
     fd6:	50 93 9f 05 	sts	0x059F, r21
     fda:	f3 db       	rcall	.-2074   	; 0x7c2 <TransformAlarmC__0__set_alarm>
     fdc:	0f bf       	out	0x3f, r16	; 63
     fde:	1f 91       	pop	r17
     fe0:	0f 91       	pop	r16
     fe2:	08 95       	ret

00000fe4 <ArbiterP__0__Resource__request>:
     fe4:	0f 93       	push	r16
     fe6:	1f 93       	push	r17
     fe8:	cf 93       	push	r28
     fea:	df 93       	push	r29
     fec:	18 2f       	mov	r17, r24
     fee:	8f b7       	in	r24, 0x3f	; 63
     ff0:	f8 94       	cli
     ff2:	28 2f       	mov	r18, r24
     ff4:	33 27       	eor	r19, r19
     ff6:	02 2f       	mov	r16, r18
     ff8:	80 91 68 04 	lds	r24, 0x0468
     ffc:	88 23       	and	r24, r24
     ffe:	69 f5       	brne	.+90     	; 0x105a <ArbiterP__0__Resource__request+0x76>
    1000:	81 e0       	ldi	r24, 0x01	; 1
    1002:	80 93 68 04 	sts	0x0468, r24
    1006:	10 93 15 06 	sts	0x0615, r17
    100a:	2f bf       	out	0x3f, r18	; 63
    100c:	2f b7       	in	r18, 0x3f	; 63
    100e:	f8 94       	cli
    1010:	33 27       	eor	r19, r19
    1012:	80 91 7a 00 	lds	r24, 0x007A
    1016:	80 68       	ori	r24, 0x80	; 128
    1018:	80 93 7a 00 	sts	0x007A, r24
    101c:	8f ef       	ldi	r24, 0xFF	; 255
    101e:	80 93 61 04 	sts	0x0461, r24
    1022:	2f bf       	out	0x3f, r18	; 63
    1024:	8f b7       	in	r24, 0x3f	; 63
    1026:	f8 94       	cli
    1028:	c8 2f       	mov	r28, r24
    102a:	dd 27       	eor	r29, r29
    102c:	2c 2f       	mov	r18, r28
    102e:	90 91 62 04 	lds	r25, 0x0462
    1032:	93 30       	cpi	r25, 0x03	; 3
    1034:	b1 f4       	brne	.+44     	; 0x1062 <ArbiterP__0__Resource__request+0x7e>
    1036:	80 91 68 04 	lds	r24, 0x0468
    103a:	81 30       	cpi	r24, 0x01	; 1
    103c:	11 f4       	brne	.+4      	; 0x1042 <ArbiterP__0__Resource__request+0x5e>
    103e:	a4 da       	rcall	.-2744   	; 0x588 <ArbiterP__0__grantedTask__postTask>
    1040:	08 c0       	rjmp	.+16     	; 0x1052 <ArbiterP__0__Resource__request+0x6e>
    1042:	82 30       	cpi	r24, 0x02	; 2
    1044:	71 f4       	brne	.+28     	; 0x1062 <ArbiterP__0__Resource__request+0x7e>
    1046:	80 91 15 06 	lds	r24, 0x0615
    104a:	80 93 62 04 	sts	0x0462, r24
    104e:	90 93 68 04 	sts	0x0468, r25
    1052:	cf bf       	out	0x3f, r28	; 63
    1054:	80 e0       	ldi	r24, 0x00	; 0
    1056:	90 e0       	ldi	r25, 0x00	; 0
    1058:	22 c0       	rjmp	.+68     	; 0x109e <ArbiterP__0__Resource__request+0xba>
    105a:	80 91 15 06 	lds	r24, 0x0615
    105e:	81 17       	cp	r24, r17
    1060:	11 f4       	brne	.+4      	; 0x1066 <ArbiterP__0__Resource__request+0x82>
    1062:	2f bf       	out	0x3f, r18	; 63
    1064:	f7 cf       	rjmp	.-18     	; 0x1054 <ArbiterP__0__Resource__request+0x70>
    1066:	81 2f       	mov	r24, r17
    1068:	d9 dd       	rcall	.-1102   	; 0xc1c <RoundRobinResourceQueueC__0__RoundRobinQueue__isEnqueued>
    106a:	88 23       	and	r24, r24
    106c:	19 f0       	breq	.+6      	; 0x1074 <ArbiterP__0__Resource__request+0x90>
    106e:	85 e0       	ldi	r24, 0x05	; 5
    1070:	90 e0       	ldi	r25, 0x00	; 0
    1072:	14 c0       	rjmp	.+40     	; 0x109c <ArbiterP__0__Resource__request+0xb8>
    1074:	e1 2f       	mov	r30, r17
    1076:	e6 95       	lsr	r30
    1078:	e6 95       	lsr	r30
    107a:	e6 95       	lsr	r30
    107c:	ff 27       	eor	r31, r31
    107e:	ed 51       	subi	r30, 0x1D	; 29
    1080:	fa 4f       	sbci	r31, 0xFA	; 250
    1082:	17 70       	andi	r17, 0x07	; 7
    1084:	81 e0       	ldi	r24, 0x01	; 1
    1086:	90 e0       	ldi	r25, 0x00	; 0
    1088:	02 c0       	rjmp	.+4      	; 0x108e <ArbiterP__0__Resource__request+0xaa>
    108a:	88 0f       	add	r24, r24
    108c:	99 1f       	adc	r25, r25
    108e:	1a 95       	dec	r17
    1090:	e2 f7       	brpl	.-8      	; 0x108a <ArbiterP__0__Resource__request+0xa6>
    1092:	20 81       	ld	r18, Z
    1094:	28 2b       	or	r18, r24
    1096:	20 83       	st	Z, r18
    1098:	80 e0       	ldi	r24, 0x00	; 0
    109a:	90 e0       	ldi	r25, 0x00	; 0
    109c:	0f bf       	out	0x3f, r16	; 63
    109e:	df 91       	pop	r29
    10a0:	cf 91       	pop	r28
    10a2:	1f 91       	pop	r17
    10a4:	0f 91       	pop	r16
    10a6:	08 95       	ret

000010a8 <ArbitratedReadC__0__Read__read>:
    10a8:	81 30       	cpi	r24, 0x01	; 1
    10aa:	41 f0       	breq	.+16     	; 0x10bc <ArbitratedReadC__0__Read__read+0x14>
    10ac:	81 30       	cpi	r24, 0x01	; 1
    10ae:	20 f0       	brcs	.+8      	; 0x10b8 <ArbitratedReadC__0__Read__read+0x10>
    10b0:	82 30       	cpi	r24, 0x02	; 2
    10b2:	31 f0       	breq	.+12     	; 0x10c0 <ArbitratedReadC__0__Read__read+0x18>
    10b4:	81 e0       	ldi	r24, 0x01	; 1
    10b6:	06 c0       	rjmp	.+12     	; 0x10c4 <ArbitratedReadC__0__Read__read+0x1c>
    10b8:	80 e0       	ldi	r24, 0x00	; 0
    10ba:	03 c0       	rjmp	.+6      	; 0x10c2 <ArbitratedReadC__0__Read__read+0x1a>
    10bc:	81 e0       	ldi	r24, 0x01	; 1
    10be:	01 c0       	rjmp	.+2      	; 0x10c2 <ArbitratedReadC__0__Read__read+0x1a>
    10c0:	82 e0       	ldi	r24, 0x02	; 2
    10c2:	90 df       	rcall	.-224    	; 0xfe4 <ArbiterP__0__Resource__request>
    10c4:	99 27       	eor	r25, r25
    10c6:	08 95       	ret

000010c8 <VirtualizeTimerC__0__Timer__startPeriodic>:
    10c8:	af 92       	push	r10
    10ca:	bf 92       	push	r11
    10cc:	cf 92       	push	r12
    10ce:	df 92       	push	r13
    10d0:	ef 92       	push	r14
    10d2:	ff 92       	push	r15
    10d4:	0f 93       	push	r16
    10d6:	1f 93       	push	r17
    10d8:	f8 2e       	mov	r15, r24
    10da:	5a 01       	movw	r10, r20
    10dc:	6b 01       	movw	r12, r22
    10de:	6e dc       	rcall	.-1828   	; 0x9bc <VirtualizeTimerC__0__TimerFrom__getNow>
    10e0:	ab 01       	movw	r20, r22
    10e2:	bc 01       	movw	r22, r24
    10e4:	ee 24       	eor	r14, r14
    10e6:	96 01       	movw	r18, r12
    10e8:	85 01       	movw	r16, r10
    10ea:	8f 2d       	mov	r24, r15
    10ec:	7a dd       	rcall	.-1292   	; 0xbe2 <VirtualizeTimerC__0__startTimer>
    10ee:	1f 91       	pop	r17
    10f0:	0f 91       	pop	r16
    10f2:	ff 90       	pop	r15
    10f4:	ef 90       	pop	r14
    10f6:	df 90       	pop	r13
    10f8:	cf 90       	pop	r12
    10fa:	bf 90       	pop	r11
    10fc:	af 90       	pop	r10
    10fe:	08 95       	ret

00001100 <__vector_29>:
    1100:	1f 92       	push	r1
    1102:	0f 92       	push	r0
    1104:	0f b6       	in	r0, 0x3f	; 63
    1106:	0f 92       	push	r0
    1108:	11 24       	eor	r1, r1
    110a:	2f 93       	push	r18
    110c:	3f 93       	push	r19
    110e:	4f 93       	push	r20
    1110:	5f 93       	push	r21
    1112:	6f 93       	push	r22
    1114:	7f 93       	push	r23
    1116:	8f 93       	push	r24
    1118:	9f 93       	push	r25
    111a:	af 93       	push	r26
    111c:	bf 93       	push	r27
    111e:	ef 93       	push	r30
    1120:	ff 93       	push	r31
    1122:	60 91 78 00 	lds	r22, 0x0078
    1126:	70 91 79 00 	lds	r23, 0x0079
    112a:	78 94       	sei
    112c:	8f b7       	in	r24, 0x3f	; 63
    112e:	f8 94       	cli
    1130:	99 27       	eor	r25, r25
    1132:	20 91 91 04 	lds	r18, 0x0491
    1136:	42 2f       	mov	r20, r18
    1138:	46 95       	lsr	r20
    113a:	41 70       	andi	r20, 0x01	; 1
    113c:	21 70       	andi	r18, 0x01	; 1
    113e:	8f bf       	out	0x3f, r24	; 63
    1140:	22 23       	and	r18, r18
    1142:	49 f5       	brne	.+82     	; 0x1196 <__vector_29+0x96>
    1144:	80 91 7a 00 	lds	r24, 0x007A
    1148:	87 7f       	andi	r24, 0xF7	; 247
    114a:	80 93 7a 00 	sts	0x007A, r24
    114e:	2f b7       	in	r18, 0x3f	; 63
    1150:	f8 94       	cli
    1152:	33 27       	eor	r19, r19
    1154:	80 91 7a 00 	lds	r24, 0x007A
    1158:	8f 77       	andi	r24, 0x7F	; 127
    115a:	80 93 7a 00 	sts	0x007A, r24
    115e:	8f ef       	ldi	r24, 0xFF	; 255
    1160:	80 93 61 04 	sts	0x0461, r24
    1164:	2f bf       	out	0x3f, r18	; 63
    1166:	80 91 a8 05 	lds	r24, 0x05A8
    116a:	81 30       	cpi	r24, 0x01	; 1
    116c:	21 f0       	breq	.+8      	; 0x1176 <__vector_29+0x76>
    116e:	82 30       	cpi	r24, 0x02	; 2
    1170:	09 f0       	breq	.+2      	; 0x1174 <__vector_29+0x74>
    1172:	3b c0       	rjmp	.+118    	; 0x11ea <__vector_29+0xea>
    1174:	09 c0       	rjmp	.+18     	; 0x1188 <__vector_29+0x88>
    1176:	44 23       	and	r20, r20
    1178:	49 f0       	breq	.+18     	; 0x118c <__vector_29+0x8c>
    117a:	70 93 0c 06 	sts	0x060C, r23
    117e:	60 93 0b 06 	sts	0x060B, r22
    1182:	8c e0       	ldi	r24, 0x0C	; 12
    1184:	da d9       	rcall	.-3148   	; 0x53a <SchedulerBasicP__TaskBasic__postTask>
    1186:	31 c0       	rjmp	.+98     	; 0x11ea <__vector_29+0xea>
    1188:	44 23       	and	r20, r20
    118a:	11 f4       	brne	.+4      	; 0x1190 <__vector_29+0x90>
    118c:	27 de       	rcall	.-946    	; 0xddc <AdcP__sample>
    118e:	2d c0       	rjmp	.+90     	; 0x11ea <__vector_29+0xea>
    1190:	10 92 a8 05 	sts	0x05A8, r1
    1194:	2a c0       	rjmp	.+84     	; 0x11ea <__vector_29+0xea>
    1196:	8f b7       	in	r24, 0x3f	; 63
    1198:	f8 94       	cli
    119a:	99 27       	eor	r25, r25
    119c:	8f bf       	out	0x3f, r24	; 63
    119e:	2f b7       	in	r18, 0x3f	; 63
    11a0:	f8 94       	cli
    11a2:	33 27       	eor	r19, r19
    11a4:	80 91 7a 00 	lds	r24, 0x007A
    11a8:	58 2f       	mov	r21, r24
    11aa:	57 70       	andi	r21, 0x07	; 7
    11ac:	48 2f       	mov	r20, r24
    11ae:	40 72       	andi	r20, 0x20	; 32
    11b0:	98 7d       	andi	r25, 0xD8	; 216
    11b2:	94 2b       	or	r25, r20
    11b4:	95 2b       	or	r25, r21
    11b6:	80 74       	andi	r24, 0x40	; 64
    11b8:	97 7b       	andi	r25, 0xB7	; 183
    11ba:	98 2b       	or	r25, r24
    11bc:	90 61       	ori	r25, 0x10	; 16
    11be:	9f 77       	andi	r25, 0x7F	; 127
    11c0:	89 2f       	mov	r24, r25
    11c2:	99 27       	eor	r25, r25
    11c4:	80 93 7a 00 	sts	0x007A, r24
    11c8:	88 7d       	andi	r24, 0xD8	; 216
    11ca:	84 2b       	or	r24, r20
    11cc:	85 2b       	or	r24, r21
    11ce:	87 73       	andi	r24, 0x37	; 55
    11d0:	80 61       	ori	r24, 0x10	; 16
    11d2:	99 27       	eor	r25, r25
    11d4:	80 93 7a 00 	sts	0x007A, r24
    11d8:	88 7d       	andi	r24, 0xD8	; 216
    11da:	84 2b       	or	r24, r20
    11dc:	85 2b       	or	r24, r21
    11de:	87 7b       	andi	r24, 0xB7	; 183
    11e0:	80 69       	ori	r24, 0x90	; 144
    11e2:	99 27       	eor	r25, r25
    11e4:	80 93 7a 00 	sts	0x007A, r24
    11e8:	2f bf       	out	0x3f, r18	; 63
    11ea:	ff 91       	pop	r31
    11ec:	ef 91       	pop	r30
    11ee:	bf 91       	pop	r27
    11f0:	af 91       	pop	r26
    11f2:	9f 91       	pop	r25
    11f4:	8f 91       	pop	r24
    11f6:	7f 91       	pop	r23
    11f8:	6f 91       	pop	r22
    11fa:	5f 91       	pop	r21
    11fc:	4f 91       	pop	r20
    11fe:	3f 91       	pop	r19
    1200:	2f 91       	pop	r18
    1202:	0f 90       	pop	r0
    1204:	0f be       	out	0x3f, r0	; 63
    1206:	0f 90       	pop	r0
    1208:	1f 90       	pop	r1
    120a:	18 95       	reti

0000120c <__vector_58>:
    120c:	1f 92       	push	r1
    120e:	0f 92       	push	r0
    1210:	0f b6       	in	r0, 0x3f	; 63
    1212:	0f 92       	push	r0
    1214:	11 24       	eor	r1, r1
    1216:	0f 90       	pop	r0
    1218:	0f be       	out	0x3f, r0	; 63
    121a:	0f 90       	pop	r0
    121c:	1f 90       	pop	r1
    121e:	18 95       	reti

00001220 <__vector_62>:
    1220:	1f 92       	push	r1
    1222:	0f 92       	push	r0
    1224:	0f b6       	in	r0, 0x3f	; 63
    1226:	0f 92       	push	r0
    1228:	11 24       	eor	r1, r1
    122a:	0f 90       	pop	r0
    122c:	0f be       	out	0x3f, r0	; 63
    122e:	0f 90       	pop	r0
    1230:	1f 90       	pop	r1
    1232:	18 95       	reti

00001234 <SoftwareAckLayerC__0__SubSend__send>:
    1234:	2f 92       	push	r2
    1236:	3f 92       	push	r3
    1238:	4f 92       	push	r4
    123a:	5f 92       	push	r5
    123c:	6f 92       	push	r6
    123e:	7f 92       	push	r7
    1240:	8f 92       	push	r8
    1242:	9f 92       	push	r9
    1244:	af 92       	push	r10
    1246:	bf 92       	push	r11
    1248:	cf 92       	push	r12
    124a:	df 92       	push	r13
    124c:	ef 92       	push	r14
    124e:	ff 92       	push	r15
    1250:	0f 93       	push	r16
    1252:	1f 93       	push	r17
    1254:	cf 93       	push	r28
    1256:	df 93       	push	r29
    1258:	cd b7       	in	r28, 0x3d	; 61
    125a:	de b7       	in	r29, 0x3e	; 62
    125c:	24 97       	sbiw	r28, 0x04	; 4
    125e:	0f b6       	in	r0, 0x3f	; 63
    1260:	f8 94       	cli
    1262:	de bf       	out	0x3e, r29	; 62
    1264:	0f be       	out	0x3f, r0	; 63
    1266:	cd bf       	out	0x3d, r28	; 61
    1268:	9c 83       	std	Y+4, r25	; 0x04
    126a:	8b 83       	std	Y+3, r24	; 0x03
    126c:	80 91 8f 04 	lds	r24, 0x048F
    1270:	88 23       	and	r24, r24
    1272:	09 f0       	breq	.+2      	; 0x1276 <SoftwareAckLayerC__0__SubSend__send+0x42>
    1274:	de c0       	rjmp	.+444    	; 0x1432 <SoftwareAckLayerC__0__SubSend__send+0x1fe>
    1276:	80 91 aa 05 	lds	r24, 0x05AA
    127a:	85 30       	cpi	r24, 0x05	; 5
    127c:	09 f0       	breq	.+2      	; 0x1280 <SoftwareAckLayerC__0__SubSend__send+0x4c>
    127e:	d9 c0       	rjmp	.+434    	; 0x1432 <SoftwareAckLayerC__0__SubSend__send+0x1fe>
    1280:	80 91 16 06 	lds	r24, 0x0616
    1284:	88 23       	and	r24, r24
    1286:	09 f0       	breq	.+2      	; 0x128a <SoftwareAckLayerC__0__SubSend__send+0x56>
    1288:	d4 c0       	rjmp	.+424    	; 0x1432 <SoftwareAckLayerC__0__SubSend__send+0x1fe>
    128a:	6b 81       	ldd	r22, Y+3	; 0x03
    128c:	7c 81       	ldd	r23, Y+4	; 0x04
    128e:	82 e0       	ldi	r24, 0x02	; 2
    1290:	64 dc       	rcall	.-1848   	; 0xb5a <MetadataFlagsLayerC__0__PacketFlag__get>
    1292:	88 23       	and	r24, r24
    1294:	11 f4       	brne	.+4      	; 0x129a <SoftwareAckLayerC__0__SubSend__send+0x66>
    1296:	90 e0       	ldi	r25, 0x00	; 0
    1298:	03 c0       	rjmp	.+6      	; 0x12a0 <SoftwareAckLayerC__0__SubSend__send+0x6c>
    129a:	eb 81       	ldd	r30, Y+3	; 0x03
    129c:	fc 81       	ldd	r31, Y+4	; 0x04
    129e:	91 a9       	ldd	r25, Z+49	; 0x31
    12a0:	80 91 e2 05 	lds	r24, 0x05E2
    12a4:	98 17       	cp	r25, r24
    12a6:	31 f0       	breq	.+12     	; 0x12b4 <SoftwareAckLayerC__0__SubSend__send+0x80>
    12a8:	90 93 e2 05 	sts	0x05E2, r25
    12ac:	9f 70       	andi	r25, 0x0F	; 15
    12ae:	90 6c       	ori	r25, 0xC0	; 192
    12b0:	90 93 45 01 	sts	0x0145, r25
    12b4:	8b 81       	ldd	r24, Y+3	; 0x03
    12b6:	9c 81       	ldd	r25, Y+4	; 0x04
    12b8:	b8 db       	rcall	.-2192   	; 0xa2a <Ieee154PacketLayerP__0__Ieee154PacketLayer__isDataFrame>
    12ba:	88 23       	and	r24, r24
    12bc:	a9 f0       	breq	.+42     	; 0x12e8 <SoftwareAckLayerC__0__SubSend__send+0xb4>
    12be:	80 91 46 01 	lds	r24, 0x0146
    12c2:	99 27       	eor	r25, r25
    12c4:	8f 71       	andi	r24, 0x1F	; 31
    12c6:	90 70       	andi	r25, 0x00	; 0
    12c8:	20 91 36 06 	lds	r18, 0x0636
    12cc:	40 91 76 04 	lds	r20, 0x0476
    12d0:	24 0f       	add	r18, r20
    12d2:	31 2d       	mov	r19, r1
    12d4:	31 1d       	adc	r19, r1
    12d6:	b3 e0       	ldi	r27, 0x03	; 3
    12d8:	35 95       	asr	r19
    12da:	27 95       	ror	r18
    12dc:	ba 95       	dec	r27
    12de:	e1 f7       	brne	.-8      	; 0x12d8 <SoftwareAckLayerC__0__SubSend__send+0xa4>
    12e0:	28 17       	cp	r18, r24
    12e2:	39 07       	cpc	r19, r25
    12e4:	0c f4       	brge	.+2      	; 0x12e8 <SoftwareAckLayerC__0__SubSend__send+0xb4>
    12e6:	a5 c0       	rjmp	.+330    	; 0x1432 <SoftwareAckLayerC__0__SubSend__send+0x1fe>
    12e8:	89 e0       	ldi	r24, 0x09	; 9
    12ea:	80 93 42 01 	sts	0x0142, r24
    12ee:	6b 81       	ldd	r22, Y+3	; 0x03
    12f0:	7c 81       	ldd	r23, Y+4	; 0x04
    12f2:	84 e0       	ldi	r24, 0x04	; 4
    12f4:	32 dc       	rcall	.-1948   	; 0xb5a <MetadataFlagsLayerC__0__PacketFlag__get>
    12f6:	88 23       	and	r24, r24
    12f8:	19 f4       	brne	.+6      	; 0x1300 <SoftwareAckLayerC__0__SubSend__send+0xcc>
    12fa:	66 24       	eor	r6, r6
    12fc:	77 24       	eor	r7, r7
    12fe:	07 c0       	rjmp	.+14     	; 0x130e <SoftwareAckLayerC__0__SubSend__send+0xda>
    1300:	eb 81       	ldd	r30, Y+3	; 0x03
    1302:	fc 81       	ldd	r31, Y+4	; 0x04
    1304:	80 81       	ld	r24, Z
    1306:	85 50       	subi	r24, 0x05	; 5
    1308:	3f 01       	movw	r6, r30
    130a:	68 0e       	add	r6, r24
    130c:	71 1c       	adc	r7, r1
    130e:	80 91 41 01 	lds	r24, 0x0141
    1312:	8f 71       	andi	r24, 0x1F	; 31
    1314:	89 30       	cpi	r24, 0x09	; 9
    1316:	21 f0       	breq	.+8      	; 0x1320 <SoftwareAckLayerC__0__SubSend__send+0xec>
    1318:	87 e0       	ldi	r24, 0x07	; 7
    131a:	80 93 aa 05 	sts	0x05AA, r24
    131e:	89 c0       	rjmp	.+274    	; 0x1432 <SoftwareAckLayerC__0__SubSend__send+0x1fe>
    1320:	2b 80       	ldd	r2, Y+3	; 0x03
    1322:	3c 80       	ldd	r3, Y+4	; 0x04
    1324:	08 94       	sec
    1326:	21 1c       	adc	r2, r1
    1328:	31 1c       	adc	r3, r1
    132a:	eb 81       	ldd	r30, Y+3	; 0x03
    132c:	fc 81       	ldd	r31, Y+4	; 0x04
    132e:	80 81       	ld	r24, Z
    1330:	99 27       	eor	r25, r25
    1332:	80 93 80 01 	sts	0x0180, r24
    1336:	82 50       	subi	r24, 0x02	; 2
    1338:	87 30       	cpi	r24, 0x07	; 7
    133a:	10 f4       	brcc	.+4      	; 0x1340 <SoftwareAckLayerC__0__SubSend__send+0x10c>
    133c:	98 2f       	mov	r25, r24
    133e:	01 c0       	rjmp	.+2      	; 0x1342 <SoftwareAckLayerC__0__SubSend__send+0x10e>
    1340:	97 e0       	ldi	r25, 0x07	; 7
    1342:	d8 2e       	mov	r13, r24
    1344:	d9 1a       	sub	r13, r25
    1346:	e9 2e       	mov	r14, r25
    1348:	ff 24       	eor	r15, r15
    134a:	a7 01       	movw	r20, r14
    134c:	b1 01       	movw	r22, r2
    134e:	81 e8       	ldi	r24, 0x81	; 129
    1350:	91 e0       	ldi	r25, 0x01	; 1
    1352:	0e 94 10 17 	call	0x2e20	; 0x2e20 <memcpy>
    1356:	0f b7       	in	r16, 0x3f	; 63
    1358:	f8 94       	cli
    135a:	11 27       	eor	r17, r17
    135c:	82 e0       	ldi	r24, 0x02	; 2
    135e:	80 93 42 01 	sts	0x0142, r24
    1362:	fe d9       	rcall	.-3076   	; 0x760 <CounterToLocalTimeC__1__LocalTime__get>
    1364:	4b 01       	movw	r8, r22
    1366:	5c 01       	movw	r10, r24
    1368:	0f bf       	out	0x3f, r16	; 63
    136a:	c7 01       	movw	r24, r14
    136c:	8f 57       	subi	r24, 0x7F	; 127
    136e:	9e 4f       	sbci	r25, 0xFE	; 254
    1370:	9a 83       	std	Y+2, r25	; 0x02
    1372:	89 83       	std	Y+1, r24	; 0x01
    1374:	4d 2c       	mov	r4, r13
    1376:	55 24       	eor	r5, r5
    1378:	2e 0c       	add	r2, r14
    137a:	3f 1c       	adc	r3, r15
    137c:	61 14       	cp	r6, r1
    137e:	71 04       	cpc	r7, r1
    1380:	09 f4       	brne	.+2      	; 0x1384 <SoftwareAckLayerC__0__SubSend__send+0x150>
    1382:	41 c0       	rjmp	.+130    	; 0x1406 <SoftwareAckLayerC__0__SubSend__send+0x1d2>
    1384:	f3 01       	movw	r30, r6
    1386:	80 81       	ld	r24, Z
    1388:	01 81       	ldd	r16, Z+1	; 0x01
    138a:	42 81       	ldd	r20, Z+2	; 0x02
    138c:	c3 80       	ldd	r12, Z+3	; 0x03
    138e:	55 27       	eor	r21, r21
    1390:	66 27       	eor	r22, r22
    1392:	77 27       	eor	r23, r23
    1394:	76 2f       	mov	r23, r22
    1396:	65 2f       	mov	r22, r21
    1398:	54 2f       	mov	r21, r20
    139a:	44 27       	eor	r20, r20
    139c:	99 27       	eor	r25, r25
    139e:	aa 27       	eor	r26, r26
    13a0:	bb 27       	eor	r27, r27
    13a2:	b8 2f       	mov	r27, r24
    13a4:	aa 27       	eor	r26, r26
    13a6:	99 27       	eor	r25, r25
    13a8:	88 27       	eor	r24, r24
    13aa:	11 27       	eor	r17, r17
    13ac:	22 27       	eor	r18, r18
    13ae:	33 27       	eor	r19, r19
    13b0:	98 01       	movw	r18, r16
    13b2:	11 27       	eor	r17, r17
    13b4:	00 27       	eor	r16, r16
    13b6:	80 2b       	or	r24, r16
    13b8:	91 2b       	or	r25, r17
    13ba:	a2 2b       	or	r26, r18
    13bc:	b3 2b       	or	r27, r19
    13be:	dd 24       	eor	r13, r13
    13c0:	ee 24       	eor	r14, r14
    13c2:	ff 24       	eor	r15, r15
    13c4:	8c 29       	or	r24, r12
    13c6:	9d 29       	or	r25, r13
    13c8:	ae 29       	or	r26, r14
    13ca:	bf 29       	or	r27, r15
    13cc:	48 2b       	or	r20, r24
    13ce:	59 2b       	or	r21, r25
    13d0:	6a 2b       	or	r22, r26
    13d2:	7b 2b       	or	r23, r27
    13d4:	48 19       	sub	r20, r8
    13d6:	59 09       	sbc	r21, r9
    13d8:	6a 09       	sbc	r22, r10
    13da:	7b 09       	sbc	r23, r11
    13dc:	c3 01       	movw	r24, r6
    13de:	51 d8       	rcall	.-3934   	; 0x482 <__nesc_hton_uint32>
    13e0:	a2 01       	movw	r20, r4
    13e2:	b1 01       	movw	r22, r2
    13e4:	89 81       	ldd	r24, Y+1	; 0x01
    13e6:	9a 81       	ldd	r25, Y+2	; 0x02
    13e8:	0e 94 10 17 	call	0x2e20	; 0x2e20 <memcpy>
    13ec:	96 e0       	ldi	r25, 0x06	; 6
    13ee:	90 93 aa 05 	sts	0x05AA, r25
    13f2:	84 e0       	ldi	r24, 0x04	; 4
    13f4:	80 93 8f 04 	sts	0x048F, r24
    13f8:	90 93 42 01 	sts	0x0142, r25
    13fc:	b5 01       	movw	r22, r10
    13fe:	a4 01       	movw	r20, r8
    1400:	c3 01       	movw	r24, r6
    1402:	3f d8       	rcall	.-3970   	; 0x482 <__nesc_hton_uint32>
    1404:	0e c0       	rjmp	.+28     	; 0x1422 <SoftwareAckLayerC__0__SubSend__send+0x1ee>
    1406:	a2 01       	movw	r20, r4
    1408:	b1 01       	movw	r22, r2
    140a:	89 81       	ldd	r24, Y+1	; 0x01
    140c:	9a 81       	ldd	r25, Y+2	; 0x02
    140e:	0e 94 10 17 	call	0x2e20	; 0x2e20 <memcpy>
    1412:	96 e0       	ldi	r25, 0x06	; 6
    1414:	90 93 aa 05 	sts	0x05AA, r25
    1418:	84 e0       	ldi	r24, 0x04	; 4
    141a:	80 93 8f 04 	sts	0x048F, r24
    141e:	90 93 42 01 	sts	0x0142, r25
    1422:	b5 01       	movw	r22, r10
    1424:	a4 01       	movw	r20, r8
    1426:	8b 81       	ldd	r24, Y+3	; 0x03
    1428:	9c 81       	ldd	r25, Y+4	; 0x04
    142a:	d6 da       	rcall	.-2644   	; 0x9d8 <RFA1DriverLayerP__PacketTimeStamp__set>
    142c:	80 e0       	ldi	r24, 0x00	; 0
    142e:	90 e0       	ldi	r25, 0x00	; 0
    1430:	02 c0       	rjmp	.+4      	; 0x1436 <SoftwareAckLayerC__0__SubSend__send+0x202>
    1432:	85 e0       	ldi	r24, 0x05	; 5
    1434:	90 e0       	ldi	r25, 0x00	; 0
    1436:	24 96       	adiw	r28, 0x04	; 4
    1438:	0f b6       	in	r0, 0x3f	; 63
    143a:	f8 94       	cli
    143c:	de bf       	out	0x3e, r29	; 62
    143e:	0f be       	out	0x3f, r0	; 63
    1440:	cd bf       	out	0x3d, r28	; 61
    1442:	df 91       	pop	r29
    1444:	cf 91       	pop	r28
    1446:	1f 91       	pop	r17
    1448:	0f 91       	pop	r16
    144a:	ff 90       	pop	r15
    144c:	ef 90       	pop	r14
    144e:	df 90       	pop	r13
    1450:	cf 90       	pop	r12
    1452:	bf 90       	pop	r11
    1454:	af 90       	pop	r10
    1456:	9f 90       	pop	r9
    1458:	8f 90       	pop	r8
    145a:	7f 90       	pop	r7
    145c:	6f 90       	pop	r6
    145e:	5f 90       	pop	r5
    1460:	4f 90       	pop	r4
    1462:	3f 90       	pop	r3
    1464:	2f 90       	pop	r2
    1466:	08 95       	ret

00001468 <TaskletC__doit>:
    1468:	6f 92       	push	r6
    146a:	7f 92       	push	r7
    146c:	8f 92       	push	r8
    146e:	9f 92       	push	r9
    1470:	af 92       	push	r10
    1472:	bf 92       	push	r11
    1474:	cf 92       	push	r12
    1476:	df 92       	push	r13
    1478:	ef 92       	push	r14
    147a:	ff 92       	push	r15
    147c:	0f 93       	push	r16
    147e:	1f 93       	push	r17
    1480:	cf 93       	push	r28
    1482:	df 93       	push	r29
    1484:	90 91 16 06 	lds	r25, 0x0616
    1488:	99 23       	and	r25, r25
    148a:	09 f4       	brne	.+2      	; 0x148e <TaskletC__doit+0x26>
    148c:	d4 c0       	rjmp	.+424    	; 0x1636 <TaskletC__doit+0x1ce>
    148e:	10 92 16 06 	sts	0x0616, r1
    1492:	97 ff       	sbrs	r25, 7
    1494:	07 c0       	rjmp	.+14     	; 0x14a4 <TaskletC__doit+0x3c>
    1496:	80 91 aa 05 	lds	r24, 0x05AA
    149a:	82 30       	cpi	r24, 0x02	; 2
    149c:	19 f4       	brne	.+6      	; 0x14a4 <TaskletC__doit+0x3c>
    149e:	83 e0       	ldi	r24, 0x03	; 3
    14a0:	80 93 aa 05 	sts	0x05AA, r24
    14a4:	e9 2e       	mov	r14, r25
    14a6:	ff 24       	eor	r15, r15
    14a8:	e0 fe       	sbrs	r14, 0
    14aa:	11 c0       	rjmp	.+34     	; 0x14ce <TaskletC__doit+0x66>
    14ac:	80 91 8f 04 	lds	r24, 0x048F
    14b0:	83 30       	cpi	r24, 0x03	; 3
    14b2:	11 f0       	breq	.+4      	; 0x14b8 <TaskletC__doit+0x50>
    14b4:	87 30       	cpi	r24, 0x07	; 7
    14b6:	59 f4       	brne	.+22     	; 0x14ce <TaskletC__doit+0x66>
    14b8:	85 e0       	ldi	r24, 0x05	; 5
    14ba:	80 93 aa 05 	sts	0x05AA, r24
    14be:	80 91 4c 01 	lds	r24, 0x014C
    14c2:	80 68       	ori	r24, 0x80	; 128
    14c4:	80 93 4c 01 	sts	0x014C, r24
    14c8:	88 e0       	ldi	r24, 0x08	; 8
    14ca:	80 93 8f 04 	sts	0x048F, r24
    14ce:	e4 fe       	sbrs	r14, 4
    14d0:	0c c0       	rjmp	.+24     	; 0x14ea <TaskletC__doit+0x82>
    14d2:	80 91 8f 04 	lds	r24, 0x048F
    14d6:	86 30       	cpi	r24, 0x06	; 6
    14d8:	41 f4       	brne	.+16     	; 0x14ea <TaskletC__doit+0x82>
    14da:	80 91 41 01 	lds	r24, 0x0141
    14de:	87 ff       	sbrs	r24, 7
    14e0:	04 c0       	rjmp	.+8      	; 0x14ea <TaskletC__doit+0x82>
    14e2:	10 92 8f 04 	sts	0x048F, r1
    14e6:	80 91 41 01 	lds	r24, 0x0141
    14ea:	e2 fe       	sbrs	r14, 2
    14ec:	4b c0       	rjmp	.+150    	; 0x1584 <TaskletC__doit+0x11c>
    14ee:	80 91 8f 04 	lds	r24, 0x048F
    14f2:	86 30       	cpi	r24, 0x06	; 6
    14f4:	19 f4       	brne	.+6      	; 0x14fc <TaskletC__doit+0x94>
    14f6:	10 92 8f 04 	sts	0x048F, r1
    14fa:	03 c0       	rjmp	.+6      	; 0x1502 <TaskletC__doit+0x9a>
    14fc:	88 23       	and	r24, r24
    14fe:	09 f0       	breq	.+2      	; 0x1502 <TaskletC__doit+0x9a>
    1500:	41 c0       	rjmp	.+130    	; 0x1584 <TaskletC__doit+0x11c>
    1502:	c0 91 09 07 	lds	r28, 0x0709
    1506:	d0 91 0a 07 	lds	r29, 0x070A
    150a:	94 30       	cpi	r25, 0x04	; 4
    150c:	69 f5       	brne	.+90     	; 0x1568 <TaskletC__doit+0x100>
    150e:	10 91 46 01 	lds	r17, 0x0146
    1512:	1f 71       	andi	r17, 0x1F	; 31
    1514:	80 91 76 04 	lds	r24, 0x0476
    1518:	98 2f       	mov	r25, r24
    151a:	96 95       	lsr	r25
    151c:	96 95       	lsr	r25
    151e:	21 2f       	mov	r18, r17
    1520:	29 1b       	sub	r18, r25
    1522:	82 0f       	add	r24, r18
    1524:	80 93 76 04 	sts	0x0476, r24
    1528:	be 01       	movw	r22, r28
    152a:	82 e0       	ldi	r24, 0x02	; 2
    152c:	0e 94 34 02 	call	0x468	; 0x468 <MetadataFlagsLayerC__0__PacketFlag__clear>
    1530:	be 01       	movw	r22, r28
    1532:	83 e0       	ldi	r24, 0x03	; 3
    1534:	45 da       	rcall	.-2934   	; 0x9c0 <MetadataFlagsLayerC__0__PacketFlag__set>
    1536:	19 ab       	std	Y+49, r17	; 0x31
    1538:	2f b7       	in	r18, 0x3f	; 63
    153a:	f8 94       	cli
    153c:	33 27       	eor	r19, r19
    153e:	80 91 e9 00 	lds	r24, 0x00E9
    1542:	68 2e       	mov	r6, r24
    1544:	80 91 ea 00 	lds	r24, 0x00EA
    1548:	78 2e       	mov	r7, r24
    154a:	80 91 eb 00 	lds	r24, 0x00EB
    154e:	88 2e       	mov	r8, r24
    1550:	80 91 ec 00 	lds	r24, 0x00EC
    1554:	98 2e       	mov	r9, r24
    1556:	2f bf       	out	0x3f, r18	; 63
    1558:	b4 01       	movw	r22, r8
    155a:	a3 01       	movw	r20, r6
    155c:	80 91 09 07 	lds	r24, 0x0709
    1560:	90 91 0a 07 	lds	r25, 0x070A
    1564:	39 da       	rcall	.-2958   	; 0x9d8 <RFA1DriverLayerP__PacketTimeStamp__set>
    1566:	0b c0       	rjmp	.+22     	; 0x157e <TaskletC__doit+0x116>
    1568:	be 01       	movw	r22, r28
    156a:	83 e0       	ldi	r24, 0x03	; 3
    156c:	0e 94 34 02 	call	0x468	; 0x468 <MetadataFlagsLayerC__0__PacketFlag__clear>
    1570:	60 91 09 07 	lds	r22, 0x0709
    1574:	70 91 0a 07 	lds	r23, 0x070A
    1578:	81 e0       	ldi	r24, 0x01	; 1
    157a:	0e 94 34 02 	call	0x468	; 0x468 <MetadataFlagsLayerC__0__PacketFlag__clear>
    157e:	85 e0       	ldi	r24, 0x05	; 5
    1580:	80 93 8f 04 	sts	0x048F, r24
    1584:	e6 fe       	sbrs	r14, 6
    1586:	37 c0       	rjmp	.+110    	; 0x15f6 <TaskletC__doit+0x18e>
    1588:	80 91 8f 04 	lds	r24, 0x048F
    158c:	84 30       	cpi	r24, 0x04	; 4
    158e:	99 f5       	brne	.+102    	; 0x15f6 <TaskletC__doit+0x18e>
    1590:	85 e0       	ldi	r24, 0x05	; 5
    1592:	80 93 aa 05 	sts	0x05AA, r24
    1596:	10 92 8f 04 	sts	0x048F, r1
    159a:	80 91 77 04 	lds	r24, 0x0477
    159e:	83 30       	cpi	r24, 0x03	; 3
    15a0:	19 f4       	brne	.+6      	; 0x15a8 <TaskletC__doit+0x140>
    15a2:	10 92 77 04 	sts	0x0477, r1
    15a6:	27 c0       	rjmp	.+78     	; 0x15f6 <TaskletC__doit+0x18e>
    15a8:	00 91 d5 06 	lds	r16, 0x06D5
    15ac:	10 91 d6 06 	lds	r17, 0x06D6
    15b0:	c8 01       	movw	r24, r16
    15b2:	2a da       	rcall	.-2988   	; 0xa08 <Ieee154PacketLayerP__0__Ieee154PacketLayer__getAckRequired>
    15b4:	88 23       	and	r24, r24
    15b6:	d9 f0       	breq	.+54     	; 0x15ee <TaskletC__doit+0x186>
    15b8:	c8 01       	movw	r24, r16
    15ba:	37 da       	rcall	.-2962   	; 0xa2a <Ieee154PacketLayerP__0__Ieee154PacketLayer__isDataFrame>
    15bc:	88 23       	and	r24, r24
    15be:	b9 f0       	breq	.+46     	; 0x15ee <TaskletC__doit+0x186>
    15c0:	c8 01       	movw	r24, r16
    15c2:	47 da       	rcall	.-2930   	; 0xa52 <Ieee154PacketLayerP__0__Ieee154PacketLayer__getDestAddr>
    15c4:	8f 5f       	subi	r24, 0xFF	; 255
    15c6:	9f 4f       	sbci	r25, 0xFF	; 255
    15c8:	91 f0       	breq	.+36     	; 0x15ee <TaskletC__doit+0x186>
    15ca:	90 e0       	ldi	r25, 0x00	; 0
    15cc:	80 91 08 06 	lds	r24, 0x0608
    15d0:	88 23       	and	r24, r24
    15d2:	09 f4       	brne	.+2      	; 0x15d6 <TaskletC__doit+0x16e>
    15d4:	91 e0       	ldi	r25, 0x01	; 1
    15d6:	99 23       	and	r25, r25
    15d8:	51 f0       	breq	.+20     	; 0x15ee <TaskletC__doit+0x186>
    15da:	48 e3       	ldi	r20, 0x38	; 56
    15dc:	51 e0       	ldi	r21, 0x01	; 1
    15de:	60 e0       	ldi	r22, 0x00	; 0
    15e0:	70 e0       	ldi	r23, 0x00	; 0
    15e2:	81 e0       	ldi	r24, 0x01	; 1
    15e4:	40 da       	rcall	.-2944   	; 0xa66 <RadioAlarmP__0__RadioAlarm__wait>
    15e6:	82 e0       	ldi	r24, 0x02	; 2
    15e8:	80 93 77 04 	sts	0x0477, r24
    15ec:	04 c0       	rjmp	.+8      	; 0x15f6 <TaskletC__doit+0x18e>
    15ee:	10 92 77 04 	sts	0x0477, r1
    15f2:	80 e0       	ldi	r24, 0x00	; 0
    15f4:	82 da       	rcall	.-2812   	; 0xafa <SoftwareAckLayerC__0__RadioSend__sendDone>
    15f6:	e3 fe       	sbrs	r14, 3
    15f8:	1e c0       	rjmp	.+60     	; 0x1636 <TaskletC__doit+0x1ce>
    15fa:	90 91 8f 04 	lds	r25, 0x048F
    15fe:	95 30       	cpi	r25, 0x05	; 5
    1600:	d1 f4       	brne	.+52     	; 0x1636 <TaskletC__doit+0x1ce>
    1602:	80 91 aa 05 	lds	r24, 0x05AA
    1606:	87 30       	cpi	r24, 0x07	; 7
    1608:	31 f4       	brne	.+12     	; 0x1616 <TaskletC__doit+0x1ae>
    160a:	86 e0       	ldi	r24, 0x06	; 6
    160c:	80 93 42 01 	sts	0x0142, r24
    1610:	90 93 aa 05 	sts	0x05AA, r25
    1614:	0c c0       	rjmp	.+24     	; 0x162e <TaskletC__doit+0x1c6>
    1616:	80 91 36 06 	lds	r24, 0x0636
    161a:	90 91 46 01 	lds	r25, 0x0146
    161e:	9f 71       	andi	r25, 0x1F	; 31
    1620:	28 2f       	mov	r18, r24
    1622:	26 95       	lsr	r18
    1624:	26 95       	lsr	r18
    1626:	92 1b       	sub	r25, r18
    1628:	89 0f       	add	r24, r25
    162a:	80 93 36 06 	sts	0x0636, r24
    162e:	89 e0       	ldi	r24, 0x09	; 9
    1630:	80 93 8f 04 	sts	0x048F, r24
    1634:	08 c0       	rjmp	.+16     	; 0x1646 <TaskletC__doit+0x1de>
    1636:	90 91 8f 04 	lds	r25, 0x048F
    163a:	99 23       	and	r25, r25
    163c:	09 f4       	brne	.+2      	; 0x1640 <TaskletC__doit+0x1d8>
    163e:	32 c2       	rjmp	.+1124   	; 0x1aa4 <TaskletC__doit+0x63c>
    1640:	99 30       	cpi	r25, 0x09	; 9
    1642:	09 f0       	breq	.+2      	; 0x1646 <TaskletC__doit+0x1de>
    1644:	bf c1       	rjmp	.+894    	; 0x19c4 <TaskletC__doit+0x55c>
    1646:	40 91 7b 01 	lds	r20, 0x017B
    164a:	43 30       	cpi	r20, 0x03	; 3
    164c:	08 f4       	brcc	.+2      	; 0x1650 <TaskletC__doit+0x1e8>
    164e:	67 c0       	rjmp	.+206    	; 0x171e <TaskletC__doit+0x2b6>
    1650:	84 2f       	mov	r24, r20
    1652:	99 27       	eor	r25, r25
    1654:	89 97       	sbiw	r24, 0x29	; 41
    1656:	0c f0       	brlt	.+2      	; 0x165a <TaskletC__doit+0x1f2>
    1658:	62 c0       	rjmp	.+196    	; 0x171e <TaskletC__doit+0x2b6>
    165a:	e0 91 09 07 	lds	r30, 0x0709
    165e:	f0 91 0a 07 	lds	r31, 0x070A
    1662:	6f 01       	movw	r12, r30
    1664:	08 94       	sec
    1666:	c1 1c       	adc	r12, r1
    1668:	d1 1c       	adc	r13, r1
    166a:	40 83       	st	Z, r20
    166c:	fe ef       	ldi	r31, 0xFE	; 254
    166e:	ff 2e       	mov	r15, r31
    1670:	f4 0e       	add	r15, r20
    1672:	b6 e0       	ldi	r27, 0x06	; 6
    1674:	bf 15       	cp	r27, r15
    1676:	10 f0       	brcs	.+4      	; 0x167c <TaskletC__doit+0x214>
    1678:	ef 2c       	mov	r14, r15
    167a:	02 c0       	rjmp	.+4      	; 0x1680 <TaskletC__doit+0x218>
    167c:	e7 e0       	ldi	r30, 0x07	; 7
    167e:	ee 2e       	mov	r14, r30
    1680:	0e 2d       	mov	r16, r14
    1682:	11 27       	eor	r17, r17
    1684:	a8 01       	movw	r20, r16
    1686:	60 e8       	ldi	r22, 0x80	; 128
    1688:	71 e0       	ldi	r23, 0x01	; 1
    168a:	c6 01       	movw	r24, r12
    168c:	0e 94 10 17 	call	0x2e20	; 0x2e20 <memcpy>
    1690:	c0 91 09 07 	lds	r28, 0x0709
    1694:	d0 91 0a 07 	lds	r29, 0x070A
    1698:	ce 01       	movw	r24, r28
    169a:	32 da       	rcall	.-2972   	; 0xb00 <SoftwareAckLayerC__0__Config__isAckPacket>
    169c:	88 23       	and	r24, r24
    169e:	c1 f0       	breq	.+48     	; 0x16d0 <TaskletC__doit+0x268>
    16a0:	80 91 77 04 	lds	r24, 0x0477
    16a4:	82 30       	cpi	r24, 0x02	; 2
    16a6:	89 f4       	brne	.+34     	; 0x16ca <TaskletC__doit+0x262>
    16a8:	8b 81       	ldd	r24, Y+3	; 0x03
    16aa:	e0 91 d5 06 	lds	r30, 0x06D5
    16ae:	f0 91 d6 06 	lds	r31, 0x06D6
    16b2:	93 81       	ldd	r25, Z+3	; 0x03
    16b4:	89 17       	cp	r24, r25
    16b6:	49 f4       	brne	.+18     	; 0x16ca <TaskletC__doit+0x262>
    16b8:	89 81       	ldd	r24, Y+1	; 0x01
    16ba:	90 e0       	ldi	r25, 0x00	; 0
    16bc:	87 70       	andi	r24, 0x07	; 7
    16be:	82 30       	cpi	r24, 0x02	; 2
    16c0:	09 f0       	breq	.+2      	; 0x16c4 <TaskletC__doit+0x25c>
    16c2:	91 e0       	ldi	r25, 0x01	; 1
    16c4:	81 e0       	ldi	r24, 0x01	; 1
    16c6:	98 27       	eor	r25, r24
    16c8:	0e c0       	rjmp	.+28     	; 0x16e6 <TaskletC__doit+0x27e>
    16ca:	80 e0       	ldi	r24, 0x00	; 0
    16cc:	90 e0       	ldi	r25, 0x00	; 0
    16ce:	0d c0       	rjmp	.+26     	; 0x16ea <TaskletC__doit+0x282>
    16d0:	8f b7       	in	r24, 0x3f	; 63
    16d2:	f8 94       	cli
    16d4:	28 2f       	mov	r18, r24
    16d6:	33 27       	eor	r19, r19
    16d8:	90 e0       	ldi	r25, 0x00	; 0
    16da:	80 91 17 06 	lds	r24, 0x0617
    16de:	83 30       	cpi	r24, 0x03	; 3
    16e0:	08 f4       	brcc	.+2      	; 0x16e4 <TaskletC__doit+0x27c>
    16e2:	91 e0       	ldi	r25, 0x01	; 1
    16e4:	2f bf       	out	0x3f, r18	; 63
    16e6:	89 2f       	mov	r24, r25
    16e8:	99 27       	eor	r25, r25
    16ea:	89 2b       	or	r24, r25
    16ec:	c1 f0       	breq	.+48     	; 0x171e <TaskletC__doit+0x2b6>
    16ee:	fe 18       	sub	r15, r14
    16f0:	4f 2d       	mov	r20, r15
    16f2:	55 27       	eor	r21, r21
    16f4:	b8 01       	movw	r22, r16
    16f6:	60 58       	subi	r22, 0x80	; 128
    16f8:	7e 4f       	sbci	r23, 0xFE	; 254
    16fa:	c6 01       	movw	r24, r12
    16fc:	80 0f       	add	r24, r16
    16fe:	91 1f       	adc	r25, r17
    1700:	0e 94 10 17 	call	0x2e20	; 0x2e20 <memcpy>
    1704:	e0 91 7b 01 	lds	r30, 0x017B
    1708:	ff 27       	eor	r31, r31
    170a:	e0 58       	subi	r30, 0x80	; 128
    170c:	fe 4f       	sbci	r31, 0xFE	; 254
    170e:	80 81       	ld	r24, Z
    1710:	e0 91 09 07 	lds	r30, 0x0709
    1714:	f0 91 0a 07 	lds	r31, 0x070A
    1718:	80 ab       	std	Z+48, r24	; 0x30
    171a:	21 e0       	ldi	r18, 0x01	; 1
    171c:	01 c0       	rjmp	.+2      	; 0x1720 <TaskletC__doit+0x2b8>
    171e:	20 e0       	ldi	r18, 0x00	; 0
    1720:	80 91 46 01 	lds	r24, 0x0146
    1724:	99 27       	eor	r25, r25
    1726:	87 70       	andi	r24, 0x07	; 7
    1728:	90 70       	andi	r25, 0x00	; 0
    172a:	89 2b       	or	r24, r25
    172c:	09 f0       	breq	.+2      	; 0x1730 <TaskletC__doit+0x2c8>
    172e:	57 c2       	rjmp	.+1198   	; 0x1bde <TaskletC__doit+0x776>
    1730:	80 91 4c 01 	lds	r24, 0x014C
    1734:	8f 77       	andi	r24, 0x7F	; 127
    1736:	80 93 4c 01 	sts	0x014C, r24
    173a:	80 91 4c 01 	lds	r24, 0x014C
    173e:	80 68       	ori	r24, 0x80	; 128
    1740:	80 93 4c 01 	sts	0x014C, r24
    1744:	85 e0       	ldi	r24, 0x05	; 5
    1746:	80 93 aa 05 	sts	0x05AA, r24
    174a:	10 92 8f 04 	sts	0x048F, r1
    174e:	22 23       	and	r18, r18
    1750:	09 f4       	brne	.+2      	; 0x1754 <TaskletC__doit+0x2ec>
    1752:	a4 c1       	rjmp	.+840    	; 0x1a9c <TaskletC__doit+0x634>
    1754:	a0 90 09 07 	lds	r10, 0x0709
    1758:	b0 90 0a 07 	lds	r11, 0x070A
    175c:	c5 01       	movw	r24, r10
    175e:	d0 d9       	rcall	.-3168   	; 0xb00 <SoftwareAckLayerC__0__Config__isAckPacket>
    1760:	18 2f       	mov	r17, r24
    1762:	80 91 77 04 	lds	r24, 0x0477
    1766:	82 30       	cpi	r24, 0x02	; 2
    1768:	d1 f4       	brne	.+52     	; 0x179e <TaskletC__doit+0x336>
    176a:	80 91 df 00 	lds	r24, 0x00DF
    176e:	8d 7f       	andi	r24, 0xFD	; 253
    1770:	80 93 df 00 	sts	0x00DF, r24
    1774:	8f ef       	ldi	r24, 0xFF	; 255
    1776:	80 93 61 04 	sts	0x0461, r24
    177a:	10 92 08 06 	sts	0x0608, r1
    177e:	60 91 d5 06 	lds	r22, 0x06D5
    1782:	70 91 d6 06 	lds	r23, 0x06D6
    1786:	11 23       	and	r17, r17
    1788:	19 f0       	breq	.+6      	; 0x1790 <TaskletC__doit+0x328>
    178a:	80 e0       	ldi	r24, 0x00	; 0
    178c:	19 d9       	rcall	.-3534   	; 0x9c0 <MetadataFlagsLayerC__0__PacketFlag__set>
    178e:	03 c0       	rjmp	.+6      	; 0x1796 <TaskletC__doit+0x32e>
    1790:	80 e0       	ldi	r24, 0x00	; 0
    1792:	0e 94 34 02 	call	0x468	; 0x468 <MetadataFlagsLayerC__0__PacketFlag__clear>
    1796:	10 92 77 04 	sts	0x0477, r1
    179a:	80 e0       	ldi	r24, 0x00	; 0
    179c:	ae d9       	rcall	.-3236   	; 0xafa <SoftwareAckLayerC__0__RadioSend__sendDone>
    179e:	11 23       	and	r17, r17
    17a0:	09 f0       	breq	.+2      	; 0x17a4 <TaskletC__doit+0x33c>
    17a2:	0b c1       	rjmp	.+534    	; 0x19ba <TaskletC__doit+0x552>
    17a4:	c5 01       	movw	r24, r10
    17a6:	b6 d9       	rcall	.-3220   	; 0xb14 <RFA1RadioP__Ieee154PacketLayer__requiresAckReply>
    17a8:	88 23       	and	r24, r24
    17aa:	a1 f0       	breq	.+40     	; 0x17d4 <TaskletC__doit+0x36c>
    17ac:	85 e0       	ldi	r24, 0x05	; 5
    17ae:	80 93 ab 05 	sts	0x05AB, r24
    17b2:	82 e0       	ldi	r24, 0x02	; 2
    17b4:	80 93 ac 05 	sts	0x05AC, r24
    17b8:	10 92 ad 05 	sts	0x05AD, r1
    17bc:	f5 01       	movw	r30, r10
    17be:	83 81       	ldd	r24, Z+3	; 0x03
    17c0:	80 93 ae 05 	sts	0x05AE, r24
    17c4:	8b ea       	ldi	r24, 0xAB	; 171
    17c6:	95 e0       	ldi	r25, 0x05	; 5
    17c8:	35 dd       	rcall	.-1430   	; 0x1234 <SoftwareAckLayerC__0__SubSend__send>
    17ca:	88 23       	and	r24, r24
    17cc:	19 f4       	brne	.+6      	; 0x17d4 <TaskletC__doit+0x36c>
    17ce:	83 e0       	ldi	r24, 0x03	; 3
    17d0:	80 93 77 04 	sts	0x0477, r24
    17d4:	0e 94 b0 03 	call	0x760	; 0x760 <CounterToLocalTimeC__1__LocalTime__get>
    17d8:	6b 01       	movw	r12, r22
    17da:	7c 01       	movw	r14, r24
    17dc:	c5 01       	movw	r24, r10
    17de:	9a d9       	rcall	.-3276   	; 0xb14 <RFA1RadioP__Ieee154PacketLayer__requiresAckReply>
    17e0:	88 23       	and	r24, r24
    17e2:	41 f0       	breq	.+16     	; 0x17f4 <TaskletC__doit+0x38c>
    17e4:	86 e3       	ldi	r24, 0x36	; 54
    17e6:	90 e0       	ldi	r25, 0x00	; 0
    17e8:	a0 e0       	ldi	r26, 0x00	; 0
    17ea:	b0 e0       	ldi	r27, 0x00	; 0
    17ec:	c8 0e       	add	r12, r24
    17ee:	d9 1e       	adc	r13, r25
    17f0:	ea 1e       	adc	r14, r26
    17f2:	fb 1e       	adc	r15, r27
    17f4:	86 01       	movw	r16, r12
    17f6:	d0 92 df 05 	sts	0x05DF, r13
    17fa:	c0 92 de 05 	sts	0x05DE, r12
    17fe:	0e 94 ac 03 	call	0x758	; 0x758 <RandomCollisionLayerP__0__RadioAlarm__getNow>
    1802:	06 1b       	sub	r16, r22
    1804:	17 0b       	sbc	r17, r23
    1806:	10 16       	cp	r1, r16
    1808:	11 06       	cpc	r1, r17
    180a:	bc f4       	brge	.+46     	; 0x183a <TaskletC__doit+0x3d2>
    180c:	80 91 97 05 	lds	r24, 0x0597
    1810:	88 23       	and	r24, r24
    1812:	81 f4       	brne	.+32     	; 0x1834 <TaskletC__doit+0x3cc>
    1814:	90 e0       	ldi	r25, 0x00	; 0
    1816:	80 91 08 06 	lds	r24, 0x0608
    181a:	88 23       	and	r24, r24
    181c:	09 f4       	brne	.+2      	; 0x1820 <TaskletC__doit+0x3b8>
    181e:	91 e0       	ldi	r25, 0x01	; 1
    1820:	99 23       	and	r25, r25
    1822:	59 f0       	breq	.+22     	; 0x183a <TaskletC__doit+0x3d2>
    1824:	b8 01       	movw	r22, r16
    1826:	88 27       	eor	r24, r24
    1828:	77 fd       	sbrc	r23, 7
    182a:	80 95       	com	r24
    182c:	98 2f       	mov	r25, r24
    182e:	a1 d9       	rcall	.-3262   	; 0xb72 <RandomCollisionLayerP__0__RadioAlarm__wait>
    1830:	80 e8       	ldi	r24, 0x80	; 128
    1832:	01 c0       	rjmp	.+2      	; 0x1836 <TaskletC__doit+0x3ce>
    1834:	80 68       	ori	r24, 0x80	; 128
    1836:	80 93 97 05 	sts	0x0597, r24
    183a:	75 01       	movw	r14, r10
    183c:	08 94       	sec
    183e:	e1 1c       	adc	r14, r1
    1840:	f1 1c       	adc	r15, r1
    1842:	f5 01       	movw	r30, r10
    1844:	81 85       	ldd	r24, Z+9	; 0x09
    1846:	20 85       	ldd	r18, Z+8	; 0x08
    1848:	99 27       	eor	r25, r25
    184a:	58 2f       	mov	r21, r24
    184c:	44 27       	eor	r20, r20
    184e:	33 27       	eor	r19, r19
    1850:	42 2b       	or	r20, r18
    1852:	53 2b       	or	r21, r19
    1854:	80 91 78 04 	lds	r24, 0x0478
    1858:	28 2f       	mov	r18, r24
    185a:	33 27       	eor	r19, r19
    185c:	f9 01       	movw	r30, r18
    185e:	ee 0f       	add	r30, r30
    1860:	ff 1f       	adc	r31, r31
    1862:	e1 5e       	subi	r30, 0xE1	; 225
    1864:	f9 4f       	sbci	r31, 0xF9	; 249
    1866:	80 81       	ld	r24, Z
    1868:	91 81       	ldd	r25, Z+1	; 0x01
    186a:	70 91 09 06 	lds	r23, 0x0609
    186e:	84 17       	cp	r24, r20
    1870:	95 07       	cpc	r25, r21
    1872:	69 f4       	brne	.+26     	; 0x188e <TaskletC__doit+0x426>
    1874:	f9 01       	movw	r30, r18
    1876:	e1 53       	subi	r30, 0x31	; 49
    1878:	f9 4f       	sbci	r31, 0xF9	; 249
    187a:	80 81       	ld	r24, Z
    187c:	87 17       	cp	r24, r23
    187e:	09 f4       	brne	.+2      	; 0x1882 <TaskletC__doit+0x41a>
    1880:	67 c0       	rjmp	.+206    	; 0x1950 <TaskletC__doit+0x4e8>
    1882:	87 2f       	mov	r24, r23
    1884:	8f 5f       	subi	r24, 0xFF	; 255
    1886:	80 93 09 06 	sts	0x0609, r24
    188a:	80 83       	st	Z, r24
    188c:	1d c0       	rjmp	.+58     	; 0x18c8 <TaskletC__doit+0x460>
    188e:	00 e0       	ldi	r16, 0x00	; 0
    1890:	10 e0       	ldi	r17, 0x00	; 0
    1892:	80 e0       	ldi	r24, 0x00	; 0
    1894:	90 e0       	ldi	r25, 0x00	; 0
    1896:	cf e1       	ldi	r28, 0x1F	; 31
    1898:	d6 e0       	ldi	r29, 0x06	; 6
    189a:	ef ec       	ldi	r30, 0xCF	; 207
    189c:	f6 e0       	ldi	r31, 0x06	; 6
    189e:	df 01       	movw	r26, r30
    18a0:	68 2f       	mov	r22, r24
    18a2:	9c 01       	movw	r18, r24
    18a4:	88 81       	ld	r24, Y
    18a6:	99 81       	ldd	r25, Y+1	; 0x01
    18a8:	84 17       	cp	r24, r20
    18aa:	95 07       	cpc	r25, r21
    18ac:	79 f4       	brne	.+30     	; 0x18cc <TaskletC__doit+0x464>
    18ae:	20 93 78 04 	sts	0x0478, r18
    18b2:	90 91 09 06 	lds	r25, 0x0609
    18b6:	8c 91       	ld	r24, X
    18b8:	89 17       	cp	r24, r25
    18ba:	09 f4       	brne	.+2      	; 0x18be <TaskletC__doit+0x456>
    18bc:	49 c0       	rjmp	.+146    	; 0x1950 <TaskletC__doit+0x4e8>
    18be:	89 2f       	mov	r24, r25
    18c0:	8f 5f       	subi	r24, 0xFF	; 255
    18c2:	80 93 09 06 	sts	0x0609, r24
    18c6:	8c 93       	st	X, r24
    18c8:	00 e8       	ldi	r16, 0x80	; 128
    18ca:	29 c0       	rjmp	.+82     	; 0x191e <TaskletC__doit+0x4b6>
    18cc:	80 81       	ld	r24, Z
    18ce:	97 2f       	mov	r25, r23
    18d0:	98 1b       	sub	r25, r24
    18d2:	09 17       	cp	r16, r25
    18d4:	10 f4       	brcc	.+4      	; 0x18da <TaskletC__doit+0x472>
    18d6:	09 2f       	mov	r16, r25
    18d8:	12 2f       	mov	r17, r18
    18da:	6f 5f       	subi	r22, 0xFF	; 255
    18dc:	c9 01       	movw	r24, r18
    18de:	01 96       	adiw	r24, 0x01	; 1
    18e0:	11 96       	adiw	r26, 0x01	; 1
    18e2:	22 96       	adiw	r28, 0x02	; 2
    18e4:	31 96       	adiw	r30, 0x01	; 1
    18e6:	85 30       	cpi	r24, 0x05	; 5
    18e8:	91 05       	cpc	r25, r1
    18ea:	d1 f6       	brne	.-76     	; 0x18a0 <TaskletC__doit+0x438>
    18ec:	65 30       	cpi	r22, 0x05	; 5
    18ee:	b9 f4       	brne	.+46     	; 0x191e <TaskletC__doit+0x4b6>
    18f0:	10 93 78 04 	sts	0x0478, r17
    18f4:	a1 2f       	mov	r26, r17
    18f6:	bb 27       	eor	r27, r27
    18f8:	fd 01       	movw	r30, r26
    18fa:	ee 0f       	add	r30, r30
    18fc:	ff 1f       	adc	r31, r31
    18fe:	e1 5e       	subi	r30, 0xE1	; 225
    1900:	f9 4f       	sbci	r31, 0xF9	; 249
    1902:	51 83       	std	Z+1, r21	; 0x01
    1904:	40 83       	st	Z, r20
    1906:	80 91 09 06 	lds	r24, 0x0609
    190a:	8f 5f       	subi	r24, 0xFF	; 255
    190c:	80 93 09 06 	sts	0x0609, r24
    1910:	fd 01       	movw	r30, r26
    1912:	e1 53       	subi	r30, 0x31	; 49
    1914:	f9 4f       	sbci	r31, 0xF9	; 249
    1916:	80 83       	st	Z, r24
    1918:	a5 5f       	subi	r26, 0xF5	; 245
    191a:	b8 4f       	sbci	r27, 0xF8	; 248
    191c:	1c 92       	st	X, r1
    191e:	90 91 09 06 	lds	r25, 0x0609
    1922:	89 2f       	mov	r24, r25
    1924:	8f 77       	andi	r24, 0x7F	; 127
    1926:	8f 37       	cpi	r24, 0x7F	; 127
    1928:	79 f4       	brne	.+30     	; 0x1948 <TaskletC__doit+0x4e0>
    192a:	0f 37       	cpi	r16, 0x7F	; 127
    192c:	68 f0       	brcs	.+26     	; 0x1948 <TaskletC__doit+0x4e0>
    192e:	ef ec       	ldi	r30, 0xCF	; 207
    1930:	f6 e0       	ldi	r31, 0x06	; 6
    1932:	29 2f       	mov	r18, r25
    1934:	20 78       	andi	r18, 0x80	; 128
    1936:	80 81       	ld	r24, Z
    1938:	8f 67       	ori	r24, 0x7F	; 127
    193a:	89 13       	cpse	r24, r25
    193c:	20 83       	st	Z, r18
    193e:	31 96       	adiw	r30, 0x01	; 1
    1940:	a6 e0       	ldi	r26, 0x06	; 6
    1942:	e4 3d       	cpi	r30, 0xD4	; 212
    1944:	fa 07       	cpc	r31, r26
    1946:	b9 f7       	brne	.-18     	; 0x1936 <TaskletC__doit+0x4ce>
    1948:	80 91 78 04 	lds	r24, 0x0478
    194c:	28 2f       	mov	r18, r24
    194e:	33 27       	eor	r19, r19
    1950:	f7 01       	movw	r30, r14
    1952:	92 81       	ldd	r25, Z+2	; 0x02
    1954:	a2 2f       	mov	r26, r18
    1956:	bb 27       	eor	r27, r27
    1958:	fd 01       	movw	r30, r26
    195a:	e5 5f       	subi	r30, 0xF5	; 245
    195c:	f8 4f       	sbci	r31, 0xF8	; 248
    195e:	80 81       	ld	r24, Z
    1960:	80 ff       	sbrs	r24, 0
    1962:	07 c0       	rjmp	.+14     	; 0x1972 <TaskletC__doit+0x50a>
    1964:	fd 01       	movw	r30, r26
    1966:	e8 5e       	subi	r30, 0xE8	; 232
    1968:	f9 4f       	sbci	r31, 0xF9	; 249
    196a:	80 81       	ld	r24, Z
    196c:	98 17       	cp	r25, r24
    196e:	29 f1       	breq	.+74     	; 0x19ba <TaskletC__doit+0x552>
    1970:	02 c0       	rjmp	.+4      	; 0x1976 <TaskletC__doit+0x50e>
    1972:	81 60       	ori	r24, 0x01	; 1
    1974:	80 83       	st	Z, r24
    1976:	a8 5e       	subi	r26, 0xE8	; 232
    1978:	b9 4f       	sbci	r27, 0xF9	; 249
    197a:	9c 93       	st	X, r25
    197c:	ff b6       	in	r15, 0x3f	; 63
    197e:	f8 94       	cli
    1980:	80 91 17 06 	lds	r24, 0x0617
    1984:	83 30       	cpi	r24, 0x03	; 3
    1986:	b0 f4       	brcc	.+44     	; 0x19b4 <TaskletC__doit+0x54c>
    1988:	e0 91 34 06 	lds	r30, 0x0634
    198c:	e8 0f       	add	r30, r24
    198e:	e3 30       	cpi	r30, 0x03	; 3
    1990:	08 f0       	brcs	.+2      	; 0x1994 <TaskletC__doit+0x52c>
    1992:	e3 50       	subi	r30, 0x03	; 3
    1994:	ff 27       	eor	r31, r31
    1996:	ee 0f       	add	r30, r30
    1998:	ff 1f       	adc	r31, r31
    199a:	e1 59       	subi	r30, 0x91	; 145
    199c:	fb 4f       	sbci	r31, 0xFB	; 251
    199e:	00 81       	ld	r16, Z
    19a0:	11 81       	ldd	r17, Z+1	; 0x01
    19a2:	b1 82       	std	Z+1, r11	; 0x01
    19a4:	a0 82       	st	Z, r10
    19a6:	8f 5f       	subi	r24, 0xFF	; 255
    19a8:	80 93 17 06 	sts	0x0617, r24
    19ac:	81 e1       	ldi	r24, 0x11	; 17
    19ae:	0e 94 9d 02 	call	0x53a	; 0x53a <SchedulerBasicP__TaskBasic__postTask>
    19b2:	58 01       	movw	r10, r16
    19b4:	8f 2d       	mov	r24, r15
    19b6:	99 27       	eor	r25, r25
    19b8:	8f bf       	out	0x3f, r24	; 63
    19ba:	b0 92 0a 07 	sts	0x070A, r11
    19be:	a0 92 09 07 	sts	0x0709, r10
    19c2:	63 c0       	rjmp	.+198    	; 0x1a8a <TaskletC__doit+0x622>
    19c4:	29 2f       	mov	r18, r25
    19c6:	21 50       	subi	r18, 0x01	; 1
    19c8:	23 30       	cpi	r18, 0x03	; 3
    19ca:	08 f0       	brcs	.+2      	; 0x19ce <TaskletC__doit+0x566>
    19cc:	49 c0       	rjmp	.+146    	; 0x1a60 <TaskletC__doit+0x5f8>
    19ce:	89 2f       	mov	r24, r25
    19d0:	82 50       	subi	r24, 0x02	; 2
    19d2:	82 30       	cpi	r24, 0x02	; 2
    19d4:	70 f4       	brcc	.+28     	; 0x19f2 <TaskletC__doit+0x58a>
    19d6:	80 91 aa 05 	lds	r24, 0x05AA
    19da:	81 30       	cpi	r24, 0x01	; 1
    19dc:	51 f4       	brne	.+20     	; 0x19f2 <TaskletC__doit+0x58a>
    19de:	8d ec       	ldi	r24, 0xCD	; 205
    19e0:	80 93 4e 01 	sts	0x014E, r24
    19e4:	80 91 39 01 	lds	r24, 0x0139
    19e8:	8d 7f       	andi	r24, 0xFD	; 253
    19ea:	80 93 39 01 	sts	0x0139, r24
    19ee:	82 e0       	ldi	r24, 0x02	; 2
    19f0:	1c c0       	rjmp	.+56     	; 0x1a2a <TaskletC__doit+0x5c2>
    19f2:	93 30       	cpi	r25, 0x03	; 3
    19f4:	71 f4       	brne	.+28     	; 0x1a12 <TaskletC__doit+0x5aa>
    19f6:	80 91 aa 05 	lds	r24, 0x05AA
    19fa:	83 30       	cpi	r24, 0x03	; 3
    19fc:	51 f4       	brne	.+20     	; 0x1a12 <TaskletC__doit+0x5aa>
    19fe:	80 91 ce 06 	lds	r24, 0x06CE
    1a02:	80 66       	ori	r24, 0x60	; 96
    1a04:	80 93 48 01 	sts	0x0148, r24
    1a08:	86 e0       	ldi	r24, 0x06	; 6
    1a0a:	80 93 42 01 	sts	0x0142, r24
    1a0e:	84 e0       	ldi	r24, 0x04	; 4
    1a10:	0c c0       	rjmp	.+24     	; 0x1a2a <TaskletC__doit+0x5c2>
    1a12:	22 30       	cpi	r18, 0x02	; 2
    1a14:	60 f4       	brcc	.+24     	; 0x1a2e <TaskletC__doit+0x5c6>
    1a16:	80 91 aa 05 	lds	r24, 0x05AA
    1a1a:	85 30       	cpi	r24, 0x05	; 5
    1a1c:	41 f4       	brne	.+16     	; 0x1a2e <TaskletC__doit+0x5c6>
    1a1e:	88 e0       	ldi	r24, 0x08	; 8
    1a20:	80 93 42 01 	sts	0x0142, r24
    1a24:	10 92 16 06 	sts	0x0616, r1
    1a28:	83 e0       	ldi	r24, 0x03	; 3
    1a2a:	80 93 aa 05 	sts	0x05AA, r24
    1a2e:	90 91 8f 04 	lds	r25, 0x048F
    1a32:	91 30       	cpi	r25, 0x01	; 1
    1a34:	71 f4       	brne	.+28     	; 0x1a52 <TaskletC__doit+0x5ea>
    1a36:	80 91 aa 05 	lds	r24, 0x05AA
    1a3a:	83 30       	cpi	r24, 0x03	; 3
    1a3c:	79 f5       	brne	.+94     	; 0x1a9c <TaskletC__doit+0x634>
    1a3e:	10 92 4e 01 	sts	0x014E, r1
    1a42:	80 91 39 01 	lds	r24, 0x0139
    1a46:	82 60       	ori	r24, 0x02	; 2
    1a48:	80 93 39 01 	sts	0x0139, r24
    1a4c:	90 93 aa 05 	sts	0x05AA, r25
    1a50:	18 c0       	rjmp	.+48     	; 0x1a82 <TaskletC__doit+0x61a>
    1a52:	92 30       	cpi	r25, 0x02	; 2
    1a54:	d1 f4       	brne	.+52     	; 0x1a8a <TaskletC__doit+0x622>
    1a56:	80 91 aa 05 	lds	r24, 0x05AA
    1a5a:	83 30       	cpi	r24, 0x03	; 3
    1a5c:	f9 f4       	brne	.+62     	; 0x1a9c <TaskletC__doit+0x634>
    1a5e:	11 c0       	rjmp	.+34     	; 0x1a82 <TaskletC__doit+0x61a>
    1a60:	97 30       	cpi	r25, 0x07	; 7
    1a62:	99 f4       	brne	.+38     	; 0x1a8a <TaskletC__doit+0x622>
    1a64:	80 91 aa 05 	lds	r24, 0x05AA
    1a68:	85 30       	cpi	r24, 0x05	; 5
    1a6a:	11 f0       	breq	.+4      	; 0x1a70 <TaskletC__doit+0x608>
    1a6c:	88 23       	and	r24, r24
    1a6e:	49 f4       	brne	.+18     	; 0x1a82 <TaskletC__doit+0x61a>
    1a70:	80 91 ce 06 	lds	r24, 0x06CE
    1a74:	80 66       	ori	r24, 0x60	; 96
    1a76:	80 93 48 01 	sts	0x0148, r24
    1a7a:	84 e0       	ldi	r24, 0x04	; 4
    1a7c:	80 93 aa 05 	sts	0x05AA, r24
    1a80:	04 c0       	rjmp	.+8      	; 0x1a8a <TaskletC__doit+0x622>
    1a82:	88 e0       	ldi	r24, 0x08	; 8
    1a84:	80 93 8f 04 	sts	0x048F, r24
    1a88:	04 c0       	rjmp	.+8      	; 0x1a92 <TaskletC__doit+0x62a>
    1a8a:	80 91 8f 04 	lds	r24, 0x048F
    1a8e:	88 30       	cpi	r24, 0x08	; 8
    1a90:	29 f4       	brne	.+10     	; 0x1a9c <TaskletC__doit+0x634>
    1a92:	10 92 8f 04 	sts	0x048F, r1
    1a96:	8f e0       	ldi	r24, 0x0F	; 15
    1a98:	0e 94 9d 02 	call	0x53a	; 0x53a <SchedulerBasicP__TaskBasic__postTask>
    1a9c:	80 91 8f 04 	lds	r24, 0x048F
    1aa0:	88 23       	and	r24, r24
    1aa2:	c9 f4       	brne	.+50     	; 0x1ad6 <TaskletC__doit+0x66e>
    1aa4:	80 91 aa 05 	lds	r24, 0x05AA
    1aa8:	85 30       	cpi	r24, 0x05	; 5
    1aaa:	a9 f4       	brne	.+42     	; 0x1ad6 <TaskletC__doit+0x66e>
    1aac:	80 91 16 06 	lds	r24, 0x0616
    1ab0:	88 23       	and	r24, r24
    1ab2:	89 f4       	brne	.+34     	; 0x1ad6 <TaskletC__doit+0x66e>
    1ab4:	80 91 77 04 	lds	r24, 0x0477
    1ab8:	88 23       	and	r24, r24
    1aba:	69 f4       	brne	.+26     	; 0x1ad6 <TaskletC__doit+0x66e>
    1abc:	80 91 97 05 	lds	r24, 0x0597
    1ac0:	88 23       	and	r24, r24
    1ac2:	49 f4       	brne	.+18     	; 0x1ad6 <TaskletC__doit+0x66e>
    1ac4:	90 e0       	ldi	r25, 0x00	; 0
    1ac6:	80 91 08 06 	lds	r24, 0x0608
    1aca:	88 23       	and	r24, r24
    1acc:	09 f4       	brne	.+2      	; 0x1ad0 <TaskletC__doit+0x668>
    1ace:	91 e0       	ldi	r25, 0x01	; 1
    1ad0:	99 23       	and	r25, r25
    1ad2:	09 f0       	breq	.+2      	; 0x1ad6 <TaskletC__doit+0x66e>
    1ad4:	52 d8       	rcall	.-3932   	; 0xb7a <RandomCollisionLayerP__0__RadioSend__ready>
    1ad6:	80 91 08 06 	lds	r24, 0x0608
    1ada:	82 30       	cpi	r24, 0x02	; 2
    1adc:	09 f0       	breq	.+2      	; 0x1ae0 <TaskletC__doit+0x678>
    1ade:	72 c0       	rjmp	.+228    	; 0x1bc4 <TaskletC__doit+0x75c>
    1ae0:	10 92 08 06 	sts	0x0608, r1
    1ae4:	80 91 a7 05 	lds	r24, 0x05A7
    1ae8:	88 23       	and	r24, r24
    1aea:	21 f0       	breq	.+8      	; 0x1af4 <TaskletC__doit+0x68c>
    1aec:	81 30       	cpi	r24, 0x01	; 1
    1aee:	09 f0       	breq	.+2      	; 0x1af2 <TaskletC__doit+0x68a>
    1af0:	69 c0       	rjmp	.+210    	; 0x1bc4 <TaskletC__doit+0x75c>
    1af2:	63 c0       	rjmp	.+198    	; 0x1bba <TaskletC__doit+0x752>
    1af4:	c0 91 de 05 	lds	r28, 0x05DE
    1af8:	d0 91 df 05 	lds	r29, 0x05DF
    1afc:	0e 94 ac 03 	call	0x758	; 0x758 <RandomCollisionLayerP__0__RadioAlarm__getNow>
    1b00:	20 91 97 05 	lds	r18, 0x0597
    1b04:	20 38       	cpi	r18, 0x80	; 128
    1b06:	21 f4       	brne	.+8      	; 0x1b10 <TaskletC__doit+0x6a8>
    1b08:	10 92 97 05 	sts	0x0597, r1
    1b0c:	36 d8       	rcall	.-3988   	; 0xb7a <RandomCollisionLayerP__0__RadioSend__ready>
    1b0e:	5a c0       	rjmp	.+180    	; 0x1bc4 <TaskletC__doit+0x75c>
    1b10:	8e 01       	movw	r16, r28
    1b12:	06 1b       	sub	r16, r22
    1b14:	17 0b       	sbc	r17, r23
    1b16:	27 ff       	sbrs	r18, 7
    1b18:	03 c0       	rjmp	.+6      	; 0x1b20 <TaskletC__doit+0x6b8>
    1b1a:	10 16       	cp	r1, r16
    1b1c:	11 06       	cpc	r1, r17
    1b1e:	e4 f0       	brlt	.+56     	; 0x1b58 <TaskletC__doit+0x6f0>
    1b20:	c0 91 93 05 	lds	r28, 0x0593
    1b24:	d0 91 94 05 	lds	r29, 0x0594
    1b28:	80 91 77 04 	lds	r24, 0x0477
    1b2c:	88 23       	and	r24, r24
    1b2e:	a1 f4       	brne	.+40     	; 0x1b58 <TaskletC__doit+0x6f0>
    1b30:	ce 01       	movw	r24, r28
    1b32:	80 db       	rcall	.-2304   	; 0x1234 <SoftwareAckLayerC__0__SubSend__send>
    1b34:	88 23       	and	r24, r24
    1b36:	59 f4       	brne	.+22     	; 0x1b4e <TaskletC__doit+0x6e6>
    1b38:	be 01       	movw	r22, r28
    1b3a:	0e 94 34 02 	call	0x468	; 0x468 <MetadataFlagsLayerC__0__PacketFlag__clear>
    1b3e:	81 e0       	ldi	r24, 0x01	; 1
    1b40:	80 93 77 04 	sts	0x0477, r24
    1b44:	d0 93 d6 06 	sts	0x06D6, r29
    1b48:	c0 93 d5 06 	sts	0x06D5, r28
    1b4c:	32 c0       	rjmp	.+100    	; 0x1bb2 <TaskletC__doit+0x74a>
    1b4e:	99 27       	eor	r25, r25
    1b50:	f8 2e       	mov	r15, r24
    1b52:	88 23       	and	r24, r24
    1b54:	71 f1       	breq	.+92     	; 0x1bb2 <TaskletC__doit+0x74a>
    1b56:	02 c0       	rjmp	.+4      	; 0x1b5c <TaskletC__doit+0x6f4>
    1b58:	85 e0       	ldi	r24, 0x05	; 5
    1b5a:	f8 2e       	mov	r15, r24
    1b5c:	20 91 97 05 	lds	r18, 0x0597
    1b60:	82 2f       	mov	r24, r18
    1b62:	99 27       	eor	r25, r25
    1b64:	8f 77       	andi	r24, 0x7F	; 127
    1b66:	01 97       	sbiw	r24, 0x01	; 1
    1b68:	71 f4       	brne	.+28     	; 0x1b86 <TaskletC__doit+0x71e>
    1b6a:	20 78       	andi	r18, 0x80	; 128
    1b6c:	22 60       	ori	r18, 0x02	; 2
    1b6e:	20 93 97 05 	sts	0x0597, r18
    1b72:	8c e8       	ldi	r24, 0x8C	; 140
    1b74:	90 e0       	ldi	r25, 0x00	; 0
    1b76:	0a d8       	rcall	.-4076   	; 0xb8c <RandomCollisionLayerP__0__getBackoff>
    1b78:	aa 27       	eor	r26, r26
    1b7a:	bb 27       	eor	r27, r27
    1b7c:	bc 01       	movw	r22, r24
    1b7e:	cd 01       	movw	r24, r26
    1b80:	0e 94 b9 05 	call	0xb72	; 0xb72 <RandomCollisionLayerP__0__RadioAlarm__wait>
    1b84:	1f c0       	rjmp	.+62     	; 0x1bc4 <TaskletC__doit+0x75c>
    1b86:	27 ff       	sbrs	r18, 7
    1b88:	0e c0       	rjmp	.+28     	; 0x1ba6 <TaskletC__doit+0x73e>
    1b8a:	10 16       	cp	r1, r16
    1b8c:	11 06       	cpc	r1, r17
    1b8e:	5c f4       	brge	.+22     	; 0x1ba6 <TaskletC__doit+0x73e>
    1b90:	80 e8       	ldi	r24, 0x80	; 128
    1b92:	80 93 97 05 	sts	0x0597, r24
    1b96:	b8 01       	movw	r22, r16
    1b98:	88 27       	eor	r24, r24
    1b9a:	77 fd       	sbrc	r23, 7
    1b9c:	80 95       	com	r24
    1b9e:	98 2f       	mov	r25, r24
    1ba0:	0e 94 b9 05 	call	0xb72	; 0xb72 <RandomCollisionLayerP__0__RadioAlarm__wait>
    1ba4:	02 c0       	rjmp	.+4      	; 0x1baa <TaskletC__doit+0x742>
    1ba6:	10 92 97 05 	sts	0x0597, r1
    1baa:	8f 2d       	mov	r24, r15
    1bac:	0e 94 73 05 	call	0xae6	; 0xae6 <RandomCollisionLayerP__0__RadioSend__sendDone>
    1bb0:	09 c0       	rjmp	.+18     	; 0x1bc4 <TaskletC__doit+0x75c>
    1bb2:	83 e0       	ldi	r24, 0x03	; 3
    1bb4:	80 93 97 05 	sts	0x0597, r24
    1bb8:	05 c0       	rjmp	.+10     	; 0x1bc4 <TaskletC__doit+0x75c>
    1bba:	10 92 77 04 	sts	0x0477, r1
    1bbe:	80 e0       	ldi	r24, 0x00	; 0
    1bc0:	0e 94 7d 05 	call	0xafa	; 0xafa <SoftwareAckLayerC__0__RadioSend__sendDone>
    1bc4:	8f b7       	in	r24, 0x3f	; 63
    1bc6:	f8 94       	cli
    1bc8:	28 2f       	mov	r18, r24
    1bca:	33 27       	eor	r19, r19
    1bcc:	80 91 92 04 	lds	r24, 0x0492
    1bd0:	81 30       	cpi	r24, 0x01	; 1
    1bd2:	a9 f0       	breq	.+42     	; 0x1bfe <TaskletC__doit+0x796>
    1bd4:	81 e0       	ldi	r24, 0x01	; 1
    1bd6:	80 93 92 04 	sts	0x0492, r24
    1bda:	2f bf       	out	0x3f, r18	; 63
    1bdc:	53 cc       	rjmp	.-1882   	; 0x1484 <TaskletC__doit+0x1c>
    1bde:	80 91 4c 01 	lds	r24, 0x014C
    1be2:	8f 77       	andi	r24, 0x7F	; 127
    1be4:	80 93 4c 01 	sts	0x014C, r24
    1be8:	80 91 4c 01 	lds	r24, 0x014C
    1bec:	80 68       	ori	r24, 0x80	; 128
    1bee:	80 93 4c 01 	sts	0x014C, r24
    1bf2:	85 e0       	ldi	r24, 0x05	; 5
    1bf4:	80 93 aa 05 	sts	0x05AA, r24
    1bf8:	10 92 8f 04 	sts	0x048F, r1
    1bfc:	4f cf       	rjmp	.-354    	; 0x1a9c <TaskletC__doit+0x634>
    1bfe:	10 92 92 04 	sts	0x0492, r1
    1c02:	2f bf       	out	0x3f, r18	; 63
    1c04:	df 91       	pop	r29
    1c06:	cf 91       	pop	r28
    1c08:	1f 91       	pop	r17
    1c0a:	0f 91       	pop	r16
    1c0c:	ff 90       	pop	r15
    1c0e:	ef 90       	pop	r14
    1c10:	df 90       	pop	r13
    1c12:	cf 90       	pop	r12
    1c14:	bf 90       	pop	r11
    1c16:	af 90       	pop	r10
    1c18:	9f 90       	pop	r9
    1c1a:	8f 90       	pop	r8
    1c1c:	7f 90       	pop	r7
    1c1e:	6f 90       	pop	r6
    1c20:	08 95       	ret

00001c22 <MessageBufferLayerP__0__Tasklet__resume>:
    1c22:	8f b7       	in	r24, 0x3f	; 63
    1c24:	f8 94       	cli
    1c26:	28 2f       	mov	r18, r24
    1c28:	33 27       	eor	r19, r19
    1c2a:	80 91 92 04 	lds	r24, 0x0492
    1c2e:	81 50       	subi	r24, 0x01	; 1
    1c30:	80 93 92 04 	sts	0x0492, r24
    1c34:	80 38       	cpi	r24, 0x80	; 128
    1c36:	11 f0       	breq	.+4      	; 0x1c3c <MessageBufferLayerP__0__Tasklet__resume+0x1a>
    1c38:	2f bf       	out	0x3f, r18	; 63
    1c3a:	08 95       	ret
    1c3c:	81 e0       	ldi	r24, 0x01	; 1
    1c3e:	80 93 92 04 	sts	0x0492, r24
    1c42:	2f bf       	out	0x3f, r18	; 63
    1c44:	11 cc       	rjmp	.-2014   	; 0x1468 <TaskletC__doit>

00001c46 <TaskletC__Tasklet__schedule>:
    1c46:	80 91 92 04 	lds	r24, 0x0492
    1c4a:	88 23       	and	r24, r24
    1c4c:	21 f0       	breq	.+8      	; 0x1c56 <TaskletC__Tasklet__schedule+0x10>
    1c4e:	80 68       	ori	r24, 0x80	; 128
    1c50:	80 93 92 04 	sts	0x0492, r24
    1c54:	08 95       	ret
    1c56:	81 e0       	ldi	r24, 0x01	; 1
    1c58:	80 93 92 04 	sts	0x0492, r24
    1c5c:	05 cc       	rjmp	.-2038   	; 0x1468 <TaskletC__doit>

00001c5e <RFA1DriverLayerP__Tasklet__schedule>:
    1c5e:	f3 cf       	rjmp	.-26     	; 0x1c46 <TaskletC__Tasklet__schedule>
    1c60:	08 95       	ret

00001c62 <__vector_61>:
    1c62:	1f 92       	push	r1
    1c64:	0f 92       	push	r0
    1c66:	0f b6       	in	r0, 0x3f	; 63
    1c68:	0f 92       	push	r0
    1c6a:	11 24       	eor	r1, r1
    1c6c:	2f 93       	push	r18
    1c6e:	3f 93       	push	r19
    1c70:	4f 93       	push	r20
    1c72:	5f 93       	push	r21
    1c74:	6f 93       	push	r22
    1c76:	7f 93       	push	r23
    1c78:	8f 93       	push	r24
    1c7a:	9f 93       	push	r25
    1c7c:	af 93       	push	r26
    1c7e:	bf 93       	push	r27
    1c80:	ef 93       	push	r30
    1c82:	ff 93       	push	r31
    1c84:	80 91 16 06 	lds	r24, 0x0616
    1c88:	80 61       	ori	r24, 0x10	; 16
    1c8a:	80 93 16 06 	sts	0x0616, r24
    1c8e:	e7 df       	rcall	.-50     	; 0x1c5e <RFA1DriverLayerP__Tasklet__schedule>
    1c90:	ff 91       	pop	r31
    1c92:	ef 91       	pop	r30
    1c94:	bf 91       	pop	r27
    1c96:	af 91       	pop	r26
    1c98:	9f 91       	pop	r25
    1c9a:	8f 91       	pop	r24
    1c9c:	7f 91       	pop	r23
    1c9e:	6f 91       	pop	r22
    1ca0:	5f 91       	pop	r21
    1ca2:	4f 91       	pop	r20
    1ca4:	3f 91       	pop	r19
    1ca6:	2f 91       	pop	r18
    1ca8:	0f 90       	pop	r0
    1caa:	0f be       	out	0x3f, r0	; 63
    1cac:	0f 90       	pop	r0
    1cae:	1f 90       	pop	r1
    1cb0:	18 95       	reti

00001cb2 <__vector_64>:
    1cb2:	1f 92       	push	r1
    1cb4:	0f 92       	push	r0
    1cb6:	0f b6       	in	r0, 0x3f	; 63
    1cb8:	0f 92       	push	r0
    1cba:	11 24       	eor	r1, r1
    1cbc:	2f 93       	push	r18
    1cbe:	3f 93       	push	r19
    1cc0:	4f 93       	push	r20
    1cc2:	5f 93       	push	r21
    1cc4:	6f 93       	push	r22
    1cc6:	7f 93       	push	r23
    1cc8:	8f 93       	push	r24
    1cca:	9f 93       	push	r25
    1ccc:	af 93       	push	r26
    1cce:	bf 93       	push	r27
    1cd0:	ef 93       	push	r30
    1cd2:	ff 93       	push	r31
    1cd4:	80 91 16 06 	lds	r24, 0x0616
    1cd8:	80 68       	ori	r24, 0x80	; 128
    1cda:	80 93 16 06 	sts	0x0616, r24
    1cde:	bf df       	rcall	.-130    	; 0x1c5e <RFA1DriverLayerP__Tasklet__schedule>
    1ce0:	ff 91       	pop	r31
    1ce2:	ef 91       	pop	r30
    1ce4:	bf 91       	pop	r27
    1ce6:	af 91       	pop	r26
    1ce8:	9f 91       	pop	r25
    1cea:	8f 91       	pop	r24
    1cec:	7f 91       	pop	r23
    1cee:	6f 91       	pop	r22
    1cf0:	5f 91       	pop	r21
    1cf2:	4f 91       	pop	r20
    1cf4:	3f 91       	pop	r19
    1cf6:	2f 91       	pop	r18
    1cf8:	0f 90       	pop	r0
    1cfa:	0f be       	out	0x3f, r0	; 63
    1cfc:	0f 90       	pop	r0
    1cfe:	1f 90       	pop	r1
    1d00:	18 95       	reti

00001d02 <__vector_57>:
    1d02:	1f 92       	push	r1
    1d04:	0f 92       	push	r0
    1d06:	0f b6       	in	r0, 0x3f	; 63
    1d08:	0f 92       	push	r0
    1d0a:	11 24       	eor	r1, r1
    1d0c:	2f 93       	push	r18
    1d0e:	3f 93       	push	r19
    1d10:	4f 93       	push	r20
    1d12:	5f 93       	push	r21
    1d14:	6f 93       	push	r22
    1d16:	7f 93       	push	r23
    1d18:	8f 93       	push	r24
    1d1a:	9f 93       	push	r25
    1d1c:	af 93       	push	r26
    1d1e:	bf 93       	push	r27
    1d20:	ef 93       	push	r30
    1d22:	ff 93       	push	r31
    1d24:	80 91 16 06 	lds	r24, 0x0616
    1d28:	81 60       	ori	r24, 0x01	; 1
    1d2a:	80 93 16 06 	sts	0x0616, r24
    1d2e:	97 df       	rcall	.-210    	; 0x1c5e <RFA1DriverLayerP__Tasklet__schedule>
    1d30:	ff 91       	pop	r31
    1d32:	ef 91       	pop	r30
    1d34:	bf 91       	pop	r27
    1d36:	af 91       	pop	r26
    1d38:	9f 91       	pop	r25
    1d3a:	8f 91       	pop	r24
    1d3c:	7f 91       	pop	r23
    1d3e:	6f 91       	pop	r22
    1d40:	5f 91       	pop	r21
    1d42:	4f 91       	pop	r20
    1d44:	3f 91       	pop	r19
    1d46:	2f 91       	pop	r18
    1d48:	0f 90       	pop	r0
    1d4a:	0f be       	out	0x3f, r0	; 63
    1d4c:	0f 90       	pop	r0
    1d4e:	1f 90       	pop	r1
    1d50:	18 95       	reti

00001d52 <__vector_63>:
    1d52:	1f 92       	push	r1
    1d54:	0f 92       	push	r0
    1d56:	0f b6       	in	r0, 0x3f	; 63
    1d58:	0f 92       	push	r0
    1d5a:	11 24       	eor	r1, r1
    1d5c:	2f 93       	push	r18
    1d5e:	3f 93       	push	r19
    1d60:	4f 93       	push	r20
    1d62:	5f 93       	push	r21
    1d64:	6f 93       	push	r22
    1d66:	7f 93       	push	r23
    1d68:	8f 93       	push	r24
    1d6a:	9f 93       	push	r25
    1d6c:	af 93       	push	r26
    1d6e:	bf 93       	push	r27
    1d70:	ef 93       	push	r30
    1d72:	ff 93       	push	r31
    1d74:	80 91 16 06 	lds	r24, 0x0616
    1d78:	80 64       	ori	r24, 0x40	; 64
    1d7a:	80 93 16 06 	sts	0x0616, r24
    1d7e:	6f df       	rcall	.-290    	; 0x1c5e <RFA1DriverLayerP__Tasklet__schedule>
    1d80:	ff 91       	pop	r31
    1d82:	ef 91       	pop	r30
    1d84:	bf 91       	pop	r27
    1d86:	af 91       	pop	r26
    1d88:	9f 91       	pop	r25
    1d8a:	8f 91       	pop	r24
    1d8c:	7f 91       	pop	r23
    1d8e:	6f 91       	pop	r22
    1d90:	5f 91       	pop	r21
    1d92:	4f 91       	pop	r20
    1d94:	3f 91       	pop	r19
    1d96:	2f 91       	pop	r18
    1d98:	0f 90       	pop	r0
    1d9a:	0f be       	out	0x3f, r0	; 63
    1d9c:	0f 90       	pop	r0
    1d9e:	1f 90       	pop	r1
    1da0:	18 95       	reti

00001da2 <__vector_60>:
    1da2:	1f 92       	push	r1
    1da4:	0f 92       	push	r0
    1da6:	0f b6       	in	r0, 0x3f	; 63
    1da8:	0f 92       	push	r0
    1daa:	11 24       	eor	r1, r1
    1dac:	2f 93       	push	r18
    1dae:	3f 93       	push	r19
    1db0:	4f 93       	push	r20
    1db2:	5f 93       	push	r21
    1db4:	6f 93       	push	r22
    1db6:	7f 93       	push	r23
    1db8:	8f 93       	push	r24
    1dba:	9f 93       	push	r25
    1dbc:	af 93       	push	r26
    1dbe:	bf 93       	push	r27
    1dc0:	ef 93       	push	r30
    1dc2:	ff 93       	push	r31
    1dc4:	80 91 16 06 	lds	r24, 0x0616
    1dc8:	88 60       	ori	r24, 0x08	; 8
    1dca:	80 93 16 06 	sts	0x0616, r24
    1dce:	47 df       	rcall	.-370    	; 0x1c5e <RFA1DriverLayerP__Tasklet__schedule>
    1dd0:	ff 91       	pop	r31
    1dd2:	ef 91       	pop	r30
    1dd4:	bf 91       	pop	r27
    1dd6:	af 91       	pop	r26
    1dd8:	9f 91       	pop	r25
    1dda:	8f 91       	pop	r24
    1ddc:	7f 91       	pop	r23
    1dde:	6f 91       	pop	r22
    1de0:	5f 91       	pop	r21
    1de2:	4f 91       	pop	r20
    1de4:	3f 91       	pop	r19
    1de6:	2f 91       	pop	r18
    1de8:	0f 90       	pop	r0
    1dea:	0f be       	out	0x3f, r0	; 63
    1dec:	0f 90       	pop	r0
    1dee:	1f 90       	pop	r1
    1df0:	18 95       	reti

00001df2 <__vector_59>:
    1df2:	1f 92       	push	r1
    1df4:	0f 92       	push	r0
    1df6:	0f b6       	in	r0, 0x3f	; 63
    1df8:	0f 92       	push	r0
    1dfa:	11 24       	eor	r1, r1
    1dfc:	2f 93       	push	r18
    1dfe:	3f 93       	push	r19
    1e00:	4f 93       	push	r20
    1e02:	5f 93       	push	r21
    1e04:	6f 93       	push	r22
    1e06:	7f 93       	push	r23
    1e08:	8f 93       	push	r24
    1e0a:	9f 93       	push	r25
    1e0c:	af 93       	push	r26
    1e0e:	bf 93       	push	r27
    1e10:	ef 93       	push	r30
    1e12:	ff 93       	push	r31
    1e14:	80 91 16 06 	lds	r24, 0x0616
    1e18:	84 60       	ori	r24, 0x04	; 4
    1e1a:	80 93 16 06 	sts	0x0616, r24
    1e1e:	1f df       	rcall	.-450    	; 0x1c5e <RFA1DriverLayerP__Tasklet__schedule>
    1e20:	ff 91       	pop	r31
    1e22:	ef 91       	pop	r30
    1e24:	bf 91       	pop	r27
    1e26:	af 91       	pop	r26
    1e28:	9f 91       	pop	r25
    1e2a:	8f 91       	pop	r24
    1e2c:	7f 91       	pop	r23
    1e2e:	6f 91       	pop	r22
    1e30:	5f 91       	pop	r21
    1e32:	4f 91       	pop	r20
    1e34:	3f 91       	pop	r19
    1e36:	2f 91       	pop	r18
    1e38:	0f 90       	pop	r0
    1e3a:	0f be       	out	0x3f, r0	; 63
    1e3c:	0f 90       	pop	r0
    1e3e:	1f 90       	pop	r1
    1e40:	18 95       	reti

00001e42 <__vector_66>:
    1e42:	1f 92       	push	r1
    1e44:	0f 92       	push	r0
    1e46:	0f b6       	in	r0, 0x3f	; 63
    1e48:	0f 92       	push	r0
    1e4a:	11 24       	eor	r1, r1
    1e4c:	2f 93       	push	r18
    1e4e:	3f 93       	push	r19
    1e50:	4f 93       	push	r20
    1e52:	5f 93       	push	r21
    1e54:	6f 93       	push	r22
    1e56:	7f 93       	push	r23
    1e58:	8f 93       	push	r24
    1e5a:	9f 93       	push	r25
    1e5c:	af 93       	push	r26
    1e5e:	bf 93       	push	r27
    1e60:	ef 93       	push	r30
    1e62:	ff 93       	push	r31
    1e64:	80 91 df 00 	lds	r24, 0x00DF
    1e68:	8d 7f       	andi	r24, 0xFD	; 253
    1e6a:	80 93 df 00 	sts	0x00DF, r24
    1e6e:	8f ef       	ldi	r24, 0xFF	; 255
    1e70:	80 93 61 04 	sts	0x0461, r24
    1e74:	80 91 08 06 	lds	r24, 0x0608
    1e78:	81 30       	cpi	r24, 0x01	; 1
    1e7a:	19 f4       	brne	.+6      	; 0x1e82 <__vector_66+0x40>
    1e7c:	82 e0       	ldi	r24, 0x02	; 2
    1e7e:	80 93 08 06 	sts	0x0608, r24
    1e82:	e1 de       	rcall	.-574    	; 0x1c46 <TaskletC__Tasklet__schedule>
    1e84:	ff 91       	pop	r31
    1e86:	ef 91       	pop	r30
    1e88:	bf 91       	pop	r27
    1e8a:	af 91       	pop	r26
    1e8c:	9f 91       	pop	r25
    1e8e:	8f 91       	pop	r24
    1e90:	7f 91       	pop	r23
    1e92:	6f 91       	pop	r22
    1e94:	5f 91       	pop	r21
    1e96:	4f 91       	pop	r20
    1e98:	3f 91       	pop	r19
    1e9a:	2f 91       	pop	r18
    1e9c:	0f 90       	pop	r0
    1e9e:	0f be       	out	0x3f, r0	; 63
    1ea0:	0f 90       	pop	r0
    1ea2:	1f 90       	pop	r1
    1ea4:	18 95       	reti

00001ea6 <SchedulerBasicP__TaskBasic__runTask>:
    1ea6:	2f 92       	push	r2
    1ea8:	3f 92       	push	r3
    1eaa:	4f 92       	push	r4
    1eac:	5f 92       	push	r5
    1eae:	6f 92       	push	r6
    1eb0:	7f 92       	push	r7
    1eb2:	8f 92       	push	r8
    1eb4:	9f 92       	push	r9
    1eb6:	af 92       	push	r10
    1eb8:	bf 92       	push	r11
    1eba:	cf 92       	push	r12
    1ebc:	df 92       	push	r13
    1ebe:	ef 92       	push	r14
    1ec0:	ff 92       	push	r15
    1ec2:	0f 93       	push	r16
    1ec4:	1f 93       	push	r17
    1ec6:	cf 93       	push	r28
    1ec8:	df 93       	push	r29
    1eca:	cd b7       	in	r28, 0x3d	; 61
    1ecc:	de b7       	in	r29, 0x3e	; 62
    1ece:	a9 97       	sbiw	r28, 0x29	; 41
    1ed0:	0f b6       	in	r0, 0x3f	; 63
    1ed2:	f8 94       	cli
    1ed4:	de bf       	out	0x3e, r29	; 62
    1ed6:	0f be       	out	0x3f, r0	; 63
    1ed8:	cd bf       	out	0x3d, r28	; 61
    1eda:	8a 30       	cpi	r24, 0x0A	; 10
    1edc:	09 f4       	brne	.+2      	; 0x1ee0 <SchedulerBasicP__TaskBasic__runTask+0x3a>
    1ede:	64 c1       	rjmp	.+712    	; 0x21a8 <SchedulerBasicP__TaskBasic__runTask+0x302>
    1ee0:	8b 30       	cpi	r24, 0x0B	; 11
    1ee2:	a8 f4       	brcc	.+42     	; 0x1f0e <SchedulerBasicP__TaskBasic__runTask+0x68>
    1ee4:	86 30       	cpi	r24, 0x06	; 6
    1ee6:	09 f4       	brne	.+2      	; 0x1eea <SchedulerBasicP__TaskBasic__runTask+0x44>
    1ee8:	e7 c0       	rjmp	.+462    	; 0x20b8 <SchedulerBasicP__TaskBasic__runTask+0x212>
    1eea:	87 30       	cpi	r24, 0x07	; 7
    1eec:	48 f4       	brcc	.+18     	; 0x1f00 <SchedulerBasicP__TaskBasic__runTask+0x5a>
    1eee:	84 30       	cpi	r24, 0x04	; 4
    1ef0:	c9 f1       	breq	.+114    	; 0x1f64 <SchedulerBasicP__TaskBasic__runTask+0xbe>
    1ef2:	85 30       	cpi	r24, 0x05	; 5
    1ef4:	08 f0       	brcs	.+2      	; 0x1ef8 <SchedulerBasicP__TaskBasic__runTask+0x52>
    1ef6:	96 c0       	rjmp	.+300    	; 0x2024 <SchedulerBasicP__TaskBasic__runTask+0x17e>
    1ef8:	83 30       	cpi	r24, 0x03	; 3
    1efa:	09 f0       	breq	.+2      	; 0x1efe <SchedulerBasicP__TaskBasic__runTask+0x58>
    1efc:	b9 c3       	rjmp	.+1906   	; 0x2670 <SchedulerBasicP__TaskBasic__runTask+0x7ca>
    1efe:	20 c0       	rjmp	.+64     	; 0x1f40 <SchedulerBasicP__TaskBasic__runTask+0x9a>
    1f00:	88 30       	cpi	r24, 0x08	; 8
    1f02:	09 f4       	brne	.+2      	; 0x1f06 <SchedulerBasicP__TaskBasic__runTask+0x60>
    1f04:	08 c1       	rjmp	.+528    	; 0x2116 <SchedulerBasicP__TaskBasic__runTask+0x270>
    1f06:	89 30       	cpi	r24, 0x09	; 9
    1f08:	08 f0       	brcs	.+2      	; 0x1f0c <SchedulerBasicP__TaskBasic__runTask+0x66>
    1f0a:	24 c1       	rjmp	.+584    	; 0x2154 <SchedulerBasicP__TaskBasic__runTask+0x2ae>
    1f0c:	ee c0       	rjmp	.+476    	; 0x20ea <SchedulerBasicP__TaskBasic__runTask+0x244>
    1f0e:	8e 30       	cpi	r24, 0x0E	; 14
    1f10:	09 f4       	brne	.+2      	; 0x1f14 <SchedulerBasicP__TaskBasic__runTask+0x6e>
    1f12:	5a c2       	rjmp	.+1204   	; 0x23c8 <SchedulerBasicP__TaskBasic__runTask+0x522>
    1f14:	8f 30       	cpi	r24, 0x0F	; 15
    1f16:	38 f4       	brcc	.+14     	; 0x1f26 <SchedulerBasicP__TaskBasic__runTask+0x80>
    1f18:	8c 30       	cpi	r24, 0x0C	; 12
    1f1a:	09 f4       	brne	.+2      	; 0x1f1e <SchedulerBasicP__TaskBasic__runTask+0x78>
    1f1c:	ac c1       	rjmp	.+856    	; 0x2276 <SchedulerBasicP__TaskBasic__runTask+0x3d0>
    1f1e:	8d 30       	cpi	r24, 0x0D	; 13
    1f20:	08 f0       	brcs	.+2      	; 0x1f24 <SchedulerBasicP__TaskBasic__runTask+0x7e>
    1f22:	47 c2       	rjmp	.+1166   	; 0x23b2 <SchedulerBasicP__TaskBasic__runTask+0x50c>
    1f24:	8b c1       	rjmp	.+790    	; 0x223c <SchedulerBasicP__TaskBasic__runTask+0x396>
    1f26:	80 31       	cpi	r24, 0x10	; 16
    1f28:	09 f4       	brne	.+2      	; 0x1f2c <SchedulerBasicP__TaskBasic__runTask+0x86>
    1f2a:	c7 c2       	rjmp	.+1422   	; 0x24ba <SchedulerBasicP__TaskBasic__runTask+0x614>
    1f2c:	80 31       	cpi	r24, 0x10	; 16
    1f2e:	08 f4       	brcc	.+2      	; 0x1f32 <SchedulerBasicP__TaskBasic__runTask+0x8c>
    1f30:	b4 c2       	rjmp	.+1384   	; 0x249a <SchedulerBasicP__TaskBasic__runTask+0x5f4>
    1f32:	81 31       	cpi	r24, 0x11	; 17
    1f34:	09 f4       	brne	.+2      	; 0x1f38 <SchedulerBasicP__TaskBasic__runTask+0x92>
    1f36:	09 c3       	rjmp	.+1554   	; 0x254a <SchedulerBasicP__TaskBasic__runTask+0x6a4>
    1f38:	82 31       	cpi	r24, 0x12	; 18
    1f3a:	09 f0       	breq	.+2      	; 0x1f3e <SchedulerBasicP__TaskBasic__runTask+0x98>
    1f3c:	99 c3       	rjmp	.+1842   	; 0x2670 <SchedulerBasicP__TaskBasic__runTask+0x7ca>
    1f3e:	3b c3       	rjmp	.+1654   	; 0x25b6 <SchedulerBasicP__TaskBasic__runTask+0x710>
    1f40:	10 92 33 06 	sts	0x0633, r1
    1f44:	10 92 32 06 	sts	0x0632, r1
    1f48:	10 92 1e 06 	sts	0x061E, r1
    1f4c:	10 92 1d 06 	sts	0x061D, r1
    1f50:	10 92 a6 05 	sts	0x05A6, r1
    1f54:	10 92 a5 05 	sts	0x05A5, r1
    1f58:	8f b7       	in	r24, 0x3f	; 63
    1f5a:	f8 94       	cli
    1f5c:	99 27       	eor	r25, r25
    1f5e:	10 92 75 04 	sts	0x0475, r1
    1f62:	84 c3       	rjmp	.+1800   	; 0x266c <SchedulerBasicP__TaskBasic__runTask+0x7c6>
    1f64:	40 91 dd 05 	lds	r20, 0x05DD
    1f68:	8f b7       	in	r24, 0x3f	; 63
    1f6a:	f8 94       	cli
    1f6c:	28 2f       	mov	r18, r24
    1f6e:	33 27       	eor	r19, r19
    1f70:	80 91 a4 05 	lds	r24, 0x05A4
    1f74:	88 23       	and	r24, r24
    1f76:	11 f0       	breq	.+4      	; 0x1f7c <SchedulerBasicP__TaskBasic__runTask+0xd6>
    1f78:	2f bf       	out	0x3f, r18	; 63
    1f7a:	2e c0       	rjmp	.+92     	; 0x1fd8 <SchedulerBasicP__TaskBasic__runTask+0x132>
    1f7c:	81 e0       	ldi	r24, 0x01	; 1
    1f7e:	80 93 a4 05 	sts	0x05A4, r24
    1f82:	2f bf       	out	0x3f, r18	; 63
    1f84:	80 91 c8 00 	lds	r24, 0x00C8
    1f88:	8f 7b       	andi	r24, 0xBF	; 191
    1f8a:	80 93 c8 00 	sts	0x00C8, r24
    1f8e:	80 91 c9 00 	lds	r24, 0x00C9
    1f92:	8f 7b       	andi	r24, 0xBF	; 191
    1f94:	80 93 c9 00 	sts	0x00C9, r24
    1f98:	40 93 ce 00 	sts	0x00CE, r20
    1f9c:	80 91 c8 00 	lds	r24, 0x00C8
    1fa0:	80 64       	ori	r24, 0x40	; 64
    1fa2:	80 93 c8 00 	sts	0x00C8, r24
    1fa6:	80 91 c8 00 	lds	r24, 0x00C8
    1faa:	86 ff       	sbrs	r24, 6
    1fac:	fc cf       	rjmp	.-8      	; 0x1fa6 <SchedulerBasicP__TaskBasic__runTask+0x100>
    1fae:	80 91 c8 00 	lds	r24, 0x00C8
    1fb2:	8f 7b       	andi	r24, 0xBF	; 191
    1fb4:	80 93 c8 00 	sts	0x00C8, r24
    1fb8:	80 91 c8 00 	lds	r24, 0x00C8
    1fbc:	80 64       	ori	r24, 0x40	; 64
    1fbe:	80 93 c8 00 	sts	0x00C8, r24
    1fc2:	80 91 c9 00 	lds	r24, 0x00C9
    1fc6:	80 64       	ori	r24, 0x40	; 64
    1fc8:	80 93 c9 00 	sts	0x00C9, r24
    1fcc:	8f b7       	in	r24, 0x3f	; 63
    1fce:	f8 94       	cli
    1fd0:	99 27       	eor	r25, r25
    1fd2:	10 92 a4 05 	sts	0x05A4, r1
    1fd6:	8f bf       	out	0x3f, r24	; 63
    1fd8:	1f b7       	in	r17, 0x3f	; 63
    1fda:	f8 94       	cli
    1fdc:	90 91 6e 04 	lds	r25, 0x046E
    1fe0:	4a 30       	cpi	r20, 0x0A	; 10
    1fe2:	a1 f4       	brne	.+40     	; 0x200c <SchedulerBasicP__TaskBasic__runTask+0x166>
    1fe4:	e9 2f       	mov	r30, r25
    1fe6:	ff 27       	eor	r31, r31
    1fe8:	df 01       	movw	r26, r30
    1fea:	ad 56       	subi	r26, 0x6D	; 109
    1fec:	bb 4f       	sbci	r27, 0xFB	; 251
    1fee:	8c 91       	ld	r24, X
    1ff0:	8d 30       	cpi	r24, 0x0D	; 13
    1ff2:	11 f4       	brne	.+4      	; 0x1ff8 <SchedulerBasicP__TaskBasic__runTask+0x152>
    1ff4:	1c 92       	st	X, r1
    1ff6:	06 c0       	rjmp	.+12     	; 0x2004 <SchedulerBasicP__TaskBasic__runTask+0x15e>
    1ff8:	ec 56       	subi	r30, 0x6C	; 108
    1ffa:	fb 4f       	sbci	r31, 0xFB	; 251
    1ffc:	10 82       	st	Z, r1
    1ffe:	9f 5f       	subi	r25, 0xFF	; 255
    2000:	90 93 6e 04 	sts	0x046E, r25
    2004:	88 e0       	ldi	r24, 0x08	; 8
    2006:	0e 94 9d 02 	call	0x53a	; 0x53a <SchedulerBasicP__TaskBasic__postTask>
    200a:	08 c0       	rjmp	.+16     	; 0x201c <SchedulerBasicP__TaskBasic__runTask+0x176>
    200c:	e9 2f       	mov	r30, r25
    200e:	ff 27       	eor	r31, r31
    2010:	ec 56       	subi	r30, 0x6C	; 108
    2012:	fb 4f       	sbci	r31, 0xFB	; 251
    2014:	40 83       	st	Z, r20
    2016:	9f 5f       	subi	r25, 0xFF	; 255
    2018:	90 93 6e 04 	sts	0x046E, r25
    201c:	81 2f       	mov	r24, r17
    201e:	99 27       	eor	r25, r25
    2020:	8f bf       	out	0x3f, r24	; 63
    2022:	26 c3       	rjmp	.+1612   	; 0x2670 <SchedulerBasicP__TaskBasic__runTask+0x7ca>
    2024:	80 91 7c 00 	lds	r24, 0x007C
    2028:	20 91 77 00 	lds	r18, 0x0077
    202c:	40 91 7b 00 	lds	r20, 0x007B
    2030:	60 91 7a 00 	lds	r22, 0x007A
    2034:	8e 01       	movw	r16, r28
    2036:	0f 5f       	subi	r16, 0xFF	; 255
    2038:	1f 4f       	sbci	r17, 0xFF	; 255
    203a:	99 27       	eor	r25, r25
    203c:	9f 93       	push	r25
    203e:	8f 93       	push	r24
    2040:	33 27       	eor	r19, r19
    2042:	3f 93       	push	r19
    2044:	2f 93       	push	r18
    2046:	55 27       	eor	r21, r21
    2048:	5f 93       	push	r21
    204a:	4f 93       	push	r20
    204c:	77 27       	eor	r23, r23
    204e:	7f 93       	push	r23
    2050:	6f 93       	push	r22
    2052:	80 e0       	ldi	r24, 0x00	; 0
    2054:	92 e0       	ldi	r25, 0x02	; 2
    2056:	9f 93       	push	r25
    2058:	8f 93       	push	r24
    205a:	1f 93       	push	r17
    205c:	0f 93       	push	r16
    205e:	f9 d6       	rcall	.+3570   	; 0x2e52 <sprintf>
    2060:	99 27       	eor	r25, r25
    2062:	bc 01       	movw	r22, r24
    2064:	c8 01       	movw	r24, r16
    2066:	0e 94 92 06 	call	0xd24	; 0xd24 <BlinkC__SerialStream__send>
    206a:	80 e0       	ldi	r24, 0x00	; 0
    206c:	1d d8       	rcall	.-4038   	; 0x10a8 <ArbitratedReadC__0__Read__read>
    206e:	80 91 7c 00 	lds	r24, 0x007C
    2072:	20 91 77 00 	lds	r18, 0x0077
    2076:	40 91 7b 00 	lds	r20, 0x007B
    207a:	60 91 7a 00 	lds	r22, 0x007A
    207e:	99 27       	eor	r25, r25
    2080:	9f 93       	push	r25
    2082:	8f 93       	push	r24
    2084:	33 27       	eor	r19, r19
    2086:	3f 93       	push	r19
    2088:	2f 93       	push	r18
    208a:	55 27       	eor	r21, r21
    208c:	5f 93       	push	r21
    208e:	4f 93       	push	r20
    2090:	77 27       	eor	r23, r23
    2092:	7f 93       	push	r23
    2094:	6f 93       	push	r22
    2096:	89 e3       	ldi	r24, 0x39	; 57
    2098:	92 e0       	ldi	r25, 0x02	; 2
    209a:	9f 93       	push	r25
    209c:	8f 93       	push	r24
    209e:	1f 93       	push	r17
    20a0:	0f 93       	push	r16
    20a2:	d7 d6       	rcall	.+3502   	; 0x2e52 <sprintf>
    20a4:	99 27       	eor	r25, r25
    20a6:	bc 01       	movw	r22, r24
    20a8:	c8 01       	movw	r24, r16
    20aa:	0e 94 92 06 	call	0xd24	; 0xd24 <BlinkC__SerialStream__send>
    20ae:	0d b7       	in	r16, 0x3d	; 61
    20b0:	1e b7       	in	r17, 0x3e	; 62
    20b2:	08 5e       	subi	r16, 0xE8	; 232
    20b4:	1f 4f       	sbci	r17, 0xFF	; 255
    20b6:	77 c1       	rjmp	.+750    	; 0x23a6 <SchedulerBasicP__TaskBasic__runTask+0x500>
    20b8:	81 e0       	ldi	r24, 0x01	; 1
    20ba:	0e 94 54 08 	call	0x10a8	; 0x10a8 <ArbitratedReadC__0__Read__read>
    20be:	8e 01       	movw	r16, r28
    20c0:	0f 5f       	subi	r16, 0xFF	; 255
    20c2:	1f 4f       	sbci	r17, 0xFF	; 255
    20c4:	99 27       	eor	r25, r25
    20c6:	9f 93       	push	r25
    20c8:	8f 93       	push	r24
    20ca:	82 e7       	ldi	r24, 0x72	; 114
    20cc:	92 e0       	ldi	r25, 0x02	; 2
    20ce:	9f 93       	push	r25
    20d0:	8f 93       	push	r24
    20d2:	1f 93       	push	r17
    20d4:	0f 93       	push	r16
    20d6:	bd d6       	rcall	.+3450   	; 0x2e52 <sprintf>
    20d8:	99 27       	eor	r25, r25
    20da:	bc 01       	movw	r22, r24
    20dc:	c8 01       	movw	r24, r16
    20de:	0e 94 92 06 	call	0xd24	; 0xd24 <BlinkC__SerialStream__send>
    20e2:	8d b7       	in	r24, 0x3d	; 61
    20e4:	9e b7       	in	r25, 0x3e	; 62
    20e6:	06 96       	adiw	r24, 0x06	; 6
    20e8:	25 c1       	rjmp	.+586    	; 0x2334 <SchedulerBasicP__TaskBasic__runTask+0x48e>
    20ea:	82 e0       	ldi	r24, 0x02	; 2
    20ec:	0e 94 54 08 	call	0x10a8	; 0x10a8 <ArbitratedReadC__0__Read__read>
    20f0:	8e 01       	movw	r16, r28
    20f2:	0f 5f       	subi	r16, 0xFF	; 255
    20f4:	1f 4f       	sbci	r17, 0xFF	; 255
    20f6:	99 27       	eor	r25, r25
    20f8:	9f 93       	push	r25
    20fa:	8f 93       	push	r24
    20fc:	81 e9       	ldi	r24, 0x91	; 145
    20fe:	92 e0       	ldi	r25, 0x02	; 2
    2100:	9f 93       	push	r25
    2102:	8f 93       	push	r24
    2104:	1f 93       	push	r17
    2106:	0f 93       	push	r16
    2108:	a4 d6       	rcall	.+3400   	; 0x2e52 <sprintf>
    210a:	99 27       	eor	r25, r25
    210c:	bc 01       	movw	r22, r24
    210e:	c8 01       	movw	r24, r16
    2110:	0e 94 92 06 	call	0xd24	; 0xd24 <BlinkC__SerialStream__send>
    2114:	28 c1       	rjmp	.+592    	; 0x2366 <SchedulerBasicP__TaskBasic__runTask+0x4c0>
    2116:	1f b7       	in	r17, 0x3f	; 63
    2118:	f8 94       	cli
    211a:	64 e9       	ldi	r22, 0x94	; 148
    211c:	74 e0       	ldi	r23, 0x04	; 4
    211e:	80 eb       	ldi	r24, 0xB0	; 176
    2120:	92 e0       	ldi	r25, 0x02	; 2
    2122:	8e d6       	rcall	.+3356   	; 0x2e40 <strcmp>
    2124:	89 2b       	or	r24, r25
    2126:	99 f4       	brne	.+38     	; 0x214e <SchedulerBasicP__TaskBasic__runTask+0x2a8>
    2128:	64 e9       	ldi	r22, 0x94	; 148
    212a:	74 e0       	ldi	r23, 0x04	; 4
    212c:	82 eb       	ldi	r24, 0xB2	; 178
    212e:	92 e0       	ldi	r25, 0x02	; 2
    2130:	87 d6       	rcall	.+3342   	; 0x2e40 <strcmp>
    2132:	89 2b       	or	r24, r25
    2134:	11 f4       	brne	.+4      	; 0x213a <SchedulerBasicP__TaskBasic__runTask+0x294>
    2136:	86 e0       	ldi	r24, 0x06	; 6
    2138:	08 c0       	rjmp	.+16     	; 0x214a <SchedulerBasicP__TaskBasic__runTask+0x2a4>
    213a:	64 e9       	ldi	r22, 0x94	; 148
    213c:	74 e0       	ldi	r23, 0x04	; 4
    213e:	85 eb       	ldi	r24, 0xB5	; 181
    2140:	92 e0       	ldi	r25, 0x02	; 2
    2142:	7e d6       	rcall	.+3324   	; 0x2e40 <strcmp>
    2144:	89 2b       	or	r24, r25
    2146:	19 f4       	brne	.+6      	; 0x214e <SchedulerBasicP__TaskBasic__runTask+0x2a8>
    2148:	87 e0       	ldi	r24, 0x07	; 7
    214a:	0e 94 9d 02 	call	0x53a	; 0x53a <SchedulerBasicP__TaskBasic__postTask>
    214e:	10 92 6e 04 	sts	0x046E, r1
    2152:	64 cf       	rjmp	.-312    	; 0x201c <SchedulerBasicP__TaskBasic__runTask+0x176>
    2154:	80 91 90 04 	lds	r24, 0x0490
    2158:	88 23       	and	r24, r24
    215a:	19 f5       	brne	.+70     	; 0x21a2 <SchedulerBasicP__TaskBasic__runTask+0x2fc>
    215c:	20 91 29 06 	lds	r18, 0x0629
    2160:	30 91 2a 06 	lds	r19, 0x062A
    2164:	40 91 2b 06 	lds	r20, 0x062B
    2168:	50 91 2c 06 	lds	r21, 0x062C
    216c:	ef b7       	in	r30, 0x3f	; 63
    216e:	f8 94       	cli
    2170:	ff 27       	eor	r31, r31
    2172:	60 91 a0 05 	lds	r22, 0x05A0
    2176:	70 91 a1 05 	lds	r23, 0x05A1
    217a:	80 91 a2 05 	lds	r24, 0x05A2
    217e:	90 91 a3 05 	lds	r25, 0x05A3
    2182:	e0 90 9c 05 	lds	r14, 0x059C
    2186:	f0 90 9d 05 	lds	r15, 0x059D
    218a:	00 91 9e 05 	lds	r16, 0x059E
    218e:	10 91 9f 05 	lds	r17, 0x059F
    2192:	6e 0d       	add	r22, r14
    2194:	7f 1d       	adc	r23, r15
    2196:	80 1f       	adc	r24, r16
    2198:	91 1f       	adc	r25, r17
    219a:	ef bf       	out	0x3f, r30	; 63
    219c:	00 e0       	ldi	r16, 0x00	; 0
    219e:	0e 94 ce 07 	call	0xf9c	; 0xf9c <AlarmToTimerC__0__start>
    21a2:	0e 94 de 04 	call	0x9bc	; 0x9bc <VirtualizeTimerC__0__TimerFrom__getNow>
    21a6:	41 c0       	rjmp	.+130    	; 0x222a <SchedulerBasicP__TaskBasic__runTask+0x384>
    21a8:	0e 94 de 04 	call	0x9bc	; 0x9bc <VirtualizeTimerC__0__TimerFrom__getNow>
    21ac:	5b 01       	movw	r10, r22
    21ae:	6c 01       	movw	r12, r24
    21b0:	80 91 df 00 	lds	r24, 0x00DF
    21b4:	8e 7f       	andi	r24, 0xFE	; 254
    21b6:	80 93 df 00 	sts	0x00DF, r24
    21ba:	8f ef       	ldi	r24, 0xFF	; 255
    21bc:	80 93 61 04 	sts	0x0461, r24
    21c0:	2f ef       	ldi	r18, 0xFF	; 255
    21c2:	3f ef       	ldi	r19, 0xFF	; 255
    21c4:	4f ef       	ldi	r20, 0xFF	; 255
    21c6:	5f e7       	ldi	r21, 0x7F	; 127
    21c8:	60 e0       	ldi	r22, 0x00	; 0
    21ca:	e4 ee       	ldi	r30, 0xE4	; 228
    21cc:	f5 e0       	ldi	r31, 0x05	; 5
    21ce:	80 85       	ldd	r24, Z+8	; 0x08
    21d0:	81 ff       	sbrs	r24, 1
    21d2:	1c c0       	rjmp	.+56     	; 0x220c <SchedulerBasicP__TaskBasic__runTask+0x366>
    21d4:	80 81       	ld	r24, Z
    21d6:	91 81       	ldd	r25, Z+1	; 0x01
    21d8:	a2 81       	ldd	r26, Z+2	; 0x02
    21da:	b3 81       	ldd	r27, Z+3	; 0x03
    21dc:	86 01       	movw	r16, r12
    21de:	75 01       	movw	r14, r10
    21e0:	e8 1a       	sub	r14, r24
    21e2:	f9 0a       	sbc	r15, r25
    21e4:	0a 0b       	sbc	r16, r26
    21e6:	1b 0b       	sbc	r17, r27
    21e8:	d8 01       	movw	r26, r16
    21ea:	c7 01       	movw	r24, r14
    21ec:	e4 80       	ldd	r14, Z+4	; 0x04
    21ee:	f5 80       	ldd	r15, Z+5	; 0x05
    21f0:	06 81       	ldd	r16, Z+6	; 0x06
    21f2:	17 81       	ldd	r17, Z+7	; 0x07
    21f4:	e8 1a       	sub	r14, r24
    21f6:	f9 0a       	sbc	r15, r25
    21f8:	0a 0b       	sbc	r16, r26
    21fa:	1b 0b       	sbc	r17, r27
    21fc:	e2 16       	cp	r14, r18
    21fe:	f3 06       	cpc	r15, r19
    2200:	04 07       	cpc	r16, r20
    2202:	15 07       	cpc	r17, r21
    2204:	1c f4       	brge	.+6      	; 0x220c <SchedulerBasicP__TaskBasic__runTask+0x366>
    2206:	a8 01       	movw	r20, r16
    2208:	97 01       	movw	r18, r14
    220a:	61 e0       	ldi	r22, 0x01	; 1
    220c:	39 96       	adiw	r30, 0x09	; 9
    220e:	06 e0       	ldi	r16, 0x06	; 6
    2210:	e8 30       	cpi	r30, 0x08	; 8
    2212:	f0 07       	cpc	r31, r16
    2214:	e1 f6       	brne	.-72     	; 0x21ce <SchedulerBasicP__TaskBasic__runTask+0x328>
    2216:	66 23       	and	r22, r22
    2218:	09 f4       	brne	.+2      	; 0x221c <SchedulerBasicP__TaskBasic__runTask+0x376>
    221a:	2a c2       	rjmp	.+1108   	; 0x2670 <SchedulerBasicP__TaskBasic__runTask+0x7ca>
    221c:	12 16       	cp	r1, r18
    221e:	13 06       	cpc	r1, r19
    2220:	14 06       	cpc	r1, r20
    2222:	15 06       	cpc	r1, r21
    2224:	2c f0       	brlt	.+10     	; 0x2230 <SchedulerBasicP__TaskBasic__runTask+0x38a>
    2226:	c6 01       	movw	r24, r12
    2228:	b5 01       	movw	r22, r10
    222a:	0e 94 6f 07 	call	0xede	; 0xede <VirtualizeTimerC__0__fireTimers>
    222e:	20 c2       	rjmp	.+1088   	; 0x2670 <SchedulerBasicP__TaskBasic__runTask+0x7ca>
    2230:	01 e0       	ldi	r16, 0x01	; 1
    2232:	c6 01       	movw	r24, r12
    2234:	b5 01       	movw	r22, r10
    2236:	0e 94 ce 07 	call	0xf9c	; 0xf9c <AlarmToTimerC__0__start>
    223a:	1a c2       	rjmp	.+1076   	; 0x2670 <SchedulerBasicP__TaskBasic__runTask+0x7ca>
    223c:	8f b7       	in	r24, 0x3f	; 63
    223e:	f8 94       	cli
    2240:	99 27       	eor	r25, r25
    2242:	20 91 15 06 	lds	r18, 0x0615
    2246:	20 93 62 04 	sts	0x0462, r18
    224a:	23 e0       	ldi	r18, 0x03	; 3
    224c:	20 93 68 04 	sts	0x0468, r18
    2250:	8f bf       	out	0x3f, r24	; 63
    2252:	80 91 62 04 	lds	r24, 0x0462
    2256:	81 30       	cpi	r24, 0x01	; 1
    2258:	41 f0       	breq	.+16     	; 0x226a <SchedulerBasicP__TaskBasic__runTask+0x3c4>
    225a:	81 30       	cpi	r24, 0x01	; 1
    225c:	20 f0       	brcs	.+8      	; 0x2266 <SchedulerBasicP__TaskBasic__runTask+0x3c0>
    225e:	82 30       	cpi	r24, 0x02	; 2
    2260:	09 f0       	breq	.+2      	; 0x2264 <SchedulerBasicP__TaskBasic__runTask+0x3be>
    2262:	06 c2       	rjmp	.+1036   	; 0x2670 <SchedulerBasicP__TaskBasic__runTask+0x7ca>
    2264:	06 c0       	rjmp	.+12     	; 0x2272 <SchedulerBasicP__TaskBasic__runTask+0x3cc>
    2266:	80 e0       	ldi	r24, 0x00	; 0
    2268:	01 c0       	rjmp	.+2      	; 0x226c <SchedulerBasicP__TaskBasic__runTask+0x3c6>
    226a:	81 e0       	ldi	r24, 0x01	; 1
    226c:	0e 94 69 07 	call	0xed2	; 0xed2 <ArbitratedReadC__0__Resource__granted>
    2270:	ff c1       	rjmp	.+1022   	; 0x2670 <SchedulerBasicP__TaskBasic__runTask+0x7ca>
    2272:	82 e0       	ldi	r24, 0x02	; 2
    2274:	fb cf       	rjmp	.-10     	; 0x226c <SchedulerBasicP__TaskBasic__runTask+0x3c6>
    2276:	10 92 a8 05 	sts	0x05A8, r1
    227a:	e0 90 0b 06 	lds	r14, 0x060B
    227e:	f0 90 0c 06 	lds	r15, 0x060C
    2282:	80 91 35 06 	lds	r24, 0x0635
    2286:	81 30       	cpi	r24, 0x01	; 1
    2288:	49 f0       	breq	.+18     	; 0x229c <SchedulerBasicP__TaskBasic__runTask+0x3f6>
    228a:	81 30       	cpi	r24, 0x01	; 1
    228c:	18 f0       	brcs	.+6      	; 0x2294 <SchedulerBasicP__TaskBasic__runTask+0x3ee>
    228e:	82 30       	cpi	r24, 0x02	; 2
    2290:	69 f4       	brne	.+26     	; 0x22ac <SchedulerBasicP__TaskBasic__runTask+0x406>
    2292:	08 c0       	rjmp	.+16     	; 0x22a4 <SchedulerBasicP__TaskBasic__runTask+0x3fe>
    2294:	80 e0       	ldi	r24, 0x00	; 0
    2296:	0e 94 22 06 	call	0xc44	; 0xc44 <ArbiterP__0__Resource__release>
    229a:	11 c0       	rjmp	.+34     	; 0x22be <SchedulerBasicP__TaskBasic__runTask+0x418>
    229c:	81 e0       	ldi	r24, 0x01	; 1
    229e:	0e 94 22 06 	call	0xc44	; 0xc44 <ArbiterP__0__Resource__release>
    22a2:	4e c0       	rjmp	.+156    	; 0x2340 <SchedulerBasicP__TaskBasic__runTask+0x49a>
    22a4:	82 e0       	ldi	r24, 0x02	; 2
    22a6:	0e 94 22 06 	call	0xc44	; 0xc44 <ArbiterP__0__Resource__release>
    22aa:	66 c0       	rjmp	.+204    	; 0x2378 <SchedulerBasicP__TaskBasic__runTask+0x4d2>
    22ac:	81 30       	cpi	r24, 0x01	; 1
    22ae:	09 f4       	brne	.+2      	; 0x22b2 <SchedulerBasicP__TaskBasic__runTask+0x40c>
    22b0:	47 c0       	rjmp	.+142    	; 0x2340 <SchedulerBasicP__TaskBasic__runTask+0x49a>
    22b2:	81 30       	cpi	r24, 0x01	; 1
    22b4:	20 f0       	brcs	.+8      	; 0x22be <SchedulerBasicP__TaskBasic__runTask+0x418>
    22b6:	82 30       	cpi	r24, 0x02	; 2
    22b8:	09 f0       	breq	.+2      	; 0x22bc <SchedulerBasicP__TaskBasic__runTask+0x416>
    22ba:	da c1       	rjmp	.+948    	; 0x2670 <SchedulerBasicP__TaskBasic__runTask+0x7ca>
    22bc:	5d c0       	rjmp	.+186    	; 0x2378 <SchedulerBasicP__TaskBasic__runTask+0x4d2>
    22be:	b7 01       	movw	r22, r14
    22c0:	88 27       	eor	r24, r24
    22c2:	77 fd       	sbrc	r23, 7
    22c4:	80 95       	com	r24
    22c6:	98 2f       	mov	r25, r24
    22c8:	52 d4       	rcall	.+2212   	; 0x2b6e <__floatsisf>
    22ca:	f7 fe       	sbrs	r15, 7
    22cc:	05 c0       	rjmp	.+10     	; 0x22d8 <SchedulerBasicP__TaskBasic__runTask+0x432>
    22ce:	20 e0       	ldi	r18, 0x00	; 0
    22d0:	30 e0       	ldi	r19, 0x00	; 0
    22d2:	40 e8       	ldi	r20, 0x80	; 128
    22d4:	57 e4       	ldi	r21, 0x47	; 71
    22d6:	b9 d3       	rcall	.+1906   	; 0x2a4a <__addsf3>
    22d8:	20 e0       	ldi	r18, 0x00	; 0
    22da:	30 e0       	ldi	r19, 0x00	; 0
    22dc:	42 ee       	ldi	r20, 0xE2	; 226
    22de:	52 e4       	ldi	r21, 0x42	; 66
    22e0:	d2 d4       	rcall	.+2468   	; 0x2c86 <__mulsf3>
    22e2:	20 e0       	ldi	r18, 0x00	; 0
    22e4:	38 ea       	ldi	r19, 0xA8	; 168
    22e6:	44 ed       	ldi	r20, 0xD4	; 212
    22e8:	56 e4       	ldi	r21, 0x46	; 70
    22ea:	ae d3       	rcall	.+1884   	; 0x2a48 <__subsf3>
    22ec:	12 d4       	rcall	.+2084   	; 0x2b12 <__fixunssfsi>
    22ee:	8b 01       	movw	r16, r22
    22f0:	9c 01       	movw	r18, r24
    22f2:	7e 01       	movw	r14, r28
    22f4:	08 94       	sec
    22f6:	e1 1c       	adc	r14, r1
    22f8:	f1 1c       	adc	r15, r1
    22fa:	cb 01       	movw	r24, r22
    22fc:	64 e6       	ldi	r22, 0x64	; 100
    22fe:	70 e0       	ldi	r23, 0x00	; 0
    2300:	25 d5       	rcall	.+2634   	; 0x2d4c <__udivmodhi4>
    2302:	9f 93       	push	r25
    2304:	8f 93       	push	r24
    2306:	c8 01       	movw	r24, r16
    2308:	64 e6       	ldi	r22, 0x64	; 100
    230a:	70 e0       	ldi	r23, 0x00	; 0
    230c:	1f d5       	rcall	.+2622   	; 0x2d4c <__udivmodhi4>
    230e:	7f 93       	push	r23
    2310:	6f 93       	push	r22
    2312:	88 eb       	ldi	r24, 0xB8	; 184
    2314:	92 e0       	ldi	r25, 0x02	; 2
    2316:	9f 93       	push	r25
    2318:	8f 93       	push	r24
    231a:	ff 92       	push	r15
    231c:	ef 92       	push	r14
    231e:	99 d5       	rcall	.+2866   	; 0x2e52 <sprintf>
    2320:	99 27       	eor	r25, r25
    2322:	bc 01       	movw	r22, r24
    2324:	c7 01       	movw	r24, r14
    2326:	0e 94 92 06 	call	0xd24	; 0xd24 <BlinkC__SerialStream__send>
    232a:	0e 94 e5 06 	call	0xdca	; 0xdca <BlinkC__Leds__led1Toggle>
    232e:	8d b7       	in	r24, 0x3d	; 61
    2330:	9e b7       	in	r25, 0x3e	; 62
    2332:	08 96       	adiw	r24, 0x08	; 8
    2334:	0f b6       	in	r0, 0x3f	; 63
    2336:	f8 94       	cli
    2338:	9e bf       	out	0x3e, r25	; 62
    233a:	0f be       	out	0x3f, r0	; 63
    233c:	8d bf       	out	0x3d, r24	; 61
    233e:	98 c1       	rjmp	.+816    	; 0x2670 <SchedulerBasicP__TaskBasic__runTask+0x7ca>
    2340:	8e 01       	movw	r16, r28
    2342:	0f 5f       	subi	r16, 0xFF	; 255
    2344:	1f 4f       	sbci	r17, 0xFF	; 255
    2346:	ff 92       	push	r15
    2348:	ef 92       	push	r14
    234a:	87 ec       	ldi	r24, 0xC7	; 199
    234c:	92 e0       	ldi	r25, 0x02	; 2
    234e:	9f 93       	push	r25
    2350:	8f 93       	push	r24
    2352:	1f 93       	push	r17
    2354:	0f 93       	push	r16
    2356:	7d d5       	rcall	.+2810   	; 0x2e52 <sprintf>
    2358:	99 27       	eor	r25, r25
    235a:	bc 01       	movw	r22, r24
    235c:	c8 01       	movw	r24, r16
    235e:	0e 94 92 06 	call	0xd24	; 0xd24 <BlinkC__SerialStream__send>
    2362:	0e 94 dc 06 	call	0xdb8	; 0xdb8 <BlinkC__Leds__led2Toggle>
    2366:	ed b7       	in	r30, 0x3d	; 61
    2368:	fe b7       	in	r31, 0x3e	; 62
    236a:	36 96       	adiw	r30, 0x06	; 6
    236c:	0f b6       	in	r0, 0x3f	; 63
    236e:	f8 94       	cli
    2370:	fe bf       	out	0x3e, r31	; 62
    2372:	0f be       	out	0x3f, r0	; 63
    2374:	ed bf       	out	0x3d, r30	; 61
    2376:	7c c1       	rjmp	.+760    	; 0x2670 <SchedulerBasicP__TaskBasic__runTask+0x7ca>
    2378:	8e 01       	movw	r16, r28
    237a:	0f 5f       	subi	r16, 0xFF	; 255
    237c:	1f 4f       	sbci	r17, 0xFF	; 255
    237e:	ff 92       	push	r15
    2380:	ef 92       	push	r14
    2382:	83 ed       	ldi	r24, 0xD3	; 211
    2384:	92 e0       	ldi	r25, 0x02	; 2
    2386:	9f 93       	push	r25
    2388:	8f 93       	push	r24
    238a:	1f 93       	push	r17
    238c:	0f 93       	push	r16
    238e:	61 d5       	rcall	.+2754   	; 0x2e52 <sprintf>
    2390:	99 27       	eor	r25, r25
    2392:	bc 01       	movw	r22, r24
    2394:	c8 01       	movw	r24, r16
    2396:	0e 94 92 06 	call	0xd24	; 0xd24 <BlinkC__SerialStream__send>
    239a:	0e 94 dc 06 	call	0xdb8	; 0xdb8 <BlinkC__Leds__led2Toggle>
    239e:	0d b7       	in	r16, 0x3d	; 61
    23a0:	1e b7       	in	r17, 0x3e	; 62
    23a2:	0a 5f       	subi	r16, 0xFA	; 250
    23a4:	1f 4f       	sbci	r17, 0xFF	; 255
    23a6:	0f b6       	in	r0, 0x3f	; 63
    23a8:	f8 94       	cli
    23aa:	1e bf       	out	0x3e, r17	; 62
    23ac:	0f be       	out	0x3f, r0	; 63
    23ae:	0d bf       	out	0x3d, r16	; 61
    23b0:	5f c1       	rjmp	.+702    	; 0x2670 <SchedulerBasicP__TaskBasic__runTask+0x7ca>
    23b2:	8f b7       	in	r24, 0x3f	; 63
    23b4:	f8 94       	cli
    23b6:	99 27       	eor	r25, r25
    23b8:	20 91 93 04 	lds	r18, 0x0493
    23bc:	20 93 63 04 	sts	0x0463, r18
    23c0:	22 e0       	ldi	r18, 0x02	; 2
    23c2:	20 93 69 04 	sts	0x0469, r18
    23c6:	52 c1       	rjmp	.+676    	; 0x266c <SchedulerBasicP__TaskBasic__runTask+0x7c6>
    23c8:	e0 90 13 06 	lds	r14, 0x0613
    23cc:	f0 90 14 06 	lds	r15, 0x0614
    23d0:	c7 01       	movw	r24, r14
    23d2:	0e 94 5e 02 	call	0x4bc	; 0x4bc <PacketLinkLayerP__0__getMeta>
    23d6:	6c 01       	movw	r12, r24
    23d8:	fc 01       	movw	r30, r24
    23da:	00 81       	ld	r16, Z
    23dc:	11 81       	ldd	r17, Z+1	; 0x01
    23de:	80 91 6a 04 	lds	r24, 0x046A
    23e2:	82 30       	cpi	r24, 0x02	; 2
    23e4:	91 f5       	brne	.+100    	; 0x244a <SchedulerBasicP__TaskBasic__runTask+0x5a4>
    23e6:	01 15       	cp	r16, r1
    23e8:	11 05       	cpc	r17, r1
    23ea:	31 f0       	breq	.+12     	; 0x23f8 <SchedulerBasicP__TaskBasic__runTask+0x552>
    23ec:	b7 01       	movw	r22, r14
    23ee:	80 e0       	ldi	r24, 0x00	; 0
    23f0:	0e 94 ad 05 	call	0xb5a	; 0xb5a <MetadataFlagsLayerC__0__PacketFlag__get>
    23f4:	88 23       	and	r24, r24
    23f6:	11 f0       	breq	.+4      	; 0x23fc <SchedulerBasicP__TaskBasic__runTask+0x556>
    23f8:	84 e0       	ldi	r24, 0x04	; 4
    23fa:	22 c0       	rjmp	.+68     	; 0x2440 <SchedulerBasicP__TaskBasic__runTask+0x59a>
    23fc:	80 91 0f 06 	lds	r24, 0x060F
    2400:	90 91 10 06 	lds	r25, 0x0610
    2404:	01 96       	adiw	r24, 0x01	; 1
    2406:	90 93 10 06 	sts	0x0610, r25
    240a:	80 93 0f 06 	sts	0x060F, r24
    240e:	80 17       	cp	r24, r16
    2410:	91 07       	cpc	r25, r17
    2412:	a8 f4       	brcc	.+42     	; 0x243e <SchedulerBasicP__TaskBasic__runTask+0x598>
    2414:	81 e0       	ldi	r24, 0x01	; 1
    2416:	80 93 6a 04 	sts	0x046A, r24
    241a:	f6 01       	movw	r30, r12
    241c:	02 81       	ldd	r16, Z+2	; 0x02
    241e:	13 81       	ldd	r17, Z+3	; 0x03
    2420:	01 15       	cp	r16, r1
    2422:	11 05       	cpc	r17, r1
    2424:	a1 f0       	breq	.+40     	; 0x244e <SchedulerBasicP__TaskBasic__runTask+0x5a8>
    2426:	0e 94 de 04 	call	0x9bc	; 0x9bc <VirtualizeTimerC__0__TimerFrom__getNow>
    242a:	ab 01       	movw	r20, r22
    242c:	bc 01       	movw	r22, r24
    242e:	22 27       	eor	r18, r18
    2430:	33 27       	eor	r19, r19
    2432:	e1 e0       	ldi	r30, 0x01	; 1
    2434:	ee 2e       	mov	r14, r30
    2436:	83 e0       	ldi	r24, 0x03	; 3
    2438:	0e 94 f1 05 	call	0xbe2	; 0xbe2 <VirtualizeTimerC__0__startTimer>
    243c:	19 c1       	rjmp	.+562    	; 0x2670 <SchedulerBasicP__TaskBasic__runTask+0x7ca>
    243e:	85 e0       	ldi	r24, 0x05	; 5
    2440:	80 93 6a 04 	sts	0x046A, r24
    2444:	80 91 6a 04 	lds	r24, 0x046A
    2448:	19 c0       	rjmp	.+50     	; 0x247c <SchedulerBasicP__TaskBasic__runTask+0x5d6>
    244a:	81 30       	cpi	r24, 0x01	; 1
    244c:	b9 f4       	brne	.+46     	; 0x247c <SchedulerBasicP__TaskBasic__runTask+0x5d6>
    244e:	82 e0       	ldi	r24, 0x02	; 2
    2450:	80 93 6a 04 	sts	0x046A, r24
    2454:	0e 94 54 02 	call	0x4a8	; 0x4a8 <MessageBufferLayerP__0__Tasklet__suspend>
    2458:	80 91 96 05 	lds	r24, 0x0596
    245c:	88 23       	and	r24, r24
    245e:	61 f4       	brne	.+24     	; 0x2478 <SchedulerBasicP__TaskBasic__runTask+0x5d2>
    2460:	f0 92 0e 06 	sts	0x060E, r15
    2464:	e0 92 0d 06 	sts	0x060D, r14
    2468:	81 e0       	ldi	r24, 0x01	; 1
    246a:	80 93 96 05 	sts	0x0596, r24
    246e:	10 92 0a 06 	sts	0x060A, r1
    2472:	0e 94 cc 02 	call	0x598	; 0x598 <MessageBufferLayerP__0__sendTask__postTask>
    2476:	61 c0       	rjmp	.+194    	; 0x253a <SchedulerBasicP__TaskBasic__runTask+0x694>
    2478:	d4 db       	rcall	.-2136   	; 0x1c22 <MessageBufferLayerP__0__Tasklet__resume>
    247a:	64 c0       	rjmp	.+200    	; 0x2544 <SchedulerBasicP__TaskBasic__runTask+0x69e>
    247c:	84 30       	cpi	r24, 0x04	; 4
    247e:	08 f4       	brcc	.+2      	; 0x2482 <SchedulerBasicP__TaskBasic__runTask+0x5dc>
    2480:	f7 c0       	rjmp	.+494    	; 0x2670 <SchedulerBasicP__TaskBasic__runTask+0x7ca>
    2482:	01 2b       	or	r16, r17
    2484:	39 f0       	breq	.+14     	; 0x2494 <SchedulerBasicP__TaskBasic__runTask+0x5ee>
    2486:	80 91 0f 06 	lds	r24, 0x060F
    248a:	90 91 10 06 	lds	r25, 0x0610
    248e:	f6 01       	movw	r30, r12
    2490:	91 83       	std	Z+1, r25	; 0x01
    2492:	80 83       	st	Z, r24
    2494:	10 92 6a 04 	sts	0x046A, r1
    2498:	eb c0       	rjmp	.+470    	; 0x2670 <SchedulerBasicP__TaskBasic__runTask+0x7ca>
    249a:	80 91 96 05 	lds	r24, 0x0596
    249e:	10 92 96 05 	sts	0x0596, r1
    24a2:	85 30       	cpi	r24, 0x05	; 5
    24a4:	09 f4       	brne	.+2      	; 0x24a8 <SchedulerBasicP__TaskBasic__runTask+0x602>
    24a6:	e4 c0       	rjmp	.+456    	; 0x2670 <SchedulerBasicP__TaskBasic__runTask+0x7ca>
    24a8:	86 30       	cpi	r24, 0x06	; 6
    24aa:	09 f4       	brne	.+2      	; 0x24ae <SchedulerBasicP__TaskBasic__runTask+0x608>
    24ac:	e1 c0       	rjmp	.+450    	; 0x2670 <SchedulerBasicP__TaskBasic__runTask+0x7ca>
    24ae:	87 30       	cpi	r24, 0x07	; 7
    24b0:	09 f4       	brne	.+2      	; 0x24b4 <SchedulerBasicP__TaskBasic__runTask+0x60e>
    24b2:	de c0       	rjmp	.+444    	; 0x2670 <SchedulerBasicP__TaskBasic__runTask+0x7ca>
    24b4:	80 93 96 05 	sts	0x0596, r24
    24b8:	db c0       	rjmp	.+438    	; 0x2670 <SchedulerBasicP__TaskBasic__runTask+0x7ca>
    24ba:	0e 94 54 02 	call	0x4a8	; 0x4a8 <MessageBufferLayerP__0__Tasklet__suspend>
    24be:	40 91 96 05 	lds	r20, 0x0596
    24c2:	41 30       	cpi	r20, 0x01	; 1
    24c4:	91 f5       	brne	.+100    	; 0x252a <SchedulerBasicP__TaskBasic__runTask+0x684>
    24c6:	80 91 0a 06 	lds	r24, 0x060A
    24ca:	8f 5f       	subi	r24, 0xFF	; 255
    24cc:	80 93 0a 06 	sts	0x060A, r24
    24d0:	86 30       	cpi	r24, 0x06	; 6
    24d2:	58 f5       	brcc	.+86     	; 0x252a <SchedulerBasicP__TaskBasic__runTask+0x684>
    24d4:	20 91 0d 06 	lds	r18, 0x060D
    24d8:	30 91 0e 06 	lds	r19, 0x060E
    24dc:	80 91 97 05 	lds	r24, 0x0597
    24e0:	88 23       	and	r24, r24
    24e2:	e1 f4       	brne	.+56     	; 0x251c <SchedulerBasicP__TaskBasic__runTask+0x676>
    24e4:	90 e0       	ldi	r25, 0x00	; 0
    24e6:	80 91 08 06 	lds	r24, 0x0608
    24ea:	88 23       	and	r24, r24
    24ec:	09 f4       	brne	.+2      	; 0x24f0 <SchedulerBasicP__TaskBasic__runTask+0x64a>
    24ee:	91 e0       	ldi	r25, 0x01	; 1
    24f0:	99 23       	and	r25, r25
    24f2:	a1 f0       	breq	.+40     	; 0x251c <SchedulerBasicP__TaskBasic__runTask+0x676>
    24f4:	30 93 94 05 	sts	0x0594, r19
    24f8:	20 93 93 05 	sts	0x0593, r18
    24fc:	40 93 97 05 	sts	0x0597, r20
    2500:	86 e3       	ldi	r24, 0x36	; 54
    2502:	91 e0       	ldi	r25, 0x01	; 1
    2504:	0e 94 c6 05 	call	0xb8c	; 0xb8c <RandomCollisionLayerP__0__getBackoff>
    2508:	aa 27       	eor	r26, r26
    250a:	bb 27       	eor	r27, r27
    250c:	bc 01       	movw	r22, r24
    250e:	cd 01       	movw	r24, r26
    2510:	0e 94 b9 05 	call	0xb72	; 0xb72 <RandomCollisionLayerP__0__RadioAlarm__wait>
    2514:	10 92 37 06 	sts	0x0637, r1
    2518:	83 e0       	ldi	r24, 0x03	; 3
    251a:	04 c0       	rjmp	.+8      	; 0x2524 <SchedulerBasicP__TaskBasic__runTask+0x67e>
    251c:	85 e0       	ldi	r24, 0x05	; 5
    251e:	80 93 37 06 	sts	0x0637, r24
    2522:	82 e0       	ldi	r24, 0x02	; 2
    2524:	80 93 96 05 	sts	0x0596, r24
    2528:	08 c0       	rjmp	.+16     	; 0x253a <SchedulerBasicP__TaskBasic__runTask+0x694>
    252a:	10 92 96 05 	sts	0x0596, r1
    252e:	79 db       	rcall	.-2318   	; 0x1c22 <MessageBufferLayerP__0__Tasklet__resume>
    2530:	80 91 37 06 	lds	r24, 0x0637
    2534:	88 23       	and	r24, r24
    2536:	19 f4       	brne	.+6      	; 0x253e <SchedulerBasicP__TaskBasic__runTask+0x698>
    2538:	05 c0       	rjmp	.+10     	; 0x2544 <SchedulerBasicP__TaskBasic__runTask+0x69e>
    253a:	73 db       	rcall	.-2330   	; 0x1c22 <MessageBufferLayerP__0__Tasklet__resume>
    253c:	99 c0       	rjmp	.+306    	; 0x2670 <SchedulerBasicP__TaskBasic__runTask+0x7ca>
    253e:	8c 5f       	subi	r24, 0xFC	; 252
    2540:	80 93 6a 04 	sts	0x046A, r24
    2544:	0e 94 d0 02 	call	0x5a0	; 0x5a0 <PacketLinkLayerP__0__send__postTask>
    2548:	93 c0       	rjmp	.+294    	; 0x2670 <SchedulerBasicP__TaskBasic__runTask+0x7ca>
    254a:	8f b7       	in	r24, 0x3f	; 63
    254c:	f8 94       	cli
    254e:	28 2f       	mov	r18, r24
    2550:	33 27       	eor	r19, r19
    2552:	80 91 17 06 	lds	r24, 0x0617
    2556:	88 23       	and	r24, r24
    2558:	09 f4       	brne	.+2      	; 0x255c <SchedulerBasicP__TaskBasic__runTask+0x6b6>
    255a:	89 c0       	rjmp	.+274    	; 0x266e <SchedulerBasicP__TaskBasic__runTask+0x7c8>
    255c:	e0 91 34 06 	lds	r30, 0x0634
    2560:	ff 27       	eor	r31, r31
    2562:	ee 0f       	add	r30, r30
    2564:	ff 1f       	adc	r31, r31
    2566:	e1 59       	subi	r30, 0x91	; 145
    2568:	fb 4f       	sbci	r31, 0xFB	; 251
    256a:	00 81       	ld	r16, Z
    256c:	11 81       	ldd	r17, Z+1	; 0x01
    256e:	2f bf       	out	0x3f, r18	; 63
    2570:	c8 01       	movw	r24, r16
    2572:	0e 94 29 05 	call	0xa52	; 0xa52 <Ieee154PacketLayerP__0__Ieee154PacketLayer__getDestAddr>
    2576:	8f b7       	in	r24, 0x3f	; 63
    2578:	f8 94       	cli
    257a:	99 27       	eor	r25, r25
    257c:	8f bf       	out	0x3f, r24	; 63
    257e:	9f b7       	in	r25, 0x3f	; 63
    2580:	f8 94       	cli
    2582:	80 91 34 06 	lds	r24, 0x0634
    2586:	e8 2f       	mov	r30, r24
    2588:	ff 27       	eor	r31, r31
    258a:	ee 0f       	add	r30, r30
    258c:	ff 1f       	adc	r31, r31
    258e:	e1 59       	subi	r30, 0x91	; 145
    2590:	fb 4f       	sbci	r31, 0xFB	; 251
    2592:	11 83       	std	Z+1, r17	; 0x01
    2594:	00 83       	st	Z, r16
    2596:	8f 5f       	subi	r24, 0xFF	; 255
    2598:	80 93 34 06 	sts	0x0634, r24
    259c:	83 30       	cpi	r24, 0x03	; 3
    259e:	10 f0       	brcs	.+4      	; 0x25a4 <SchedulerBasicP__TaskBasic__runTask+0x6fe>
    25a0:	10 92 34 06 	sts	0x0634, r1
    25a4:	80 91 17 06 	lds	r24, 0x0617
    25a8:	81 50       	subi	r24, 0x01	; 1
    25aa:	80 93 17 06 	sts	0x0617, r24
    25ae:	89 2f       	mov	r24, r25
    25b0:	99 27       	eor	r25, r25
    25b2:	8f bf       	out	0x3f, r24	; 63
    25b4:	ca cf       	rjmp	.-108    	; 0x254a <SchedulerBasicP__TaskBasic__runTask+0x6a4>
    25b6:	ff b7       	in	r31, 0x3f	; 63
    25b8:	f9 a3       	std	Y+33, r31	; 0x21
    25ba:	f8 94       	cli
    25bc:	20 90 98 05 	lds	r2, 0x0598
    25c0:	30 90 99 05 	lds	r3, 0x0599
    25c4:	40 90 9a 05 	lds	r4, 0x059A
    25c8:	50 90 9b 05 	lds	r5, 0x059B
    25cc:	66 24       	eor	r6, r6
    25ce:	77 24       	eor	r7, r7
    25d0:	88 24       	eor	r8, r8
    25d2:	1e e4       	ldi	r17, 0x4E	; 78
    25d4:	a1 2e       	mov	r10, r17
    25d6:	b3 e8       	ldi	r27, 0x83	; 131
    25d8:	bb 2e       	mov	r11, r27
    25da:	cc 24       	eor	r12, r12
    25dc:	dd 24       	eor	r13, r13
    25de:	ee 24       	eor	r14, r14
    25e0:	ff 24       	eor	r15, r15
    25e2:	00 e0       	ldi	r16, 0x00	; 0
    25e4:	10 e0       	ldi	r17, 0x00	; 0
    25e6:	22 2d       	mov	r18, r2
    25e8:	33 2d       	mov	r19, r3
    25ea:	44 2d       	mov	r20, r4
    25ec:	55 2d       	mov	r21, r5
    25ee:	66 2d       	mov	r22, r6
    25f0:	77 2d       	mov	r23, r7
    25f2:	88 2d       	mov	r24, r8
    25f4:	90 e0       	ldi	r25, 0x00	; 0
    25f6:	0e 94 b3 00 	call	0x166	; 0x166 <__muldi3>
    25fa:	2a a3       	std	Y+34, r18	; 0x22
    25fc:	3b a3       	std	Y+35, r19	; 0x23
    25fe:	4c a3       	std	Y+36, r20	; 0x24
    2600:	5d a3       	std	Y+37, r21	; 0x25
    2602:	6e a3       	std	Y+38, r22	; 0x26
    2604:	7f a3       	std	Y+39, r23	; 0x27
    2606:	88 a7       	std	Y+40, r24	; 0x28
    2608:	99 a7       	std	Y+41, r25	; 0x29
    260a:	82 2e       	mov	r8, r18
    260c:	93 2e       	mov	r9, r19
    260e:	a4 2e       	mov	r10, r20
    2610:	b5 2e       	mov	r11, r21
    2612:	24 01       	movw	r4, r8
    2614:	35 01       	movw	r6, r10
    2616:	00 e2       	ldi	r16, 0x20	; 32
    2618:	0e 94 b1 01 	call	0x362	; 0x362 <__lshrdi3>
    261c:	a2 2e       	mov	r10, r18
    261e:	b3 2e       	mov	r11, r19
    2620:	c4 2e       	mov	r12, r20
    2622:	d5 2e       	mov	r13, r21
    2624:	a3 01       	movw	r20, r6
    2626:	92 01       	movw	r18, r4
    2628:	56 95       	lsr	r21
    262a:	47 95       	ror	r20
    262c:	37 95       	ror	r19
    262e:	27 95       	ror	r18
    2630:	2a 0d       	add	r18, r10
    2632:	3b 1d       	adc	r19, r11
    2634:	4c 1d       	adc	r20, r12
    2636:	5d 1d       	adc	r21, r13
    2638:	57 ff       	sbrs	r21, 7
    263a:	05 c0       	rjmp	.+10     	; 0x2646 <SchedulerBasicP__TaskBasic__runTask+0x7a0>
    263c:	5f 77       	andi	r21, 0x7F	; 127
    263e:	2f 5f       	subi	r18, 0xFF	; 255
    2640:	3f 4f       	sbci	r19, 0xFF	; 255
    2642:	4f 4f       	sbci	r20, 0xFF	; 255
    2644:	5f 4f       	sbci	r21, 0xFF	; 255
    2646:	20 93 98 05 	sts	0x0598, r18
    264a:	30 93 99 05 	sts	0x0599, r19
    264e:	40 93 9a 05 	sts	0x059A, r20
    2652:	50 93 9b 05 	sts	0x059B, r21
    2656:	e9 a0       	ldd	r14, Y+33	; 0x21
    2658:	8e 2d       	mov	r24, r14
    265a:	99 27       	eor	r25, r25
    265c:	8f bf       	out	0x3f, r24	; 63
    265e:	8f b7       	in	r24, 0x3f	; 63
    2660:	f8 94       	cli
    2662:	99 27       	eor	r25, r25
    2664:	30 93 12 06 	sts	0x0612, r19
    2668:	20 93 11 06 	sts	0x0611, r18
    266c:	d9 cc       	rjmp	.-1614   	; 0x2020 <SchedulerBasicP__TaskBasic__runTask+0x17a>
    266e:	2f bf       	out	0x3f, r18	; 63
    2670:	a9 96       	adiw	r28, 0x29	; 41
    2672:	0f b6       	in	r0, 0x3f	; 63
    2674:	f8 94       	cli
    2676:	de bf       	out	0x3e, r29	; 62
    2678:	0f be       	out	0x3f, r0	; 63
    267a:	cd bf       	out	0x3d, r28	; 61
    267c:	df 91       	pop	r29
    267e:	cf 91       	pop	r28
    2680:	1f 91       	pop	r17
    2682:	0f 91       	pop	r16
    2684:	ff 90       	pop	r15
    2686:	ef 90       	pop	r14
    2688:	df 90       	pop	r13
    268a:	cf 90       	pop	r12
    268c:	bf 90       	pop	r11
    268e:	af 90       	pop	r10
    2690:	9f 90       	pop	r9
    2692:	8f 90       	pop	r8
    2694:	7f 90       	pop	r7
    2696:	6f 90       	pop	r6
    2698:	5f 90       	pop	r5
    269a:	4f 90       	pop	r4
    269c:	3f 90       	pop	r3
    269e:	2f 90       	pop	r2
    26a0:	08 95       	ret

000026a2 <RealMainP__Scheduler__runNextTask>:
    26a2:	0e 94 86 02 	call	0x50c	; 0x50c <SchedulerBasicP__popTask>
    26a6:	8f 3f       	cpi	r24, 0xFF	; 255
    26a8:	19 f4       	brne	.+6      	; 0x26b0 <RealMainP__Scheduler__runNextTask+0xe>
    26aa:	80 e0       	ldi	r24, 0x00	; 0
    26ac:	90 e0       	ldi	r25, 0x00	; 0
    26ae:	08 95       	ret
    26b0:	fa db       	rcall	.-2060   	; 0x1ea6 <SchedulerBasicP__TaskBasic__runTask>
    26b2:	81 e0       	ldi	r24, 0x01	; 1
    26b4:	90 e0       	ldi	r25, 0x00	; 0
    26b6:	08 95       	ret

000026b8 <main>:
    26b8:	1f 93       	push	r17
    26ba:	cf 93       	push	r28
    26bc:	df 93       	push	r29
    26be:	1f b7       	in	r17, 0x3f	; 63
    26c0:	f8 94       	cli
    26c2:	14 be       	out	0x34, r1	; 52
    26c4:	88 e1       	ldi	r24, 0x18	; 24
    26c6:	0f b6       	in	r0, 0x3f	; 63
    26c8:	f8 94       	cli
    26ca:	80 93 60 00 	sts	0x0060, r24
    26ce:	10 92 60 00 	sts	0x0060, r1
    26d2:	0f be       	out	0x3f, r0	; 63
    26d4:	43 e1       	ldi	r20, 0x13	; 19
    26d6:	50 e0       	ldi	r21, 0x00	; 0
    26d8:	6f ef       	ldi	r22, 0xFF	; 255
    26da:	70 e0       	ldi	r23, 0x00	; 0
    26dc:	8a e7       	ldi	r24, 0x7A	; 122
    26de:	94 e0       	ldi	r25, 0x04	; 4
    26e0:	a8 d3       	rcall	.+1872   	; 0x2e32 <memset>
    26e2:	8f ef       	ldi	r24, 0xFF	; 255
    26e4:	80 93 2f 06 	sts	0x062F, r24
    26e8:	80 93 d4 06 	sts	0x06D4, r24
    26ec:	87 ed       	ldi	r24, 0xD7	; 215
    26ee:	96 e0       	ldi	r25, 0x06	; 6
    26f0:	90 93 0a 07 	sts	0x070A, r25
    26f4:	80 93 09 07 	sts	0x0709, r24
    26f8:	10 92 36 06 	sts	0x0636, r1
    26fc:	8a e5       	ldi	r24, 0x5A	; 90
    26fe:	80 93 76 04 	sts	0x0476, r24
    2702:	85 b7       	in	r24, 0x35	; 53
    2704:	80 68       	ori	r24, 0x80	; 128
    2706:	85 bf       	out	0x35, r24	; 53
    2708:	85 b7       	in	r24, 0x35	; 53
    270a:	80 68       	ori	r24, 0x80	; 128
    270c:	85 bf       	out	0x35, r24	; 53
    270e:	80 e8       	ldi	r24, 0x80	; 128
    2710:	80 93 61 00 	sts	0x0061, r24
    2714:	8f e0       	ldi	r24, 0x0F	; 15
    2716:	80 93 61 00 	sts	0x0061, r24
    271a:	91 e0       	ldi	r25, 0x01	; 1
    271c:	90 93 81 00 	sts	0x0081, r25
    2720:	80 e2       	ldi	r24, 0x20	; 32
    2722:	80 93 b6 00 	sts	0x00B6, r24
    2726:	90 93 b1 00 	sts	0x00B1, r25
    272a:	ae ef       	ldi	r26, 0xFE	; 254
    272c:	e0 e0       	ldi	r30, 0x00	; 0
    272e:	f0 e0       	ldi	r31, 0x00	; 0
    2730:	6f ef       	ldi	r22, 0xFF	; 255
    2732:	7f ef       	ldi	r23, 0xFF	; 255
    2734:	b0 e0       	ldi	r27, 0x00	; 0
    2736:	80 91 b2 00 	lds	r24, 0x00B2
    273a:	88 23       	and	r24, r24
    273c:	e1 f7       	brne	.-8      	; 0x2736 <main+0x7e>
    273e:	40 91 84 00 	lds	r20, 0x0084
    2742:	50 91 85 00 	lds	r21, 0x0085
    2746:	80 91 b2 00 	lds	r24, 0x00B2
    274a:	80 34       	cpi	r24, 0x40	; 64
    274c:	e1 f7       	brne	.-8      	; 0x2746 <main+0x8e>
    274e:	20 91 84 00 	lds	r18, 0x0084
    2752:	30 91 85 00 	lds	r19, 0x0085
    2756:	24 1b       	sub	r18, r20
    2758:	35 0b       	sbc	r19, r21
    275a:	62 17       	cp	r22, r18
    275c:	73 07       	cpc	r23, r19
    275e:	08 f4       	brcc	.+2      	; 0x2762 <main+0xaa>
    2760:	b9 01       	movw	r22, r18
    2762:	2e 17       	cp	r18, r30
    2764:	3f 07       	cpc	r19, r31
    2766:	08 f4       	brcc	.+2      	; 0x276a <main+0xb2>
    2768:	f9 01       	movw	r30, r18
    276a:	cf 01       	movw	r24, r30
    276c:	86 1b       	sub	r24, r22
    276e:	97 0b       	sbc	r25, r23
    2770:	02 97       	sbiw	r24, 0x02	; 2
    2772:	30 f0       	brcs	.+12     	; 0x2780 <main+0xc8>
    2774:	b0 e0       	ldi	r27, 0x00	; 0
    2776:	6f ef       	ldi	r22, 0xFF	; 255
    2778:	7f ef       	ldi	r23, 0xFF	; 255
    277a:	e0 e0       	ldi	r30, 0x00	; 0
    277c:	f0 e0       	ldi	r31, 0x00	; 0
    277e:	03 c0       	rjmp	.+6      	; 0x2786 <main+0xce>
    2780:	bf 5f       	subi	r27, 0xFF	; 255
    2782:	b2 33       	cpi	r27, 0x32	; 50
    2784:	10 f4       	brcc	.+4      	; 0x278a <main+0xd2>
    2786:	a1 50       	subi	r26, 0x01	; 1
    2788:	b1 f6       	brne	.-84     	; 0x2736 <main+0x7e>
    278a:	30 93 31 06 	sts	0x0631, r19
    278e:	20 93 30 06 	sts	0x0630, r18
    2792:	10 92 b1 00 	sts	0x00B1, r1
    2796:	80 91 b1 00 	lds	r24, 0x00B1
    279a:	80 93 81 00 	sts	0x0081, r24
    279e:	80 91 81 00 	lds	r24, 0x0081
    27a2:	80 93 b6 00 	sts	0x00B6, r24
    27a6:	80 91 b6 00 	lds	r24, 0x00B6
    27aa:	99 27       	eor	r25, r25
    27ac:	83 70       	andi	r24, 0x03	; 3
    27ae:	90 70       	andi	r25, 0x00	; 0
    27b0:	89 2b       	or	r24, r25
    27b2:	c9 f7       	brne	.-14     	; 0x27a6 <main+0xee>
    27b4:	80 91 df 00 	lds	r24, 0x00DF
    27b8:	8d 7f       	andi	r24, 0xFD	; 253
    27ba:	80 93 df 00 	sts	0x00DF, r24
    27be:	80 91 dc 00 	lds	r24, 0x00DC
    27c2:	8d 7f       	andi	r24, 0xFD	; 253
    27c4:	80 93 dc 00 	sts	0x00DC, r24
    27c8:	80 91 df 00 	lds	r24, 0x00DF
    27cc:	8e 7f       	andi	r24, 0xFE	; 254
    27ce:	80 93 df 00 	sts	0x00DF, r24
    27d2:	80 91 dc 00 	lds	r24, 0x00DC
    27d6:	8e 7f       	andi	r24, 0xFE	; 254
    27d8:	80 93 dc 00 	sts	0x00DC, r24
    27dc:	80 e2       	ldi	r24, 0x20	; 32
    27de:	80 93 b6 00 	sts	0x00B6, r24
    27e2:	80 91 dc 00 	lds	r24, 0x00DC
    27e6:	8f 7c       	andi	r24, 0xCF	; 207
    27e8:	80 63       	ori	r24, 0x30	; 48
    27ea:	80 93 dc 00 	sts	0x00DC, r24
    27ee:	8f ef       	ldi	r24, 0xFF	; 255
    27f0:	80 93 61 04 	sts	0x0461, r24
    27f4:	80 91 df 00 	lds	r24, 0x00DF
    27f8:	88 60       	ori	r24, 0x08	; 8
    27fa:	80 93 df 00 	sts	0x00DF, r24
    27fe:	84 e4       	ldi	r24, 0x44	; 68
    2800:	80 93 e1 05 	sts	0x05E1, r24
    2804:	80 91 c8 00 	lds	r24, 0x00C8
    2808:	8f 77       	andi	r24, 0x7F	; 127
    280a:	80 93 c8 00 	sts	0x00C8, r24
    280e:	80 91 c8 00 	lds	r24, 0x00C8
    2812:	8f 7b       	andi	r24, 0xBF	; 191
    2814:	80 93 c8 00 	sts	0x00C8, r24
    2818:	80 91 c8 00 	lds	r24, 0x00C8
    281c:	82 60       	ori	r24, 0x02	; 2
    281e:	80 93 c8 00 	sts	0x00C8, r24
    2822:	80 91 c9 00 	lds	r24, 0x00C9
    2826:	8f 7d       	andi	r24, 0xDF	; 223
    2828:	80 93 c9 00 	sts	0x00C9, r24
    282c:	80 91 c9 00 	lds	r24, 0x00C9
    2830:	8b 7f       	andi	r24, 0xFB	; 251
    2832:	80 93 c9 00 	sts	0x00C9, r24
    2836:	80 91 c9 00 	lds	r24, 0x00C9
    283a:	80 68       	ori	r24, 0x80	; 128
    283c:	80 93 c9 00 	sts	0x00C9, r24
    2840:	80 91 c9 00 	lds	r24, 0x00C9
    2844:	80 64       	ori	r24, 0x40	; 64
    2846:	80 93 c9 00 	sts	0x00C9, r24
    284a:	80 91 c9 00 	lds	r24, 0x00C9
    284e:	80 61       	ori	r24, 0x10	; 16
    2850:	80 93 c9 00 	sts	0x00C9, r24
    2854:	80 91 c9 00 	lds	r24, 0x00C9
    2858:	88 60       	ori	r24, 0x08	; 8
    285a:	80 93 c9 00 	sts	0x00C9, r24
    285e:	80 91 ca 00 	lds	r24, 0x00CA
    2862:	8f 77       	andi	r24, 0x7F	; 127
    2864:	80 93 ca 00 	sts	0x00CA, r24
    2868:	80 91 ca 00 	lds	r24, 0x00CA
    286c:	8f 7b       	andi	r24, 0xBF	; 191
    286e:	80 93 ca 00 	sts	0x00CA, r24
    2872:	80 91 ca 00 	lds	r24, 0x00CA
    2876:	8f 7d       	andi	r24, 0xDF	; 223
    2878:	80 93 ca 00 	sts	0x00CA, r24
    287c:	80 91 ca 00 	lds	r24, 0x00CA
    2880:	8f 7e       	andi	r24, 0xEF	; 239
    2882:	80 93 ca 00 	sts	0x00CA, r24
    2886:	80 91 ca 00 	lds	r24, 0x00CA
    288a:	8e 7f       	andi	r24, 0xFE	; 254
    288c:	80 93 ca 00 	sts	0x00CA, r24
    2890:	80 91 ca 00 	lds	r24, 0x00CA
    2894:	84 60       	ori	r24, 0x04	; 4
    2896:	80 93 ca 00 	sts	0x00CA, r24
    289a:	80 91 ca 00 	lds	r24, 0x00CA
    289e:	82 60       	ori	r24, 0x02	; 2
    28a0:	80 93 ca 00 	sts	0x00CA, r24
    28a4:	10 92 cd 00 	sts	0x00CD, r1
    28a8:	82 e2       	ldi	r24, 0x22	; 34
    28aa:	80 93 cc 00 	sts	0x00CC, r24
    28ae:	10 92 75 04 	sts	0x0475, r1
    28b2:	10 92 a4 05 	sts	0x05A4, r1
    28b6:	10 92 33 06 	sts	0x0633, r1
    28ba:	10 92 32 06 	sts	0x0632, r1
    28be:	10 92 6d 04 	sts	0x046D, r1
    28c2:	10 92 6c 04 	sts	0x046C, r1
    28c6:	10 92 a6 05 	sts	0x05A6, r1
    28ca:	10 92 a5 05 	sts	0x05A5, r1
    28ce:	10 92 2e 06 	sts	0x062E, r1
    28d2:	10 92 2d 06 	sts	0x062D, r1
    28d6:	10 92 1e 06 	sts	0x061E, r1
    28da:	10 92 1d 06 	sts	0x061D, r1
    28de:	10 92 8e 04 	sts	0x048E, r1
    28e2:	10 92 8d 04 	sts	0x048D, r1
    28e6:	6a 9a       	sbi	0x0d, 2	; 13
    28e8:	6b 9a       	sbi	0x0d, 3	; 13
    28ea:	6c 9a       	sbi	0x0d, 4	; 13
    28ec:	72 9a       	sbi	0x0e, 2	; 14
    28ee:	73 9a       	sbi	0x0e, 3	; 14
    28f0:	74 9a       	sbi	0x0e, 4	; 14
    28f2:	81 e0       	ldi	r24, 0x01	; 1
    28f4:	85 bf       	out	0x35, r24	; 53
    28f6:	80 91 39 01 	lds	r24, 0x0139
    28fa:	82 60       	ori	r24, 0x02	; 2
    28fc:	80 93 39 01 	sts	0x0139, r24
    2900:	d0 de       	rcall	.-608    	; 0x26a2 <RealMainP__Scheduler__runNextTask>
    2902:	88 23       	and	r24, r24
    2904:	e9 f7       	brne	.-6      	; 0x2900 <main+0x248>
    2906:	10 92 e2 05 	sts	0x05E2, r1
    290a:	8a e1       	ldi	r24, 0x1A	; 26
    290c:	80 93 ce 06 	sts	0x06CE, r24
    2910:	87 ec       	ldi	r24, 0xC7	; 199
    2912:	80 93 49 01 	sts	0x0149, r24
    2916:	8a e7       	ldi	r24, 0x7A	; 122
    2918:	80 93 48 01 	sts	0x0148, r24
    291c:	80 ec       	ldi	r24, 0xC0	; 192
    291e:	80 93 45 01 	sts	0x0145, r24
    2922:	88 e3       	ldi	r24, 0x38	; 56
    2924:	80 93 dc 00 	sts	0x00DC, r24
    2928:	80 91 39 01 	lds	r24, 0x0139
    292c:	82 60       	ori	r24, 0x02	; 2
    292e:	80 93 39 01 	sts	0x0139, r24
    2932:	81 e0       	ldi	r24, 0x01	; 1
    2934:	80 93 aa 05 	sts	0x05AA, r24
    2938:	20 91 df 02 	lds	r18, 0x02DF
    293c:	30 91 e0 02 	lds	r19, 0x02E0
    2940:	2f 5f       	subi	r18, 0xFF	; 255
    2942:	3f 4f       	sbci	r19, 0xFF	; 255
    2944:	c9 01       	movw	r24, r18
    2946:	aa 27       	eor	r26, r26
    2948:	bb 27       	eor	r27, r27
    294a:	21 50       	subi	r18, 0x01	; 1
    294c:	30 40       	sbci	r19, 0x00	; 0
    294e:	80 93 98 05 	sts	0x0598, r24
    2952:	90 93 99 05 	sts	0x0599, r25
    2956:	a0 93 9a 05 	sts	0x059A, r26
    295a:	b0 93 9b 05 	sts	0x059B, r27
    295e:	88 e3       	ldi	r24, 0x38	; 56
    2960:	96 e0       	ldi	r25, 0x06	; 6
    2962:	90 93 70 04 	sts	0x0470, r25
    2966:	80 93 6f 04 	sts	0x046F, r24
    296a:	c2 96       	adiw	r24, 0x32	; 50
    296c:	90 93 72 04 	sts	0x0472, r25
    2970:	80 93 71 04 	sts	0x0471, r24
    2974:	8c e9       	ldi	r24, 0x9C	; 156
    2976:	96 e0       	ldi	r25, 0x06	; 6
    2978:	90 93 74 04 	sts	0x0474, r25
    297c:	80 93 73 04 	sts	0x0473, r24
    2980:	8f ef       	ldi	r24, 0xFF	; 255
    2982:	9f ef       	ldi	r25, 0xFF	; 255
    2984:	90 93 20 06 	sts	0x0620, r25
    2988:	80 93 1f 06 	sts	0x061F, r24
    298c:	90 93 22 06 	sts	0x0622, r25
    2990:	80 93 21 06 	sts	0x0621, r24
    2994:	90 93 24 06 	sts	0x0624, r25
    2998:	80 93 23 06 	sts	0x0623, r24
    299c:	90 93 26 06 	sts	0x0626, r25
    29a0:	80 93 25 06 	sts	0x0625, r24
    29a4:	90 93 28 06 	sts	0x0628, r25
    29a8:	80 93 27 06 	sts	0x0627, r24
    29ac:	22 95       	swap	r18
    29ae:	20 7f       	andi	r18, 0xF0	; 240
    29b0:	20 93 6b 04 	sts	0x046B, r18
    29b4:	10 92 e3 05 	sts	0x05E3, r1
    29b8:	74 de       	rcall	.-792    	; 0x26a2 <RealMainP__Scheduler__runNextTask>
    29ba:	88 23       	and	r24, r24
    29bc:	e9 f7       	brne	.-6      	; 0x29b8 <main+0x300>
    29be:	81 2f       	mov	r24, r17
    29c0:	99 27       	eor	r25, r25
    29c2:	8f bf       	out	0x3f, r24	; 63
    29c4:	78 94       	sei
    29c6:	80 98       	cbi	0x10, 0	; 16
    29c8:	80 91 7e 00 	lds	r24, 0x007E
    29cc:	81 60       	ori	r24, 0x01	; 1
    29ce:	80 93 7e 00 	sts	0x007E, r24
    29d2:	44 ef       	ldi	r20, 0xF4	; 244
    29d4:	51 e0       	ldi	r21, 0x01	; 1
    29d6:	60 e0       	ldi	r22, 0x00	; 0
    29d8:	70 e0       	ldi	r23, 0x00	; 0
    29da:	80 e0       	ldi	r24, 0x00	; 0
    29dc:	0e 94 64 08 	call	0x10c8	; 0x10c8 <VirtualizeTimerC__0__Timer__startPeriodic>
    29e0:	40 e1       	ldi	r20, 0x10	; 16
    29e2:	57 e2       	ldi	r21, 0x27	; 39
    29e4:	60 e0       	ldi	r22, 0x00	; 0
    29e6:	70 e0       	ldi	r23, 0x00	; 0
    29e8:	81 e0       	ldi	r24, 0x01	; 1
    29ea:	0e 94 64 08 	call	0x10c8	; 0x10c8 <VirtualizeTimerC__0__Timer__startPeriodic>
    29ee:	48 e8       	ldi	r20, 0x88	; 136
    29f0:	53 e1       	ldi	r21, 0x13	; 19
    29f2:	60 e0       	ldi	r22, 0x00	; 0
    29f4:	70 e0       	ldi	r23, 0x00	; 0
    29f6:	82 e0       	ldi	r24, 0x02	; 2
    29f8:	0e 94 64 08 	call	0x10c8	; 0x10c8 <VirtualizeTimerC__0__Timer__startPeriodic>
    29fc:	8f b7       	in	r24, 0x3f	; 63
    29fe:	f8 94       	cli
    2a00:	c8 2f       	mov	r28, r24
    2a02:	dd 27       	eor	r29, r29
    2a04:	1a c0       	rjmp	.+52     	; 0x2a3a <main+0x382>
    2a06:	80 91 61 04 	lds	r24, 0x0461
    2a0a:	87 ff       	sbrs	r24, 7
    2a0c:	0d c0       	rjmp	.+26     	; 0x2a28 <main+0x370>
    2a0e:	80 91 7a 00 	lds	r24, 0x007A
    2a12:	80 91 dc 00 	lds	r24, 0x00DC
    2a16:	10 92 61 04 	sts	0x0461, r1
    2a1a:	83 b7       	in	r24, 0x33	; 51
    2a1c:	e0 e2       	ldi	r30, 0x20	; 32
    2a1e:	f1 e0       	ldi	r31, 0x01	; 1
    2a20:	e4 91       	lpm	r30, Z
    2a22:	80 7f       	andi	r24, 0xF0	; 240
    2a24:	8e 2b       	or	r24, r30
    2a26:	83 bf       	out	0x33, r24	; 51
    2a28:	83 b7       	in	r24, 0x33	; 51
    2a2a:	81 60       	ori	r24, 0x01	; 1
    2a2c:	83 bf       	out	0x33, r24	; 51
    2a2e:	78 94       	sei
    2a30:	88 95       	sleep
    2a32:	f8 94       	cli
    2a34:	83 b7       	in	r24, 0x33	; 51
    2a36:	8e 7f       	andi	r24, 0xFE	; 254
    2a38:	83 bf       	out	0x33, r24	; 51
    2a3a:	0e 94 86 02 	call	0x50c	; 0x50c <SchedulerBasicP__popTask>
    2a3e:	8f 3f       	cpi	r24, 0xFF	; 255
    2a40:	11 f3       	breq	.-60     	; 0x2a06 <main+0x34e>
    2a42:	cf bf       	out	0x3f, r28	; 63
    2a44:	30 da       	rcall	.-2976   	; 0x1ea6 <SchedulerBasicP__TaskBasic__runTask>
    2a46:	da cf       	rjmp	.-76     	; 0x29fc <main+0x344>

00002a48 <__subsf3>:
    2a48:	50 58       	subi	r21, 0x80	; 128

00002a4a <__addsf3>:
    2a4a:	bb 27       	eor	r27, r27
    2a4c:	aa 27       	eor	r26, r26
    2a4e:	0e d0       	rcall	.+28     	; 0x2a6c <__addsf3x>
    2a50:	e0 c0       	rjmp	.+448    	; 0x2c12 <__fp_round>
    2a52:	d1 d0       	rcall	.+418    	; 0x2bf6 <__fp_pscA>
    2a54:	30 f0       	brcs	.+12     	; 0x2a62 <__addsf3+0x18>
    2a56:	d6 d0       	rcall	.+428    	; 0x2c04 <__fp_pscB>
    2a58:	20 f0       	brcs	.+8      	; 0x2a62 <__addsf3+0x18>
    2a5a:	31 f4       	brne	.+12     	; 0x2a68 <__addsf3+0x1e>
    2a5c:	9f 3f       	cpi	r25, 0xFF	; 255
    2a5e:	11 f4       	brne	.+4      	; 0x2a64 <__addsf3+0x1a>
    2a60:	1e f4       	brtc	.+6      	; 0x2a68 <__addsf3+0x1e>
    2a62:	c6 c0       	rjmp	.+396    	; 0x2bf0 <__fp_nan>
    2a64:	0e f4       	brtc	.+2      	; 0x2a68 <__addsf3+0x1e>
    2a66:	e0 95       	com	r30
    2a68:	e7 fb       	bst	r30, 7
    2a6a:	bc c0       	rjmp	.+376    	; 0x2be4 <__fp_inf>

00002a6c <__addsf3x>:
    2a6c:	e9 2f       	mov	r30, r25
    2a6e:	e2 d0       	rcall	.+452    	; 0x2c34 <__fp_split3>
    2a70:	80 f3       	brcs	.-32     	; 0x2a52 <__addsf3+0x8>
    2a72:	ba 17       	cp	r27, r26
    2a74:	62 07       	cpc	r22, r18
    2a76:	73 07       	cpc	r23, r19
    2a78:	84 07       	cpc	r24, r20
    2a7a:	95 07       	cpc	r25, r21
    2a7c:	18 f0       	brcs	.+6      	; 0x2a84 <__addsf3x+0x18>
    2a7e:	71 f4       	brne	.+28     	; 0x2a9c <__addsf3x+0x30>
    2a80:	9e f5       	brtc	.+102    	; 0x2ae8 <__addsf3x+0x7c>
    2a82:	fa c0       	rjmp	.+500    	; 0x2c78 <__fp_zero>
    2a84:	0e f4       	brtc	.+2      	; 0x2a88 <__addsf3x+0x1c>
    2a86:	e0 95       	com	r30
    2a88:	0b 2e       	mov	r0, r27
    2a8a:	ba 2f       	mov	r27, r26
    2a8c:	a0 2d       	mov	r26, r0
    2a8e:	0b 01       	movw	r0, r22
    2a90:	b9 01       	movw	r22, r18
    2a92:	90 01       	movw	r18, r0
    2a94:	0c 01       	movw	r0, r24
    2a96:	ca 01       	movw	r24, r20
    2a98:	a0 01       	movw	r20, r0
    2a9a:	11 24       	eor	r1, r1
    2a9c:	ff 27       	eor	r31, r31
    2a9e:	59 1b       	sub	r21, r25
    2aa0:	99 f0       	breq	.+38     	; 0x2ac8 <__addsf3x+0x5c>
    2aa2:	59 3f       	cpi	r21, 0xF9	; 249
    2aa4:	50 f4       	brcc	.+20     	; 0x2aba <__addsf3x+0x4e>
    2aa6:	50 3e       	cpi	r21, 0xE0	; 224
    2aa8:	68 f1       	brcs	.+90     	; 0x2b04 <__addsf3x+0x98>
    2aaa:	1a 16       	cp	r1, r26
    2aac:	f0 40       	sbci	r31, 0x00	; 0
    2aae:	a2 2f       	mov	r26, r18
    2ab0:	23 2f       	mov	r18, r19
    2ab2:	34 2f       	mov	r19, r20
    2ab4:	44 27       	eor	r20, r20
    2ab6:	58 5f       	subi	r21, 0xF8	; 248
    2ab8:	f3 cf       	rjmp	.-26     	; 0x2aa0 <__addsf3x+0x34>
    2aba:	46 95       	lsr	r20
    2abc:	37 95       	ror	r19
    2abe:	27 95       	ror	r18
    2ac0:	a7 95       	ror	r26
    2ac2:	f0 40       	sbci	r31, 0x00	; 0
    2ac4:	53 95       	inc	r21
    2ac6:	c9 f7       	brne	.-14     	; 0x2aba <__addsf3x+0x4e>
    2ac8:	7e f4       	brtc	.+30     	; 0x2ae8 <__addsf3x+0x7c>
    2aca:	1f 16       	cp	r1, r31
    2acc:	ba 0b       	sbc	r27, r26
    2ace:	62 0b       	sbc	r22, r18
    2ad0:	73 0b       	sbc	r23, r19
    2ad2:	84 0b       	sbc	r24, r20
    2ad4:	ba f0       	brmi	.+46     	; 0x2b04 <__addsf3x+0x98>
    2ad6:	91 50       	subi	r25, 0x01	; 1
    2ad8:	a1 f0       	breq	.+40     	; 0x2b02 <__addsf3x+0x96>
    2ada:	ff 0f       	add	r31, r31
    2adc:	bb 1f       	adc	r27, r27
    2ade:	66 1f       	adc	r22, r22
    2ae0:	77 1f       	adc	r23, r23
    2ae2:	88 1f       	adc	r24, r24
    2ae4:	c2 f7       	brpl	.-16     	; 0x2ad6 <__addsf3x+0x6a>
    2ae6:	0e c0       	rjmp	.+28     	; 0x2b04 <__addsf3x+0x98>
    2ae8:	ba 0f       	add	r27, r26
    2aea:	62 1f       	adc	r22, r18
    2aec:	73 1f       	adc	r23, r19
    2aee:	84 1f       	adc	r24, r20
    2af0:	48 f4       	brcc	.+18     	; 0x2b04 <__addsf3x+0x98>
    2af2:	87 95       	ror	r24
    2af4:	77 95       	ror	r23
    2af6:	67 95       	ror	r22
    2af8:	b7 95       	ror	r27
    2afa:	f7 95       	ror	r31
    2afc:	9e 3f       	cpi	r25, 0xFE	; 254
    2afe:	08 f0       	brcs	.+2      	; 0x2b02 <__addsf3x+0x96>
    2b00:	b3 cf       	rjmp	.-154    	; 0x2a68 <__addsf3+0x1e>
    2b02:	93 95       	inc	r25
    2b04:	88 0f       	add	r24, r24
    2b06:	08 f0       	brcs	.+2      	; 0x2b0a <__addsf3x+0x9e>
    2b08:	99 27       	eor	r25, r25
    2b0a:	ee 0f       	add	r30, r30
    2b0c:	97 95       	ror	r25
    2b0e:	87 95       	ror	r24
    2b10:	08 95       	ret

00002b12 <__fixunssfsi>:
    2b12:	98 d0       	rcall	.+304    	; 0x2c44 <__fp_splitA>
    2b14:	88 f0       	brcs	.+34     	; 0x2b38 <__fixunssfsi+0x26>
    2b16:	9f 57       	subi	r25, 0x7F	; 127
    2b18:	90 f0       	brcs	.+36     	; 0x2b3e <__fixunssfsi+0x2c>
    2b1a:	b9 2f       	mov	r27, r25
    2b1c:	99 27       	eor	r25, r25
    2b1e:	b7 51       	subi	r27, 0x17	; 23
    2b20:	a0 f0       	brcs	.+40     	; 0x2b4a <__fixunssfsi+0x38>
    2b22:	d1 f0       	breq	.+52     	; 0x2b58 <__fixunssfsi+0x46>
    2b24:	66 0f       	add	r22, r22
    2b26:	77 1f       	adc	r23, r23
    2b28:	88 1f       	adc	r24, r24
    2b2a:	99 1f       	adc	r25, r25
    2b2c:	1a f0       	brmi	.+6      	; 0x2b34 <__fixunssfsi+0x22>
    2b2e:	ba 95       	dec	r27
    2b30:	c9 f7       	brne	.-14     	; 0x2b24 <__fixunssfsi+0x12>
    2b32:	12 c0       	rjmp	.+36     	; 0x2b58 <__fixunssfsi+0x46>
    2b34:	b1 30       	cpi	r27, 0x01	; 1
    2b36:	81 f0       	breq	.+32     	; 0x2b58 <__fixunssfsi+0x46>
    2b38:	9f d0       	rcall	.+318    	; 0x2c78 <__fp_zero>
    2b3a:	b1 e0       	ldi	r27, 0x01	; 1
    2b3c:	08 95       	ret
    2b3e:	9c c0       	rjmp	.+312    	; 0x2c78 <__fp_zero>
    2b40:	67 2f       	mov	r22, r23
    2b42:	78 2f       	mov	r23, r24
    2b44:	88 27       	eor	r24, r24
    2b46:	b8 5f       	subi	r27, 0xF8	; 248
    2b48:	39 f0       	breq	.+14     	; 0x2b58 <__fixunssfsi+0x46>
    2b4a:	b9 3f       	cpi	r27, 0xF9	; 249
    2b4c:	cc f3       	brlt	.-14     	; 0x2b40 <__fixunssfsi+0x2e>
    2b4e:	86 95       	lsr	r24
    2b50:	77 95       	ror	r23
    2b52:	67 95       	ror	r22
    2b54:	b3 95       	inc	r27
    2b56:	d9 f7       	brne	.-10     	; 0x2b4e <__fixunssfsi+0x3c>
    2b58:	3e f4       	brtc	.+14     	; 0x2b68 <__fixunssfsi+0x56>
    2b5a:	90 95       	com	r25
    2b5c:	80 95       	com	r24
    2b5e:	70 95       	com	r23
    2b60:	61 95       	neg	r22
    2b62:	7f 4f       	sbci	r23, 0xFF	; 255
    2b64:	8f 4f       	sbci	r24, 0xFF	; 255
    2b66:	9f 4f       	sbci	r25, 0xFF	; 255
    2b68:	08 95       	ret

00002b6a <__floatunsisf>:
    2b6a:	e8 94       	clt
    2b6c:	09 c0       	rjmp	.+18     	; 0x2b80 <__floatsisf+0x12>

00002b6e <__floatsisf>:
    2b6e:	97 fb       	bst	r25, 7
    2b70:	3e f4       	brtc	.+14     	; 0x2b80 <__floatsisf+0x12>
    2b72:	90 95       	com	r25
    2b74:	80 95       	com	r24
    2b76:	70 95       	com	r23
    2b78:	61 95       	neg	r22
    2b7a:	7f 4f       	sbci	r23, 0xFF	; 255
    2b7c:	8f 4f       	sbci	r24, 0xFF	; 255
    2b7e:	9f 4f       	sbci	r25, 0xFF	; 255
    2b80:	99 23       	and	r25, r25
    2b82:	a9 f0       	breq	.+42     	; 0x2bae <__floatsisf+0x40>
    2b84:	f9 2f       	mov	r31, r25
    2b86:	96 e9       	ldi	r25, 0x96	; 150
    2b88:	bb 27       	eor	r27, r27
    2b8a:	93 95       	inc	r25
    2b8c:	f6 95       	lsr	r31
    2b8e:	87 95       	ror	r24
    2b90:	77 95       	ror	r23
    2b92:	67 95       	ror	r22
    2b94:	b7 95       	ror	r27
    2b96:	f1 11       	cpse	r31, r1
    2b98:	f8 cf       	rjmp	.-16     	; 0x2b8a <__floatsisf+0x1c>
    2b9a:	fa f4       	brpl	.+62     	; 0x2bda <__floatsisf+0x6c>
    2b9c:	bb 0f       	add	r27, r27
    2b9e:	11 f4       	brne	.+4      	; 0x2ba4 <__floatsisf+0x36>
    2ba0:	60 ff       	sbrs	r22, 0
    2ba2:	1b c0       	rjmp	.+54     	; 0x2bda <__floatsisf+0x6c>
    2ba4:	6f 5f       	subi	r22, 0xFF	; 255
    2ba6:	7f 4f       	sbci	r23, 0xFF	; 255
    2ba8:	8f 4f       	sbci	r24, 0xFF	; 255
    2baa:	9f 4f       	sbci	r25, 0xFF	; 255
    2bac:	16 c0       	rjmp	.+44     	; 0x2bda <__floatsisf+0x6c>
    2bae:	88 23       	and	r24, r24
    2bb0:	11 f0       	breq	.+4      	; 0x2bb6 <__floatsisf+0x48>
    2bb2:	96 e9       	ldi	r25, 0x96	; 150
    2bb4:	11 c0       	rjmp	.+34     	; 0x2bd8 <__floatsisf+0x6a>
    2bb6:	77 23       	and	r23, r23
    2bb8:	21 f0       	breq	.+8      	; 0x2bc2 <__floatsisf+0x54>
    2bba:	9e e8       	ldi	r25, 0x8E	; 142
    2bbc:	87 2f       	mov	r24, r23
    2bbe:	76 2f       	mov	r23, r22
    2bc0:	05 c0       	rjmp	.+10     	; 0x2bcc <__floatsisf+0x5e>
    2bc2:	66 23       	and	r22, r22
    2bc4:	71 f0       	breq	.+28     	; 0x2be2 <__floatsisf+0x74>
    2bc6:	96 e8       	ldi	r25, 0x86	; 134
    2bc8:	86 2f       	mov	r24, r22
    2bca:	70 e0       	ldi	r23, 0x00	; 0
    2bcc:	60 e0       	ldi	r22, 0x00	; 0
    2bce:	2a f0       	brmi	.+10     	; 0x2bda <__floatsisf+0x6c>
    2bd0:	9a 95       	dec	r25
    2bd2:	66 0f       	add	r22, r22
    2bd4:	77 1f       	adc	r23, r23
    2bd6:	88 1f       	adc	r24, r24
    2bd8:	da f7       	brpl	.-10     	; 0x2bd0 <__floatsisf+0x62>
    2bda:	88 0f       	add	r24, r24
    2bdc:	96 95       	lsr	r25
    2bde:	87 95       	ror	r24
    2be0:	97 f9       	bld	r25, 7
    2be2:	08 95       	ret

00002be4 <__fp_inf>:
    2be4:	97 f9       	bld	r25, 7
    2be6:	9f 67       	ori	r25, 0x7F	; 127
    2be8:	80 e8       	ldi	r24, 0x80	; 128
    2bea:	70 e0       	ldi	r23, 0x00	; 0
    2bec:	60 e0       	ldi	r22, 0x00	; 0
    2bee:	08 95       	ret

00002bf0 <__fp_nan>:
    2bf0:	9f ef       	ldi	r25, 0xFF	; 255
    2bf2:	80 ec       	ldi	r24, 0xC0	; 192
    2bf4:	08 95       	ret

00002bf6 <__fp_pscA>:
    2bf6:	00 24       	eor	r0, r0
    2bf8:	0a 94       	dec	r0
    2bfa:	16 16       	cp	r1, r22
    2bfc:	17 06       	cpc	r1, r23
    2bfe:	18 06       	cpc	r1, r24
    2c00:	09 06       	cpc	r0, r25
    2c02:	08 95       	ret

00002c04 <__fp_pscB>:
    2c04:	00 24       	eor	r0, r0
    2c06:	0a 94       	dec	r0
    2c08:	12 16       	cp	r1, r18
    2c0a:	13 06       	cpc	r1, r19
    2c0c:	14 06       	cpc	r1, r20
    2c0e:	05 06       	cpc	r0, r21
    2c10:	08 95       	ret

00002c12 <__fp_round>:
    2c12:	09 2e       	mov	r0, r25
    2c14:	03 94       	inc	r0
    2c16:	00 0c       	add	r0, r0
    2c18:	11 f4       	brne	.+4      	; 0x2c1e <__fp_round+0xc>
    2c1a:	88 23       	and	r24, r24
    2c1c:	52 f0       	brmi	.+20     	; 0x2c32 <__fp_round+0x20>
    2c1e:	bb 0f       	add	r27, r27
    2c20:	40 f4       	brcc	.+16     	; 0x2c32 <__fp_round+0x20>
    2c22:	bf 2b       	or	r27, r31
    2c24:	11 f4       	brne	.+4      	; 0x2c2a <__fp_round+0x18>
    2c26:	60 ff       	sbrs	r22, 0
    2c28:	04 c0       	rjmp	.+8      	; 0x2c32 <__fp_round+0x20>
    2c2a:	6f 5f       	subi	r22, 0xFF	; 255
    2c2c:	7f 4f       	sbci	r23, 0xFF	; 255
    2c2e:	8f 4f       	sbci	r24, 0xFF	; 255
    2c30:	9f 4f       	sbci	r25, 0xFF	; 255
    2c32:	08 95       	ret

00002c34 <__fp_split3>:
    2c34:	57 fd       	sbrc	r21, 7
    2c36:	90 58       	subi	r25, 0x80	; 128
    2c38:	44 0f       	add	r20, r20
    2c3a:	55 1f       	adc	r21, r21
    2c3c:	59 f0       	breq	.+22     	; 0x2c54 <__fp_splitA+0x10>
    2c3e:	5f 3f       	cpi	r21, 0xFF	; 255
    2c40:	71 f0       	breq	.+28     	; 0x2c5e <__fp_splitA+0x1a>
    2c42:	47 95       	ror	r20

00002c44 <__fp_splitA>:
    2c44:	88 0f       	add	r24, r24
    2c46:	97 fb       	bst	r25, 7
    2c48:	99 1f       	adc	r25, r25
    2c4a:	61 f0       	breq	.+24     	; 0x2c64 <__fp_splitA+0x20>
    2c4c:	9f 3f       	cpi	r25, 0xFF	; 255
    2c4e:	79 f0       	breq	.+30     	; 0x2c6e <__fp_splitA+0x2a>
    2c50:	87 95       	ror	r24
    2c52:	08 95       	ret
    2c54:	12 16       	cp	r1, r18
    2c56:	13 06       	cpc	r1, r19
    2c58:	14 06       	cpc	r1, r20
    2c5a:	55 1f       	adc	r21, r21
    2c5c:	f2 cf       	rjmp	.-28     	; 0x2c42 <__fp_split3+0xe>
    2c5e:	46 95       	lsr	r20
    2c60:	f1 df       	rcall	.-30     	; 0x2c44 <__fp_splitA>
    2c62:	08 c0       	rjmp	.+16     	; 0x2c74 <__fp_splitA+0x30>
    2c64:	16 16       	cp	r1, r22
    2c66:	17 06       	cpc	r1, r23
    2c68:	18 06       	cpc	r1, r24
    2c6a:	99 1f       	adc	r25, r25
    2c6c:	f1 cf       	rjmp	.-30     	; 0x2c50 <__fp_splitA+0xc>
    2c6e:	86 95       	lsr	r24
    2c70:	71 05       	cpc	r23, r1
    2c72:	61 05       	cpc	r22, r1
    2c74:	08 94       	sec
    2c76:	08 95       	ret

00002c78 <__fp_zero>:
    2c78:	e8 94       	clt

00002c7a <__fp_szero>:
    2c7a:	bb 27       	eor	r27, r27
    2c7c:	66 27       	eor	r22, r22
    2c7e:	77 27       	eor	r23, r23
    2c80:	cb 01       	movw	r24, r22
    2c82:	97 f9       	bld	r25, 7
    2c84:	08 95       	ret

00002c86 <__mulsf3>:
    2c86:	0b d0       	rcall	.+22     	; 0x2c9e <__mulsf3x>
    2c88:	c4 cf       	rjmp	.-120    	; 0x2c12 <__fp_round>
    2c8a:	b5 df       	rcall	.-150    	; 0x2bf6 <__fp_pscA>
    2c8c:	28 f0       	brcs	.+10     	; 0x2c98 <__mulsf3+0x12>
    2c8e:	ba df       	rcall	.-140    	; 0x2c04 <__fp_pscB>
    2c90:	18 f0       	brcs	.+6      	; 0x2c98 <__mulsf3+0x12>
    2c92:	95 23       	and	r25, r21
    2c94:	09 f0       	breq	.+2      	; 0x2c98 <__mulsf3+0x12>
    2c96:	a6 cf       	rjmp	.-180    	; 0x2be4 <__fp_inf>
    2c98:	ab cf       	rjmp	.-170    	; 0x2bf0 <__fp_nan>
    2c9a:	11 24       	eor	r1, r1
    2c9c:	ee cf       	rjmp	.-36     	; 0x2c7a <__fp_szero>

00002c9e <__mulsf3x>:
    2c9e:	ca df       	rcall	.-108    	; 0x2c34 <__fp_split3>
    2ca0:	a0 f3       	brcs	.-24     	; 0x2c8a <__mulsf3+0x4>

00002ca2 <__mulsf3_pse>:
    2ca2:	95 9f       	mul	r25, r21
    2ca4:	d1 f3       	breq	.-12     	; 0x2c9a <__mulsf3+0x14>
    2ca6:	95 0f       	add	r25, r21
    2ca8:	50 e0       	ldi	r21, 0x00	; 0
    2caa:	55 1f       	adc	r21, r21
    2cac:	62 9f       	mul	r22, r18
    2cae:	f0 01       	movw	r30, r0
    2cb0:	72 9f       	mul	r23, r18
    2cb2:	bb 27       	eor	r27, r27
    2cb4:	f0 0d       	add	r31, r0
    2cb6:	b1 1d       	adc	r27, r1
    2cb8:	63 9f       	mul	r22, r19
    2cba:	aa 27       	eor	r26, r26
    2cbc:	f0 0d       	add	r31, r0
    2cbe:	b1 1d       	adc	r27, r1
    2cc0:	aa 1f       	adc	r26, r26
    2cc2:	64 9f       	mul	r22, r20
    2cc4:	66 27       	eor	r22, r22
    2cc6:	b0 0d       	add	r27, r0
    2cc8:	a1 1d       	adc	r26, r1
    2cca:	66 1f       	adc	r22, r22
    2ccc:	82 9f       	mul	r24, r18
    2cce:	22 27       	eor	r18, r18
    2cd0:	b0 0d       	add	r27, r0
    2cd2:	a1 1d       	adc	r26, r1
    2cd4:	62 1f       	adc	r22, r18
    2cd6:	73 9f       	mul	r23, r19
    2cd8:	b0 0d       	add	r27, r0
    2cda:	a1 1d       	adc	r26, r1
    2cdc:	62 1f       	adc	r22, r18
    2cde:	83 9f       	mul	r24, r19
    2ce0:	a0 0d       	add	r26, r0
    2ce2:	61 1d       	adc	r22, r1
    2ce4:	22 1f       	adc	r18, r18
    2ce6:	74 9f       	mul	r23, r20
    2ce8:	33 27       	eor	r19, r19
    2cea:	a0 0d       	add	r26, r0
    2cec:	61 1d       	adc	r22, r1
    2cee:	23 1f       	adc	r18, r19
    2cf0:	84 9f       	mul	r24, r20
    2cf2:	60 0d       	add	r22, r0
    2cf4:	21 1d       	adc	r18, r1
    2cf6:	82 2f       	mov	r24, r18
    2cf8:	76 2f       	mov	r23, r22
    2cfa:	6a 2f       	mov	r22, r26
    2cfc:	11 24       	eor	r1, r1
    2cfe:	9f 57       	subi	r25, 0x7F	; 127
    2d00:	50 40       	sbci	r21, 0x00	; 0
    2d02:	8a f0       	brmi	.+34     	; 0x2d26 <__mulsf3_pse+0x84>
    2d04:	e1 f0       	breq	.+56     	; 0x2d3e <__mulsf3_pse+0x9c>
    2d06:	88 23       	and	r24, r24
    2d08:	4a f0       	brmi	.+18     	; 0x2d1c <__mulsf3_pse+0x7a>
    2d0a:	ee 0f       	add	r30, r30
    2d0c:	ff 1f       	adc	r31, r31
    2d0e:	bb 1f       	adc	r27, r27
    2d10:	66 1f       	adc	r22, r22
    2d12:	77 1f       	adc	r23, r23
    2d14:	88 1f       	adc	r24, r24
    2d16:	91 50       	subi	r25, 0x01	; 1
    2d18:	50 40       	sbci	r21, 0x00	; 0
    2d1a:	a9 f7       	brne	.-22     	; 0x2d06 <__mulsf3_pse+0x64>
    2d1c:	9e 3f       	cpi	r25, 0xFE	; 254
    2d1e:	51 05       	cpc	r21, r1
    2d20:	70 f0       	brcs	.+28     	; 0x2d3e <__mulsf3_pse+0x9c>
    2d22:	60 cf       	rjmp	.-320    	; 0x2be4 <__fp_inf>
    2d24:	aa cf       	rjmp	.-172    	; 0x2c7a <__fp_szero>
    2d26:	5f 3f       	cpi	r21, 0xFF	; 255
    2d28:	ec f3       	brlt	.-6      	; 0x2d24 <__mulsf3_pse+0x82>
    2d2a:	98 3e       	cpi	r25, 0xE8	; 232
    2d2c:	dc f3       	brlt	.-10     	; 0x2d24 <__mulsf3_pse+0x82>
    2d2e:	86 95       	lsr	r24
    2d30:	77 95       	ror	r23
    2d32:	67 95       	ror	r22
    2d34:	b7 95       	ror	r27
    2d36:	f7 95       	ror	r31
    2d38:	e7 95       	ror	r30
    2d3a:	9f 5f       	subi	r25, 0xFF	; 255
    2d3c:	c1 f7       	brne	.-16     	; 0x2d2e <__mulsf3_pse+0x8c>
    2d3e:	fe 2b       	or	r31, r30
    2d40:	88 0f       	add	r24, r24
    2d42:	91 1d       	adc	r25, r1
    2d44:	96 95       	lsr	r25
    2d46:	87 95       	ror	r24
    2d48:	97 f9       	bld	r25, 7
    2d4a:	08 95       	ret

00002d4c <__udivmodhi4>:
    2d4c:	aa 1b       	sub	r26, r26
    2d4e:	bb 1b       	sub	r27, r27
    2d50:	51 e1       	ldi	r21, 0x11	; 17
    2d52:	07 c0       	rjmp	.+14     	; 0x2d62 <__udivmodhi4_ep>

00002d54 <__udivmodhi4_loop>:
    2d54:	aa 1f       	adc	r26, r26
    2d56:	bb 1f       	adc	r27, r27
    2d58:	a6 17       	cp	r26, r22
    2d5a:	b7 07       	cpc	r27, r23
    2d5c:	10 f0       	brcs	.+4      	; 0x2d62 <__udivmodhi4_ep>
    2d5e:	a6 1b       	sub	r26, r22
    2d60:	b7 0b       	sbc	r27, r23

00002d62 <__udivmodhi4_ep>:
    2d62:	88 1f       	adc	r24, r24
    2d64:	99 1f       	adc	r25, r25
    2d66:	5a 95       	dec	r21
    2d68:	a9 f7       	brne	.-22     	; 0x2d54 <__udivmodhi4_loop>
    2d6a:	80 95       	com	r24
    2d6c:	90 95       	com	r25
    2d6e:	bc 01       	movw	r22, r24
    2d70:	cd 01       	movw	r24, r26
    2d72:	08 95       	ret

00002d74 <__mulsi3>:
    2d74:	62 9f       	mul	r22, r18
    2d76:	d0 01       	movw	r26, r0
    2d78:	73 9f       	mul	r23, r19
    2d7a:	f0 01       	movw	r30, r0
    2d7c:	82 9f       	mul	r24, r18
    2d7e:	e0 0d       	add	r30, r0
    2d80:	f1 1d       	adc	r31, r1
    2d82:	64 9f       	mul	r22, r20
    2d84:	e0 0d       	add	r30, r0
    2d86:	f1 1d       	adc	r31, r1
    2d88:	92 9f       	mul	r25, r18
    2d8a:	f0 0d       	add	r31, r0
    2d8c:	83 9f       	mul	r24, r19
    2d8e:	f0 0d       	add	r31, r0
    2d90:	74 9f       	mul	r23, r20
    2d92:	f0 0d       	add	r31, r0
    2d94:	65 9f       	mul	r22, r21
    2d96:	f0 0d       	add	r31, r0
    2d98:	99 27       	eor	r25, r25
    2d9a:	72 9f       	mul	r23, r18
    2d9c:	b0 0d       	add	r27, r0
    2d9e:	e1 1d       	adc	r30, r1
    2da0:	f9 1f       	adc	r31, r25
    2da2:	63 9f       	mul	r22, r19
    2da4:	b0 0d       	add	r27, r0
    2da6:	e1 1d       	adc	r30, r1
    2da8:	f9 1f       	adc	r31, r25
    2daa:	bd 01       	movw	r22, r26
    2dac:	cf 01       	movw	r24, r30
    2dae:	11 24       	eor	r1, r1
    2db0:	08 95       	ret

00002db2 <__prologue_saves__>:
    2db2:	2f 92       	push	r2
    2db4:	3f 92       	push	r3
    2db6:	4f 92       	push	r4
    2db8:	5f 92       	push	r5
    2dba:	6f 92       	push	r6
    2dbc:	7f 92       	push	r7
    2dbe:	8f 92       	push	r8
    2dc0:	9f 92       	push	r9
    2dc2:	af 92       	push	r10
    2dc4:	bf 92       	push	r11
    2dc6:	cf 92       	push	r12
    2dc8:	df 92       	push	r13
    2dca:	ef 92       	push	r14
    2dcc:	ff 92       	push	r15
    2dce:	0f 93       	push	r16
    2dd0:	1f 93       	push	r17
    2dd2:	cf 93       	push	r28
    2dd4:	df 93       	push	r29
    2dd6:	cd b7       	in	r28, 0x3d	; 61
    2dd8:	de b7       	in	r29, 0x3e	; 62
    2dda:	ca 1b       	sub	r28, r26
    2ddc:	db 0b       	sbc	r29, r27
    2dde:	0f b6       	in	r0, 0x3f	; 63
    2de0:	f8 94       	cli
    2de2:	de bf       	out	0x3e, r29	; 62
    2de4:	0f be       	out	0x3f, r0	; 63
    2de6:	cd bf       	out	0x3d, r28	; 61
    2de8:	09 94       	ijmp

00002dea <__epilogue_restores__>:
    2dea:	2a 88       	ldd	r2, Y+18	; 0x12
    2dec:	39 88       	ldd	r3, Y+17	; 0x11
    2dee:	48 88       	ldd	r4, Y+16	; 0x10
    2df0:	5f 84       	ldd	r5, Y+15	; 0x0f
    2df2:	6e 84       	ldd	r6, Y+14	; 0x0e
    2df4:	7d 84       	ldd	r7, Y+13	; 0x0d
    2df6:	8c 84       	ldd	r8, Y+12	; 0x0c
    2df8:	9b 84       	ldd	r9, Y+11	; 0x0b
    2dfa:	aa 84       	ldd	r10, Y+10	; 0x0a
    2dfc:	b9 84       	ldd	r11, Y+9	; 0x09
    2dfe:	c8 84       	ldd	r12, Y+8	; 0x08
    2e00:	df 80       	ldd	r13, Y+7	; 0x07
    2e02:	ee 80       	ldd	r14, Y+6	; 0x06
    2e04:	fd 80       	ldd	r15, Y+5	; 0x05
    2e06:	0c 81       	ldd	r16, Y+4	; 0x04
    2e08:	1b 81       	ldd	r17, Y+3	; 0x03
    2e0a:	aa 81       	ldd	r26, Y+2	; 0x02
    2e0c:	b9 81       	ldd	r27, Y+1	; 0x01
    2e0e:	ce 0f       	add	r28, r30
    2e10:	d1 1d       	adc	r29, r1
    2e12:	0f b6       	in	r0, 0x3f	; 63
    2e14:	f8 94       	cli
    2e16:	de bf       	out	0x3e, r29	; 62
    2e18:	0f be       	out	0x3f, r0	; 63
    2e1a:	cd bf       	out	0x3d, r28	; 61
    2e1c:	ed 01       	movw	r28, r26
    2e1e:	08 95       	ret

00002e20 <memcpy>:
    2e20:	fb 01       	movw	r30, r22
    2e22:	dc 01       	movw	r26, r24
    2e24:	02 c0       	rjmp	.+4      	; 0x2e2a <memcpy+0xa>
    2e26:	01 90       	ld	r0, Z+
    2e28:	0d 92       	st	X+, r0
    2e2a:	41 50       	subi	r20, 0x01	; 1
    2e2c:	50 40       	sbci	r21, 0x00	; 0
    2e2e:	d8 f7       	brcc	.-10     	; 0x2e26 <memcpy+0x6>
    2e30:	08 95       	ret

00002e32 <memset>:
    2e32:	dc 01       	movw	r26, r24
    2e34:	01 c0       	rjmp	.+2      	; 0x2e38 <memset+0x6>
    2e36:	6d 93       	st	X+, r22
    2e38:	41 50       	subi	r20, 0x01	; 1
    2e3a:	50 40       	sbci	r21, 0x00	; 0
    2e3c:	e0 f7       	brcc	.-8      	; 0x2e36 <memset+0x4>
    2e3e:	08 95       	ret

00002e40 <strcmp>:
    2e40:	fb 01       	movw	r30, r22
    2e42:	dc 01       	movw	r26, r24
    2e44:	8d 91       	ld	r24, X+
    2e46:	01 90       	ld	r0, Z+
    2e48:	80 19       	sub	r24, r0
    2e4a:	01 10       	cpse	r0, r1
    2e4c:	d9 f3       	breq	.-10     	; 0x2e44 <strcmp+0x4>
    2e4e:	99 0b       	sbc	r25, r25
    2e50:	08 95       	ret

00002e52 <sprintf>:
    2e52:	a0 e1       	ldi	r26, 0x10	; 16
    2e54:	b0 e0       	ldi	r27, 0x00	; 0
    2e56:	ee e2       	ldi	r30, 0x2E	; 46
    2e58:	f7 e1       	ldi	r31, 0x17	; 23
    2e5a:	b9 cf       	rjmp	.-142    	; 0x2dce <__prologue_saves__+0x1c>
    2e5c:	0f 89       	ldd	r16, Y+23	; 0x17
    2e5e:	18 8d       	ldd	r17, Y+24	; 0x18
    2e60:	86 e0       	ldi	r24, 0x06	; 6
    2e62:	8e 83       	std	Y+6, r24	; 0x06
    2e64:	1c 83       	std	Y+4, r17	; 0x04
    2e66:	0b 83       	std	Y+3, r16	; 0x03
    2e68:	8f ef       	ldi	r24, 0xFF	; 255
    2e6a:	9f e7       	ldi	r25, 0x7F	; 127
    2e6c:	98 87       	std	Y+8, r25	; 0x08
    2e6e:	8f 83       	std	Y+7, r24	; 0x07
    2e70:	ae 01       	movw	r20, r28
    2e72:	45 5e       	subi	r20, 0xE5	; 229
    2e74:	5f 4f       	sbci	r21, 0xFF	; 255
    2e76:	5a 83       	std	Y+2, r21	; 0x02
    2e78:	49 83       	std	Y+1, r20	; 0x01
    2e7a:	69 8d       	ldd	r22, Y+25	; 0x19
    2e7c:	7a 8d       	ldd	r23, Y+26	; 0x1a
    2e7e:	ce 01       	movw	r24, r28
    2e80:	03 96       	adiw	r24, 0x03	; 3
    2e82:	09 d0       	rcall	.+18     	; 0x2e96 <vfprintf>
    2e84:	29 85       	ldd	r18, Y+9	; 0x09
    2e86:	3a 85       	ldd	r19, Y+10	; 0x0a
    2e88:	02 0f       	add	r16, r18
    2e8a:	13 1f       	adc	r17, r19
    2e8c:	f8 01       	movw	r30, r16
    2e8e:	10 82       	st	Z, r1
    2e90:	e4 e0       	ldi	r30, 0x04	; 4
    2e92:	60 96       	adiw	r28, 0x10	; 16
    2e94:	b8 cf       	rjmp	.-144    	; 0x2e06 <__epilogue_restores__+0x1c>

00002e96 <vfprintf>:
    2e96:	ab e0       	ldi	r26, 0x0B	; 11
    2e98:	b0 e0       	ldi	r27, 0x00	; 0
    2e9a:	e0 e5       	ldi	r30, 0x50	; 80
    2e9c:	f7 e1       	ldi	r31, 0x17	; 23
    2e9e:	8b cf       	rjmp	.-234    	; 0x2db6 <__prologue_saves__+0x4>
    2ea0:	3c 01       	movw	r6, r24
    2ea2:	4b 01       	movw	r8, r22
    2ea4:	6a 01       	movw	r12, r20
    2ea6:	fc 01       	movw	r30, r24
    2ea8:	17 82       	std	Z+7, r1	; 0x07
    2eaa:	16 82       	std	Z+6, r1	; 0x06
    2eac:	83 81       	ldd	r24, Z+3	; 0x03
    2eae:	81 fd       	sbrc	r24, 1
    2eb0:	03 c0       	rjmp	.+6      	; 0x2eb8 <vfprintf+0x22>
    2eb2:	8f ef       	ldi	r24, 0xFF	; 255
    2eb4:	9f ef       	ldi	r25, 0xFF	; 255
    2eb6:	cd c1       	rjmp	.+922    	; 0x3252 <vfprintf+0x3bc>
    2eb8:	f3 01       	movw	r30, r6
    2eba:	33 81       	ldd	r19, Z+3	; 0x03
    2ebc:	f4 01       	movw	r30, r8
    2ebe:	33 fd       	sbrc	r19, 3
    2ec0:	85 91       	lpm	r24, Z+
    2ec2:	33 ff       	sbrs	r19, 3
    2ec4:	81 91       	ld	r24, Z+
    2ec6:	4f 01       	movw	r8, r30
    2ec8:	88 23       	and	r24, r24
    2eca:	09 f4       	brne	.+2      	; 0x2ece <vfprintf+0x38>
    2ecc:	bf c1       	rjmp	.+894    	; 0x324c <vfprintf+0x3b6>
    2ece:	85 32       	cpi	r24, 0x25	; 37
    2ed0:	39 f4       	brne	.+14     	; 0x2ee0 <vfprintf+0x4a>
    2ed2:	33 fd       	sbrc	r19, 3
    2ed4:	85 91       	lpm	r24, Z+
    2ed6:	33 ff       	sbrs	r19, 3
    2ed8:	81 91       	ld	r24, Z+
    2eda:	4f 01       	movw	r8, r30
    2edc:	85 32       	cpi	r24, 0x25	; 37
    2ede:	21 f4       	brne	.+8      	; 0x2ee8 <vfprintf+0x52>
    2ee0:	b3 01       	movw	r22, r6
    2ee2:	99 27       	eor	r25, r25
    2ee4:	cf d1       	rcall	.+926    	; 0x3284 <fputc>
    2ee6:	e8 cf       	rjmp	.-48     	; 0x2eb8 <vfprintf+0x22>
    2ee8:	00 e0       	ldi	r16, 0x00	; 0
    2eea:	44 24       	eor	r4, r4
    2eec:	55 24       	eor	r5, r5
    2eee:	4a e0       	ldi	r20, 0x0A	; 10
    2ef0:	00 32       	cpi	r16, 0x20	; 32
    2ef2:	b0 f4       	brcc	.+44     	; 0x2f20 <vfprintf+0x8a>
    2ef4:	8b 32       	cpi	r24, 0x2B	; 43
    2ef6:	69 f0       	breq	.+26     	; 0x2f12 <vfprintf+0x7c>
    2ef8:	8c 32       	cpi	r24, 0x2C	; 44
    2efa:	28 f4       	brcc	.+10     	; 0x2f06 <vfprintf+0x70>
    2efc:	80 32       	cpi	r24, 0x20	; 32
    2efe:	51 f0       	breq	.+20     	; 0x2f14 <vfprintf+0x7e>
    2f00:	83 32       	cpi	r24, 0x23	; 35
    2f02:	71 f4       	brne	.+28     	; 0x2f20 <vfprintf+0x8a>
    2f04:	0b c0       	rjmp	.+22     	; 0x2f1c <vfprintf+0x86>
    2f06:	8d 32       	cpi	r24, 0x2D	; 45
    2f08:	39 f0       	breq	.+14     	; 0x2f18 <vfprintf+0x82>
    2f0a:	80 33       	cpi	r24, 0x30	; 48
    2f0c:	49 f4       	brne	.+18     	; 0x2f20 <vfprintf+0x8a>
    2f0e:	01 60       	ori	r16, 0x01	; 1
    2f10:	28 c0       	rjmp	.+80     	; 0x2f62 <vfprintf+0xcc>
    2f12:	02 60       	ori	r16, 0x02	; 2
    2f14:	04 60       	ori	r16, 0x04	; 4
    2f16:	25 c0       	rjmp	.+74     	; 0x2f62 <vfprintf+0xcc>
    2f18:	08 60       	ori	r16, 0x08	; 8
    2f1a:	23 c0       	rjmp	.+70     	; 0x2f62 <vfprintf+0xcc>
    2f1c:	00 61       	ori	r16, 0x10	; 16
    2f1e:	21 c0       	rjmp	.+66     	; 0x2f62 <vfprintf+0xcc>
    2f20:	07 fd       	sbrc	r16, 7
    2f22:	29 c0       	rjmp	.+82     	; 0x2f76 <vfprintf+0xe0>
    2f24:	28 2f       	mov	r18, r24
    2f26:	20 53       	subi	r18, 0x30	; 48
    2f28:	2a 30       	cpi	r18, 0x0A	; 10
    2f2a:	78 f4       	brcc	.+30     	; 0x2f4a <vfprintf+0xb4>
    2f2c:	06 ff       	sbrs	r16, 6
    2f2e:	06 c0       	rjmp	.+12     	; 0x2f3c <vfprintf+0xa6>
    2f30:	54 9e       	mul	r5, r20
    2f32:	c0 01       	movw	r24, r0
    2f34:	11 24       	eor	r1, r1
    2f36:	52 2e       	mov	r5, r18
    2f38:	58 0e       	add	r5, r24
    2f3a:	13 c0       	rjmp	.+38     	; 0x2f62 <vfprintf+0xcc>
    2f3c:	44 9e       	mul	r4, r20
    2f3e:	c0 01       	movw	r24, r0
    2f40:	11 24       	eor	r1, r1
    2f42:	42 2e       	mov	r4, r18
    2f44:	48 0e       	add	r4, r24
    2f46:	00 62       	ori	r16, 0x20	; 32
    2f48:	0c c0       	rjmp	.+24     	; 0x2f62 <vfprintf+0xcc>
    2f4a:	8e 32       	cpi	r24, 0x2E	; 46
    2f4c:	21 f4       	brne	.+8      	; 0x2f56 <vfprintf+0xc0>
    2f4e:	06 fd       	sbrc	r16, 6
    2f50:	7d c1       	rjmp	.+762    	; 0x324c <vfprintf+0x3b6>
    2f52:	00 64       	ori	r16, 0x40	; 64
    2f54:	06 c0       	rjmp	.+12     	; 0x2f62 <vfprintf+0xcc>
    2f56:	8c 36       	cpi	r24, 0x6C	; 108
    2f58:	11 f4       	brne	.+4      	; 0x2f5e <vfprintf+0xc8>
    2f5a:	00 68       	ori	r16, 0x80	; 128
    2f5c:	02 c0       	rjmp	.+4      	; 0x2f62 <vfprintf+0xcc>
    2f5e:	88 36       	cpi	r24, 0x68	; 104
    2f60:	51 f4       	brne	.+20     	; 0x2f76 <vfprintf+0xe0>
    2f62:	f4 01       	movw	r30, r8
    2f64:	33 fd       	sbrc	r19, 3
    2f66:	85 91       	lpm	r24, Z+
    2f68:	33 ff       	sbrs	r19, 3
    2f6a:	81 91       	ld	r24, Z+
    2f6c:	4f 01       	movw	r8, r30
    2f6e:	88 23       	and	r24, r24
    2f70:	09 f4       	brne	.+2      	; 0x2f74 <vfprintf+0xde>
    2f72:	6b c0       	rjmp	.+214    	; 0x304a <vfprintf+0x1b4>
    2f74:	bd cf       	rjmp	.-134    	; 0x2ef0 <vfprintf+0x5a>
    2f76:	98 2f       	mov	r25, r24
    2f78:	85 54       	subi	r24, 0x45	; 69
    2f7a:	83 30       	cpi	r24, 0x03	; 3
    2f7c:	18 f0       	brcs	.+6      	; 0x2f84 <vfprintf+0xee>
    2f7e:	80 52       	subi	r24, 0x20	; 32
    2f80:	83 30       	cpi	r24, 0x03	; 3
    2f82:	38 f4       	brcc	.+14     	; 0x2f92 <vfprintf+0xfc>
    2f84:	24 e0       	ldi	r18, 0x04	; 4
    2f86:	30 e0       	ldi	r19, 0x00	; 0
    2f88:	c2 0e       	add	r12, r18
    2f8a:	d3 1e       	adc	r13, r19
    2f8c:	8f e3       	ldi	r24, 0x3F	; 63
    2f8e:	89 83       	std	Y+1, r24	; 0x01
    2f90:	0f c0       	rjmp	.+30     	; 0x2fb0 <vfprintf+0x11a>
    2f92:	93 36       	cpi	r25, 0x63	; 99
    2f94:	31 f0       	breq	.+12     	; 0x2fa2 <vfprintf+0x10c>
    2f96:	93 37       	cpi	r25, 0x73	; 115
    2f98:	99 f0       	breq	.+38     	; 0x2fc0 <vfprintf+0x12a>
    2f9a:	93 35       	cpi	r25, 0x53	; 83
    2f9c:	09 f0       	breq	.+2      	; 0x2fa0 <vfprintf+0x10a>
    2f9e:	57 c0       	rjmp	.+174    	; 0x304e <vfprintf+0x1b8>
    2fa0:	22 c0       	rjmp	.+68     	; 0x2fe6 <vfprintf+0x150>
    2fa2:	f6 01       	movw	r30, r12
    2fa4:	80 81       	ld	r24, Z
    2fa6:	89 83       	std	Y+1, r24	; 0x01
    2fa8:	22 e0       	ldi	r18, 0x02	; 2
    2faa:	30 e0       	ldi	r19, 0x00	; 0
    2fac:	c2 0e       	add	r12, r18
    2fae:	d3 1e       	adc	r13, r19
    2fb0:	7e 01       	movw	r14, r28
    2fb2:	08 94       	sec
    2fb4:	e1 1c       	adc	r14, r1
    2fb6:	f1 1c       	adc	r15, r1
    2fb8:	51 e0       	ldi	r21, 0x01	; 1
    2fba:	a5 2e       	mov	r10, r21
    2fbc:	b1 2c       	mov	r11, r1
    2fbe:	11 c0       	rjmp	.+34     	; 0x2fe2 <vfprintf+0x14c>
    2fc0:	f6 01       	movw	r30, r12
    2fc2:	e0 80       	ld	r14, Z
    2fc4:	f1 80       	ldd	r15, Z+1	; 0x01
    2fc6:	06 fd       	sbrc	r16, 6
    2fc8:	03 c0       	rjmp	.+6      	; 0x2fd0 <vfprintf+0x13a>
    2fca:	6f ef       	ldi	r22, 0xFF	; 255
    2fcc:	7f ef       	ldi	r23, 0xFF	; 255
    2fce:	02 c0       	rjmp	.+4      	; 0x2fd4 <vfprintf+0x13e>
    2fd0:	65 2d       	mov	r22, r5
    2fd2:	77 27       	eor	r23, r23
    2fd4:	22 e0       	ldi	r18, 0x02	; 2
    2fd6:	30 e0       	ldi	r19, 0x00	; 0
    2fd8:	c2 0e       	add	r12, r18
    2fda:	d3 1e       	adc	r13, r19
    2fdc:	c7 01       	movw	r24, r14
    2fde:	47 d1       	rcall	.+654    	; 0x326e <strnlen>
    2fe0:	5c 01       	movw	r10, r24
    2fe2:	0f 77       	andi	r16, 0x7F	; 127
    2fe4:	12 c0       	rjmp	.+36     	; 0x300a <vfprintf+0x174>
    2fe6:	f6 01       	movw	r30, r12
    2fe8:	e0 80       	ld	r14, Z
    2fea:	f1 80       	ldd	r15, Z+1	; 0x01
    2fec:	06 fd       	sbrc	r16, 6
    2fee:	03 c0       	rjmp	.+6      	; 0x2ff6 <vfprintf+0x160>
    2ff0:	6f ef       	ldi	r22, 0xFF	; 255
    2ff2:	7f ef       	ldi	r23, 0xFF	; 255
    2ff4:	02 c0       	rjmp	.+4      	; 0x2ffa <vfprintf+0x164>
    2ff6:	65 2d       	mov	r22, r5
    2ff8:	77 27       	eor	r23, r23
    2ffa:	22 e0       	ldi	r18, 0x02	; 2
    2ffc:	30 e0       	ldi	r19, 0x00	; 0
    2ffe:	c2 0e       	add	r12, r18
    3000:	d3 1e       	adc	r13, r19
    3002:	c7 01       	movw	r24, r14
    3004:	29 d1       	rcall	.+594    	; 0x3258 <strnlen_P>
    3006:	5c 01       	movw	r10, r24
    3008:	00 68       	ori	r16, 0x80	; 128
    300a:	03 ff       	sbrs	r16, 3
    300c:	06 c0       	rjmp	.+12     	; 0x301a <vfprintf+0x184>
    300e:	19 c0       	rjmp	.+50     	; 0x3042 <vfprintf+0x1ac>
    3010:	b3 01       	movw	r22, r6
    3012:	80 e2       	ldi	r24, 0x20	; 32
    3014:	90 e0       	ldi	r25, 0x00	; 0
    3016:	36 d1       	rcall	.+620    	; 0x3284 <fputc>
    3018:	4a 94       	dec	r4
    301a:	84 2d       	mov	r24, r4
    301c:	99 27       	eor	r25, r25
    301e:	a8 16       	cp	r10, r24
    3020:	b9 06       	cpc	r11, r25
    3022:	b0 f3       	brcs	.-20     	; 0x3010 <vfprintf+0x17a>
    3024:	0e c0       	rjmp	.+28     	; 0x3042 <vfprintf+0x1ac>
    3026:	f7 01       	movw	r30, r14
    3028:	07 fd       	sbrc	r16, 7
    302a:	85 91       	lpm	r24, Z+
    302c:	07 ff       	sbrs	r16, 7
    302e:	81 91       	ld	r24, Z+
    3030:	7f 01       	movw	r14, r30
    3032:	b3 01       	movw	r22, r6
    3034:	99 27       	eor	r25, r25
    3036:	26 d1       	rcall	.+588    	; 0x3284 <fputc>
    3038:	41 10       	cpse	r4, r1
    303a:	4a 94       	dec	r4
    303c:	08 94       	sec
    303e:	a1 08       	sbc	r10, r1
    3040:	b1 08       	sbc	r11, r1
    3042:	a1 14       	cp	r10, r1
    3044:	b1 04       	cpc	r11, r1
    3046:	79 f7       	brne	.-34     	; 0x3026 <vfprintf+0x190>
    3048:	fe c0       	rjmp	.+508    	; 0x3246 <vfprintf+0x3b0>
    304a:	90 e0       	ldi	r25, 0x00	; 0
    304c:	3d c0       	rjmp	.+122    	; 0x30c8 <vfprintf+0x232>
    304e:	94 36       	cpi	r25, 0x64	; 100
    3050:	11 f0       	breq	.+4      	; 0x3056 <vfprintf+0x1c0>
    3052:	99 36       	cpi	r25, 0x69	; 105
    3054:	89 f5       	brne	.+98     	; 0x30b8 <vfprintf+0x222>
    3056:	07 ff       	sbrs	r16, 7
    3058:	0a c0       	rjmp	.+20     	; 0x306e <vfprintf+0x1d8>
    305a:	f6 01       	movw	r30, r12
    305c:	60 81       	ld	r22, Z
    305e:	71 81       	ldd	r23, Z+1	; 0x01
    3060:	82 81       	ldd	r24, Z+2	; 0x02
    3062:	93 81       	ldd	r25, Z+3	; 0x03
    3064:	24 e0       	ldi	r18, 0x04	; 4
    3066:	30 e0       	ldi	r19, 0x00	; 0
    3068:	c2 0e       	add	r12, r18
    306a:	d3 1e       	adc	r13, r19
    306c:	0d c0       	rjmp	.+26     	; 0x3088 <vfprintf+0x1f2>
    306e:	f6 01       	movw	r30, r12
    3070:	80 81       	ld	r24, Z
    3072:	91 81       	ldd	r25, Z+1	; 0x01
    3074:	9c 01       	movw	r18, r24
    3076:	b9 01       	movw	r22, r18
    3078:	88 27       	eor	r24, r24
    307a:	77 fd       	sbrc	r23, 7
    307c:	80 95       	com	r24
    307e:	98 2f       	mov	r25, r24
    3080:	42 e0       	ldi	r20, 0x02	; 2
    3082:	50 e0       	ldi	r21, 0x00	; 0
    3084:	c4 0e       	add	r12, r20
    3086:	d5 1e       	adc	r13, r21
    3088:	4f e6       	ldi	r20, 0x6F	; 111
    308a:	b4 2e       	mov	r11, r20
    308c:	b0 22       	and	r11, r16
    308e:	97 ff       	sbrs	r25, 7
    3090:	09 c0       	rjmp	.+18     	; 0x30a4 <vfprintf+0x20e>
    3092:	90 95       	com	r25
    3094:	80 95       	com	r24
    3096:	70 95       	com	r23
    3098:	61 95       	neg	r22
    309a:	7f 4f       	sbci	r23, 0xFF	; 255
    309c:	8f 4f       	sbci	r24, 0xFF	; 255
    309e:	9f 4f       	sbci	r25, 0xFF	; 255
    30a0:	50 e8       	ldi	r21, 0x80	; 128
    30a2:	b5 2a       	or	r11, r21
    30a4:	8e 01       	movw	r16, r28
    30a6:	0f 5f       	subi	r16, 0xFF	; 255
    30a8:	1f 4f       	sbci	r17, 0xFF	; 255
    30aa:	2a e0       	ldi	r18, 0x0A	; 10
    30ac:	30 e0       	ldi	r19, 0x00	; 0
    30ae:	a8 01       	movw	r20, r16
    30b0:	16 d1       	rcall	.+556    	; 0x32de <__ultoa_invert>
    30b2:	a8 2e       	mov	r10, r24
    30b4:	a0 1a       	sub	r10, r16
    30b6:	4c c0       	rjmp	.+152    	; 0x3150 <vfprintf+0x2ba>
    30b8:	95 37       	cpi	r25, 0x75	; 117
    30ba:	31 f4       	brne	.+12     	; 0x30c8 <vfprintf+0x232>
    30bc:	3f ee       	ldi	r19, 0xEF	; 239
    30be:	f3 2e       	mov	r15, r19
    30c0:	f0 22       	and	r15, r16
    30c2:	2a e0       	ldi	r18, 0x0A	; 10
    30c4:	30 e0       	ldi	r19, 0x00	; 0
    30c6:	23 c0       	rjmp	.+70     	; 0x310e <vfprintf+0x278>
    30c8:	29 ef       	ldi	r18, 0xF9	; 249
    30ca:	f2 2e       	mov	r15, r18
    30cc:	f0 22       	and	r15, r16
    30ce:	9f 36       	cpi	r25, 0x6F	; 111
    30d0:	61 f0       	breq	.+24     	; 0x30ea <vfprintf+0x254>
    30d2:	90 37       	cpi	r25, 0x70	; 112
    30d4:	20 f4       	brcc	.+8      	; 0x30de <vfprintf+0x248>
    30d6:	98 35       	cpi	r25, 0x58	; 88
    30d8:	09 f0       	breq	.+2      	; 0x30dc <vfprintf+0x246>
    30da:	b8 c0       	rjmp	.+368    	; 0x324c <vfprintf+0x3b6>
    30dc:	12 c0       	rjmp	.+36     	; 0x3102 <vfprintf+0x26c>
    30de:	90 37       	cpi	r25, 0x70	; 112
    30e0:	39 f0       	breq	.+14     	; 0x30f0 <vfprintf+0x25a>
    30e2:	98 37       	cpi	r25, 0x78	; 120
    30e4:	09 f0       	breq	.+2      	; 0x30e8 <vfprintf+0x252>
    30e6:	b2 c0       	rjmp	.+356    	; 0x324c <vfprintf+0x3b6>
    30e8:	05 c0       	rjmp	.+10     	; 0x30f4 <vfprintf+0x25e>
    30ea:	28 e0       	ldi	r18, 0x08	; 8
    30ec:	30 e0       	ldi	r19, 0x00	; 0
    30ee:	0f c0       	rjmp	.+30     	; 0x310e <vfprintf+0x278>
    30f0:	80 e1       	ldi	r24, 0x10	; 16
    30f2:	f8 2a       	or	r15, r24
    30f4:	f4 fe       	sbrs	r15, 4
    30f6:	02 c0       	rjmp	.+4      	; 0x30fc <vfprintf+0x266>
    30f8:	94 e0       	ldi	r25, 0x04	; 4
    30fa:	f9 2a       	or	r15, r25
    30fc:	20 e1       	ldi	r18, 0x10	; 16
    30fe:	30 e0       	ldi	r19, 0x00	; 0
    3100:	06 c0       	rjmp	.+12     	; 0x310e <vfprintf+0x278>
    3102:	f4 fe       	sbrs	r15, 4
    3104:	02 c0       	rjmp	.+4      	; 0x310a <vfprintf+0x274>
    3106:	e6 e0       	ldi	r30, 0x06	; 6
    3108:	fe 2a       	or	r15, r30
    310a:	20 e1       	ldi	r18, 0x10	; 16
    310c:	32 e0       	ldi	r19, 0x02	; 2
    310e:	f7 fe       	sbrs	r15, 7
    3110:	0a c0       	rjmp	.+20     	; 0x3126 <vfprintf+0x290>
    3112:	f6 01       	movw	r30, r12
    3114:	60 81       	ld	r22, Z
    3116:	71 81       	ldd	r23, Z+1	; 0x01
    3118:	82 81       	ldd	r24, Z+2	; 0x02
    311a:	93 81       	ldd	r25, Z+3	; 0x03
    311c:	44 e0       	ldi	r20, 0x04	; 4
    311e:	50 e0       	ldi	r21, 0x00	; 0
    3120:	c4 0e       	add	r12, r20
    3122:	d5 1e       	adc	r13, r21
    3124:	0b c0       	rjmp	.+22     	; 0x313c <vfprintf+0x2a6>
    3126:	f6 01       	movw	r30, r12
    3128:	80 81       	ld	r24, Z
    312a:	91 81       	ldd	r25, Z+1	; 0x01
    312c:	ac 01       	movw	r20, r24
    312e:	ba 01       	movw	r22, r20
    3130:	88 27       	eor	r24, r24
    3132:	99 27       	eor	r25, r25
    3134:	e2 e0       	ldi	r30, 0x02	; 2
    3136:	f0 e0       	ldi	r31, 0x00	; 0
    3138:	ce 0e       	add	r12, r30
    313a:	df 1e       	adc	r13, r31
    313c:	8e 01       	movw	r16, r28
    313e:	0f 5f       	subi	r16, 0xFF	; 255
    3140:	1f 4f       	sbci	r17, 0xFF	; 255
    3142:	a8 01       	movw	r20, r16
    3144:	cc d0       	rcall	.+408    	; 0x32de <__ultoa_invert>
    3146:	a8 2e       	mov	r10, r24
    3148:	a0 1a       	sub	r10, r16
    314a:	8f e7       	ldi	r24, 0x7F	; 127
    314c:	b8 2e       	mov	r11, r24
    314e:	bf 20       	and	r11, r15
    3150:	b6 fe       	sbrs	r11, 6
    3152:	10 c0       	rjmp	.+32     	; 0x3174 <vfprintf+0x2de>
    3154:	fe ef       	ldi	r31, 0xFE	; 254
    3156:	bf 22       	and	r11, r31
    3158:	a5 14       	cp	r10, r5
    315a:	60 f4       	brcc	.+24     	; 0x3174 <vfprintf+0x2de>
    315c:	2b 2d       	mov	r18, r11
    315e:	33 27       	eor	r19, r19
    3160:	24 ff       	sbrs	r18, 4
    3162:	1a c0       	rjmp	.+52     	; 0x3198 <vfprintf+0x302>
    3164:	22 ff       	sbrs	r18, 2
    3166:	02 c0       	rjmp	.+4      	; 0x316c <vfprintf+0x2d6>
    3168:	05 2d       	mov	r16, r5
    316a:	09 c0       	rjmp	.+18     	; 0x317e <vfprintf+0x2e8>
    316c:	2f ee       	ldi	r18, 0xEF	; 239
    316e:	b2 22       	and	r11, r18
    3170:	05 2d       	mov	r16, r5
    3172:	01 c0       	rjmp	.+2      	; 0x3176 <vfprintf+0x2e0>
    3174:	0a 2d       	mov	r16, r10
    3176:	2b 2d       	mov	r18, r11
    3178:	33 27       	eor	r19, r19
    317a:	24 ff       	sbrs	r18, 4
    317c:	0e c0       	rjmp	.+28     	; 0x319a <vfprintf+0x304>
    317e:	fe 01       	movw	r30, r28
    3180:	ea 0d       	add	r30, r10
    3182:	f1 1d       	adc	r31, r1
    3184:	80 81       	ld	r24, Z
    3186:	80 33       	cpi	r24, 0x30	; 48
    3188:	19 f4       	brne	.+6      	; 0x3190 <vfprintf+0x2fa>
    318a:	39 ee       	ldi	r19, 0xE9	; 233
    318c:	b3 22       	and	r11, r19
    318e:	09 c0       	rjmp	.+18     	; 0x31a2 <vfprintf+0x30c>
    3190:	0f 5f       	subi	r16, 0xFF	; 255
    3192:	22 ff       	sbrs	r18, 2
    3194:	06 c0       	rjmp	.+12     	; 0x31a2 <vfprintf+0x30c>
    3196:	04 c0       	rjmp	.+8      	; 0x31a0 <vfprintf+0x30a>
    3198:	05 2d       	mov	r16, r5
    319a:	82 2f       	mov	r24, r18
    319c:	86 78       	andi	r24, 0x86	; 134
    319e:	09 f0       	breq	.+2      	; 0x31a2 <vfprintf+0x30c>
    31a0:	0f 5f       	subi	r16, 0xFF	; 255
    31a2:	eb 2c       	mov	r14, r11
    31a4:	ff 24       	eor	r15, r15
    31a6:	e3 fc       	sbrc	r14, 3
    31a8:	13 c0       	rjmp	.+38     	; 0x31d0 <vfprintf+0x33a>
    31aa:	e0 fe       	sbrs	r14, 0
    31ac:	0e c0       	rjmp	.+28     	; 0x31ca <vfprintf+0x334>
    31ae:	04 15       	cp	r16, r4
    31b0:	10 f0       	brcs	.+4      	; 0x31b6 <vfprintf+0x320>
    31b2:	5a 2c       	mov	r5, r10
    31b4:	0a c0       	rjmp	.+20     	; 0x31ca <vfprintf+0x334>
    31b6:	54 2c       	mov	r5, r4
    31b8:	50 1a       	sub	r5, r16
    31ba:	5a 0c       	add	r5, r10
    31bc:	04 2d       	mov	r16, r4
    31be:	05 c0       	rjmp	.+10     	; 0x31ca <vfprintf+0x334>
    31c0:	b3 01       	movw	r22, r6
    31c2:	80 e2       	ldi	r24, 0x20	; 32
    31c4:	90 e0       	ldi	r25, 0x00	; 0
    31c6:	5e d0       	rcall	.+188    	; 0x3284 <fputc>
    31c8:	0f 5f       	subi	r16, 0xFF	; 255
    31ca:	04 15       	cp	r16, r4
    31cc:	c8 f3       	brcs	.-14     	; 0x31c0 <vfprintf+0x32a>
    31ce:	04 c0       	rjmp	.+8      	; 0x31d8 <vfprintf+0x342>
    31d0:	04 15       	cp	r16, r4
    31d2:	10 f4       	brcc	.+4      	; 0x31d8 <vfprintf+0x342>
    31d4:	40 1a       	sub	r4, r16
    31d6:	01 c0       	rjmp	.+2      	; 0x31da <vfprintf+0x344>
    31d8:	44 24       	eor	r4, r4
    31da:	e4 fe       	sbrs	r14, 4
    31dc:	0f c0       	rjmp	.+30     	; 0x31fc <vfprintf+0x366>
    31de:	b3 01       	movw	r22, r6
    31e0:	80 e3       	ldi	r24, 0x30	; 48
    31e2:	90 e0       	ldi	r25, 0x00	; 0
    31e4:	4f d0       	rcall	.+158    	; 0x3284 <fputc>
    31e6:	e2 fe       	sbrs	r14, 2
    31e8:	1c c0       	rjmp	.+56     	; 0x3222 <vfprintf+0x38c>
    31ea:	e1 fe       	sbrs	r14, 1
    31ec:	03 c0       	rjmp	.+6      	; 0x31f4 <vfprintf+0x35e>
    31ee:	88 e5       	ldi	r24, 0x58	; 88
    31f0:	90 e0       	ldi	r25, 0x00	; 0
    31f2:	02 c0       	rjmp	.+4      	; 0x31f8 <vfprintf+0x362>
    31f4:	88 e7       	ldi	r24, 0x78	; 120
    31f6:	90 e0       	ldi	r25, 0x00	; 0
    31f8:	b3 01       	movw	r22, r6
    31fa:	0c c0       	rjmp	.+24     	; 0x3214 <vfprintf+0x37e>
    31fc:	8e 2d       	mov	r24, r14
    31fe:	86 78       	andi	r24, 0x86	; 134
    3200:	81 f0       	breq	.+32     	; 0x3222 <vfprintf+0x38c>
    3202:	e1 fe       	sbrs	r14, 1
    3204:	02 c0       	rjmp	.+4      	; 0x320a <vfprintf+0x374>
    3206:	8b e2       	ldi	r24, 0x2B	; 43
    3208:	01 c0       	rjmp	.+2      	; 0x320c <vfprintf+0x376>
    320a:	80 e2       	ldi	r24, 0x20	; 32
    320c:	b7 fc       	sbrc	r11, 7
    320e:	8d e2       	ldi	r24, 0x2D	; 45
    3210:	b3 01       	movw	r22, r6
    3212:	99 27       	eor	r25, r25
    3214:	37 d0       	rcall	.+110    	; 0x3284 <fputc>
    3216:	05 c0       	rjmp	.+10     	; 0x3222 <vfprintf+0x38c>
    3218:	b3 01       	movw	r22, r6
    321a:	80 e3       	ldi	r24, 0x30	; 48
    321c:	90 e0       	ldi	r25, 0x00	; 0
    321e:	32 d0       	rcall	.+100    	; 0x3284 <fputc>
    3220:	5a 94       	dec	r5
    3222:	a5 14       	cp	r10, r5
    3224:	c8 f3       	brcs	.-14     	; 0x3218 <vfprintf+0x382>
    3226:	aa 94       	dec	r10
    3228:	fe 01       	movw	r30, r28
    322a:	ea 0d       	add	r30, r10
    322c:	f1 1d       	adc	r31, r1
    322e:	81 81       	ldd	r24, Z+1	; 0x01
    3230:	b3 01       	movw	r22, r6
    3232:	99 27       	eor	r25, r25
    3234:	27 d0       	rcall	.+78     	; 0x3284 <fputc>
    3236:	aa 20       	and	r10, r10
    3238:	31 f0       	breq	.+12     	; 0x3246 <vfprintf+0x3b0>
    323a:	f5 cf       	rjmp	.-22     	; 0x3226 <vfprintf+0x390>
    323c:	b3 01       	movw	r22, r6
    323e:	80 e2       	ldi	r24, 0x20	; 32
    3240:	90 e0       	ldi	r25, 0x00	; 0
    3242:	20 d0       	rcall	.+64     	; 0x3284 <fputc>
    3244:	4a 94       	dec	r4
    3246:	44 20       	and	r4, r4
    3248:	c9 f7       	brne	.-14     	; 0x323c <vfprintf+0x3a6>
    324a:	36 ce       	rjmp	.-916    	; 0x2eb8 <vfprintf+0x22>
    324c:	f3 01       	movw	r30, r6
    324e:	86 81       	ldd	r24, Z+6	; 0x06
    3250:	97 81       	ldd	r25, Z+7	; 0x07
    3252:	e0 e1       	ldi	r30, 0x10	; 16
    3254:	2b 96       	adiw	r28, 0x0b	; 11
    3256:	cb cd       	rjmp	.-1130   	; 0x2dee <__epilogue_restores__+0x4>

00003258 <strnlen_P>:
    3258:	fc 01       	movw	r30, r24
    325a:	05 90       	lpm	r0, Z+
    325c:	61 50       	subi	r22, 0x01	; 1
    325e:	70 40       	sbci	r23, 0x00	; 0
    3260:	01 10       	cpse	r0, r1
    3262:	d8 f7       	brcc	.-10     	; 0x325a <strnlen_P+0x2>
    3264:	80 95       	com	r24
    3266:	90 95       	com	r25
    3268:	8e 0f       	add	r24, r30
    326a:	9f 1f       	adc	r25, r31
    326c:	08 95       	ret

0000326e <strnlen>:
    326e:	fc 01       	movw	r30, r24
    3270:	61 50       	subi	r22, 0x01	; 1
    3272:	70 40       	sbci	r23, 0x00	; 0
    3274:	01 90       	ld	r0, Z+
    3276:	01 10       	cpse	r0, r1
    3278:	d8 f7       	brcc	.-10     	; 0x3270 <strnlen+0x2>
    327a:	80 95       	com	r24
    327c:	90 95       	com	r25
    327e:	8e 0f       	add	r24, r30
    3280:	9f 1f       	adc	r25, r31
    3282:	08 95       	ret

00003284 <fputc>:
    3284:	0f 93       	push	r16
    3286:	1f 93       	push	r17
    3288:	cf 93       	push	r28
    328a:	df 93       	push	r29
    328c:	8c 01       	movw	r16, r24
    328e:	eb 01       	movw	r28, r22
    3290:	8b 81       	ldd	r24, Y+3	; 0x03
    3292:	99 27       	eor	r25, r25
    3294:	81 ff       	sbrs	r24, 1
    3296:	1b c0       	rjmp	.+54     	; 0x32ce <fputc+0x4a>
    3298:	82 ff       	sbrs	r24, 2
    329a:	0d c0       	rjmp	.+26     	; 0x32b6 <fputc+0x32>
    329c:	2e 81       	ldd	r18, Y+6	; 0x06
    329e:	3f 81       	ldd	r19, Y+7	; 0x07
    32a0:	8c 81       	ldd	r24, Y+4	; 0x04
    32a2:	9d 81       	ldd	r25, Y+5	; 0x05
    32a4:	28 17       	cp	r18, r24
    32a6:	39 07       	cpc	r19, r25
    32a8:	64 f4       	brge	.+24     	; 0x32c2 <fputc+0x3e>
    32aa:	e8 81       	ld	r30, Y
    32ac:	f9 81       	ldd	r31, Y+1	; 0x01
    32ae:	01 93       	st	Z+, r16
    32b0:	f9 83       	std	Y+1, r31	; 0x01
    32b2:	e8 83       	st	Y, r30
    32b4:	06 c0       	rjmp	.+12     	; 0x32c2 <fputc+0x3e>
    32b6:	e8 85       	ldd	r30, Y+8	; 0x08
    32b8:	f9 85       	ldd	r31, Y+9	; 0x09
    32ba:	80 2f       	mov	r24, r16
    32bc:	09 95       	icall
    32be:	89 2b       	or	r24, r25
    32c0:	31 f4       	brne	.+12     	; 0x32ce <fputc+0x4a>
    32c2:	8e 81       	ldd	r24, Y+6	; 0x06
    32c4:	9f 81       	ldd	r25, Y+7	; 0x07
    32c6:	01 96       	adiw	r24, 0x01	; 1
    32c8:	9f 83       	std	Y+7, r25	; 0x07
    32ca:	8e 83       	std	Y+6, r24	; 0x06
    32cc:	02 c0       	rjmp	.+4      	; 0x32d2 <fputc+0x4e>
    32ce:	0f ef       	ldi	r16, 0xFF	; 255
    32d0:	1f ef       	ldi	r17, 0xFF	; 255
    32d2:	c8 01       	movw	r24, r16
    32d4:	df 91       	pop	r29
    32d6:	cf 91       	pop	r28
    32d8:	1f 91       	pop	r17
    32da:	0f 91       	pop	r16
    32dc:	08 95       	ret

000032de <__ultoa_invert>:
    32de:	fa 01       	movw	r30, r20
    32e0:	aa 27       	eor	r26, r26
    32e2:	28 30       	cpi	r18, 0x08	; 8
    32e4:	51 f1       	breq	.+84     	; 0x333a <__ultoa_invert+0x5c>
    32e6:	20 31       	cpi	r18, 0x10	; 16
    32e8:	81 f1       	breq	.+96     	; 0x334a <__ultoa_invert+0x6c>
    32ea:	e8 94       	clt
    32ec:	6f 93       	push	r22
    32ee:	6e 7f       	andi	r22, 0xFE	; 254
    32f0:	6e 5f       	subi	r22, 0xFE	; 254
    32f2:	7f 4f       	sbci	r23, 0xFF	; 255
    32f4:	8f 4f       	sbci	r24, 0xFF	; 255
    32f6:	9f 4f       	sbci	r25, 0xFF	; 255
    32f8:	af 4f       	sbci	r26, 0xFF	; 255
    32fa:	b1 e0       	ldi	r27, 0x01	; 1
    32fc:	3e d0       	rcall	.+124    	; 0x337a <__ultoa_invert+0x9c>
    32fe:	b4 e0       	ldi	r27, 0x04	; 4
    3300:	3c d0       	rcall	.+120    	; 0x337a <__ultoa_invert+0x9c>
    3302:	67 0f       	add	r22, r23
    3304:	78 1f       	adc	r23, r24
    3306:	89 1f       	adc	r24, r25
    3308:	9a 1f       	adc	r25, r26
    330a:	a1 1d       	adc	r26, r1
    330c:	68 0f       	add	r22, r24
    330e:	79 1f       	adc	r23, r25
    3310:	8a 1f       	adc	r24, r26
    3312:	91 1d       	adc	r25, r1
    3314:	a1 1d       	adc	r26, r1
    3316:	6a 0f       	add	r22, r26
    3318:	71 1d       	adc	r23, r1
    331a:	81 1d       	adc	r24, r1
    331c:	91 1d       	adc	r25, r1
    331e:	a1 1d       	adc	r26, r1
    3320:	20 d0       	rcall	.+64     	; 0x3362 <__ultoa_invert+0x84>
    3322:	09 f4       	brne	.+2      	; 0x3326 <__ultoa_invert+0x48>
    3324:	68 94       	set
    3326:	3f 91       	pop	r19
    3328:	2a e0       	ldi	r18, 0x0A	; 10
    332a:	26 9f       	mul	r18, r22
    332c:	11 24       	eor	r1, r1
    332e:	30 19       	sub	r19, r0
    3330:	30 5d       	subi	r19, 0xD0	; 208
    3332:	31 93       	st	Z+, r19
    3334:	de f6       	brtc	.-74     	; 0x32ec <__ultoa_invert+0xe>
    3336:	cf 01       	movw	r24, r30
    3338:	08 95       	ret
    333a:	46 2f       	mov	r20, r22
    333c:	47 70       	andi	r20, 0x07	; 7
    333e:	40 5d       	subi	r20, 0xD0	; 208
    3340:	41 93       	st	Z+, r20
    3342:	b3 e0       	ldi	r27, 0x03	; 3
    3344:	0f d0       	rcall	.+30     	; 0x3364 <__ultoa_invert+0x86>
    3346:	c9 f7       	brne	.-14     	; 0x333a <__ultoa_invert+0x5c>
    3348:	f6 cf       	rjmp	.-20     	; 0x3336 <__ultoa_invert+0x58>
    334a:	46 2f       	mov	r20, r22
    334c:	4f 70       	andi	r20, 0x0F	; 15
    334e:	40 5d       	subi	r20, 0xD0	; 208
    3350:	4a 33       	cpi	r20, 0x3A	; 58
    3352:	18 f0       	brcs	.+6      	; 0x335a <__ultoa_invert+0x7c>
    3354:	49 5d       	subi	r20, 0xD9	; 217
    3356:	31 fd       	sbrc	r19, 1
    3358:	40 52       	subi	r20, 0x20	; 32
    335a:	41 93       	st	Z+, r20
    335c:	02 d0       	rcall	.+4      	; 0x3362 <__ultoa_invert+0x84>
    335e:	a9 f7       	brne	.-22     	; 0x334a <__ultoa_invert+0x6c>
    3360:	ea cf       	rjmp	.-44     	; 0x3336 <__ultoa_invert+0x58>
    3362:	b4 e0       	ldi	r27, 0x04	; 4
    3364:	a6 95       	lsr	r26
    3366:	97 95       	ror	r25
    3368:	87 95       	ror	r24
    336a:	77 95       	ror	r23
    336c:	67 95       	ror	r22
    336e:	ba 95       	dec	r27
    3370:	c9 f7       	brne	.-14     	; 0x3364 <__ultoa_invert+0x86>
    3372:	00 97       	sbiw	r24, 0x00	; 0
    3374:	61 05       	cpc	r22, r1
    3376:	71 05       	cpc	r23, r1
    3378:	08 95       	ret
    337a:	9b 01       	movw	r18, r22
    337c:	ac 01       	movw	r20, r24
    337e:	0a 2e       	mov	r0, r26
    3380:	06 94       	lsr	r0
    3382:	57 95       	ror	r21
    3384:	47 95       	ror	r20
    3386:	37 95       	ror	r19
    3388:	27 95       	ror	r18
    338a:	ba 95       	dec	r27
    338c:	c9 f7       	brne	.-14     	; 0x3380 <__ultoa_invert+0xa2>
    338e:	62 0f       	add	r22, r18
    3390:	73 1f       	adc	r23, r19
    3392:	84 1f       	adc	r24, r20
    3394:	95 1f       	adc	r25, r21
    3396:	a0 1d       	adc	r26, r0
    3398:	08 95       	ret

0000339a <_exit>:
    339a:	ff cf       	rjmp	.-2      	; 0x339a <_exit>
