
main.elf:     file format elf32-avr

Sections:
Idx Name          Size      VMA       LMA       File off  Algn
  0 .data         0000006c  00800200  00000b08  00000b9c  2**0
                  CONTENTS, ALLOC, LOAD, DATA
  1 .text         00000b08  00000000  00000000  00000094  2**1
                  CONTENTS, ALLOC, LOAD, READONLY, CODE
  2 .bss          00000004  0080026c  0080026c  00000c08  2**0
                  ALLOC
  3 .stab         00001c08  00000000  00000000  00000c08  2**2
                  CONTENTS, READONLY, DEBUGGING
  4 .stabstr      00000cc0  00000000  00000000  00002810  2**0
                  CONTENTS, READONLY, DEBUGGING
  5 .debug_aranges 00000078  00000000  00000000  000034d0  2**0
                  CONTENTS, READONLY, DEBUGGING
  6 .debug_pubnames 000000fa  00000000  00000000  00003548  2**0
                  CONTENTS, READONLY, DEBUGGING
  7 .debug_info   00000319  00000000  00000000  00003642  2**0
                  CONTENTS, READONLY, DEBUGGING
  8 .debug_abbrev 00000184  00000000  00000000  0000395b  2**0
                  CONTENTS, READONLY, DEBUGGING
  9 .debug_line   00000522  00000000  00000000  00003adf  2**0
                  CONTENTS, READONLY, DEBUGGING
 10 .debug_frame  000000c0  00000000  00000000  00004004  2**2
                  CONTENTS, READONLY, DEBUGGING
 11 .debug_str    0000018c  00000000  00000000  000040c4  2**0
                  CONTENTS, READONLY, DEBUGGING
 12 .debug_loc    00000090  00000000  00000000  00004250  2**0
                  CONTENTS, READONLY, DEBUGGING
Disassembly of section .text:

00000000 <__vectors>:
  while(!READ_BIT(ADCSRB, REFOK));
  
}
void setupAdcComplex()
{
   0:	8f c0       	rjmp	.+286    	; 0x120 <__ctors_end>
   2:	00 00       	nop
   4:	aa c0       	rjmp	.+340    	; 0x15a <__bad_interrupt>
   6:	00 00       	nop
   8:	a8 c0       	rjmp	.+336    	; 0x15a <__bad_interrupt>
   a:	00 00       	nop
   c:	a6 c0       	rjmp	.+332    	; 0x15a <__bad_interrupt>
   e:	00 00       	nop
  10:	a4 c0       	rjmp	.+328    	; 0x15a <__bad_interrupt>
  12:	00 00       	nop
  14:	a2 c0       	rjmp	.+324    	; 0x15a <__bad_interrupt>
  16:	00 00       	nop
  18:	a0 c0       	rjmp	.+320    	; 0x15a <__bad_interrupt>
  1a:	00 00       	nop
  1c:	9e c0       	rjmp	.+316    	; 0x15a <__bad_interrupt>
  1e:	00 00       	nop
  20:	9c c0       	rjmp	.+312    	; 0x15a <__bad_interrupt>
  22:	00 00       	nop
  24:	9a c0       	rjmp	.+308    	; 0x15a <__bad_interrupt>
  26:	00 00       	nop
  28:	98 c0       	rjmp	.+304    	; 0x15a <__bad_interrupt>
  2a:	00 00       	nop
  2c:	96 c0       	rjmp	.+300    	; 0x15a <__bad_interrupt>
  2e:	00 00       	nop
  30:	94 c0       	rjmp	.+296    	; 0x15a <__bad_interrupt>
  32:	00 00       	nop
  34:	92 c0       	rjmp	.+292    	; 0x15a <__bad_interrupt>
  36:	00 00       	nop
  38:	90 c0       	rjmp	.+288    	; 0x15a <__bad_interrupt>
  3a:	00 00       	nop
  3c:	8e c0       	rjmp	.+284    	; 0x15a <__bad_interrupt>
  3e:	00 00       	nop
  40:	8c c0       	rjmp	.+280    	; 0x15a <__bad_interrupt>
  42:	00 00       	nop
  44:	8a c0       	rjmp	.+276    	; 0x15a <__bad_interrupt>
  46:	00 00       	nop
  48:	88 c0       	rjmp	.+272    	; 0x15a <__bad_interrupt>
  4a:	00 00       	nop
  4c:	86 c0       	rjmp	.+268    	; 0x15a <__bad_interrupt>
  4e:	00 00       	nop
  50:	84 c0       	rjmp	.+264    	; 0x15a <__bad_interrupt>
  52:	00 00       	nop
  54:	82 c0       	rjmp	.+260    	; 0x15a <__bad_interrupt>
  56:	00 00       	nop
  58:	80 c0       	rjmp	.+256    	; 0x15a <__bad_interrupt>
  5a:	00 00       	nop
  5c:	7e c0       	rjmp	.+252    	; 0x15a <__bad_interrupt>
  5e:	00 00       	nop
  60:	7c c0       	rjmp	.+248    	; 0x15a <__bad_interrupt>
  62:	00 00       	nop
  64:	7a c0       	rjmp	.+244    	; 0x15a <__bad_interrupt>
  66:	00 00       	nop
  68:	78 c0       	rjmp	.+240    	; 0x15a <__bad_interrupt>
  6a:	00 00       	nop
  6c:	76 c0       	rjmp	.+236    	; 0x15a <__bad_interrupt>
  6e:	00 00       	nop
  70:	74 c0       	rjmp	.+232    	; 0x15a <__bad_interrupt>
  72:	00 00       	nop
  74:	f0 c0       	rjmp	.+480    	; 0x256 <__vector_29>
  76:	00 00       	nop
  78:	70 c0       	rjmp	.+224    	; 0x15a <__bad_interrupt>
  7a:	00 00       	nop
  7c:	6e c0       	rjmp	.+220    	; 0x15a <__bad_interrupt>
  7e:	00 00       	nop
  80:	6c c0       	rjmp	.+216    	; 0x15a <__bad_interrupt>
  82:	00 00       	nop
  84:	6a c0       	rjmp	.+212    	; 0x15a <__bad_interrupt>
  86:	00 00       	nop
  88:	68 c0       	rjmp	.+208    	; 0x15a <__bad_interrupt>
  8a:	00 00       	nop
  8c:	66 c0       	rjmp	.+204    	; 0x15a <__bad_interrupt>
  8e:	00 00       	nop
  90:	fb c0       	rjmp	.+502    	; 0x288 <__vector_36>
  92:	00 00       	nop
  94:	62 c0       	rjmp	.+196    	; 0x15a <__bad_interrupt>
  96:	00 00       	nop
  98:	60 c0       	rjmp	.+192    	; 0x15a <__bad_interrupt>
  9a:	00 00       	nop
  9c:	5e c0       	rjmp	.+188    	; 0x15a <__bad_interrupt>
  9e:	00 00       	nop
  a0:	5c c0       	rjmp	.+184    	; 0x15a <__bad_interrupt>
  a2:	00 00       	nop
  a4:	5a c0       	rjmp	.+180    	; 0x15a <__bad_interrupt>
  a6:	00 00       	nop
  a8:	58 c0       	rjmp	.+176    	; 0x15a <__bad_interrupt>
  aa:	00 00       	nop
  ac:	56 c0       	rjmp	.+172    	; 0x15a <__bad_interrupt>
  ae:	00 00       	nop
  b0:	54 c0       	rjmp	.+168    	; 0x15a <__bad_interrupt>
  b2:	00 00       	nop
  b4:	52 c0       	rjmp	.+164    	; 0x15a <__bad_interrupt>
  b6:	00 00       	nop
  b8:	50 c0       	rjmp	.+160    	; 0x15a <__bad_interrupt>
  ba:	00 00       	nop
  bc:	4e c0       	rjmp	.+156    	; 0x15a <__bad_interrupt>
  be:	00 00       	nop
  c0:	4c c0       	rjmp	.+152    	; 0x15a <__bad_interrupt>
  c2:	00 00       	nop
  c4:	4a c0       	rjmp	.+148    	; 0x15a <__bad_interrupt>
  c6:	00 00       	nop
  c8:	48 c0       	rjmp	.+144    	; 0x15a <__bad_interrupt>
  ca:	00 00       	nop
  cc:	46 c0       	rjmp	.+140    	; 0x15a <__bad_interrupt>
  ce:	00 00       	nop
  d0:	44 c0       	rjmp	.+136    	; 0x15a <__bad_interrupt>
  d2:	00 00       	nop
  d4:	42 c0       	rjmp	.+132    	; 0x15a <__bad_interrupt>
  d6:	00 00       	nop
  d8:	40 c0       	rjmp	.+128    	; 0x15a <__bad_interrupt>
  da:	00 00       	nop
  dc:	3e c0       	rjmp	.+124    	; 0x15a <__bad_interrupt>
  de:	00 00       	nop
  e0:	3c c0       	rjmp	.+120    	; 0x15a <__bad_interrupt>
  e2:	00 00       	nop
  e4:	3a c0       	rjmp	.+116    	; 0x15a <__bad_interrupt>
  e6:	00 00       	nop
  e8:	38 c0       	rjmp	.+112    	; 0x15a <__bad_interrupt>
  ea:	00 00       	nop
  ec:	36 c0       	rjmp	.+108    	; 0x15a <__bad_interrupt>
  ee:	00 00       	nop
  f0:	34 c0       	rjmp	.+104    	; 0x15a <__bad_interrupt>
  f2:	00 00       	nop
  f4:	32 c0       	rjmp	.+100    	; 0x15a <__bad_interrupt>
  f6:	00 00       	nop
  f8:	30 c0       	rjmp	.+96     	; 0x15a <__bad_interrupt>
  fa:	00 00       	nop
  fc:	2e c0       	rjmp	.+92     	; 0x15a <__bad_interrupt>
  fe:	00 00       	nop
 100:	2c c0       	rjmp	.+88     	; 0x15a <__bad_interrupt>
 102:	00 00       	nop
 104:	2a c0       	rjmp	.+84     	; 0x15a <__bad_interrupt>
 106:	00 00       	nop
 108:	28 c0       	rjmp	.+80     	; 0x15a <__bad_interrupt>
 10a:	00 00       	nop
 10c:	26 c0       	rjmp	.+76     	; 0x15a <__bad_interrupt>
 10e:	00 00       	nop
 110:	24 c0       	rjmp	.+72     	; 0x15a <__bad_interrupt>
 112:	00 00       	nop
 114:	22 c0       	rjmp	.+68     	; 0x15a <__bad_interrupt>
 116:	00 00       	nop
 118:	20 c0       	rjmp	.+64     	; 0x15a <__bad_interrupt>
 11a:	00 00       	nop
 11c:	1e c0       	rjmp	.+60     	; 0x15a <__bad_interrupt>
 11e:	00 00       	nop

00000120 <__ctors_end>:
 120:	11 24       	eor	r1, r1
 122:	1f be       	out	0x3f, r1	; 63
 124:	cf ef       	ldi	r28, 0xFF	; 255
 126:	d1 e4       	ldi	r29, 0x41	; 65
 128:	de bf       	out	0x3e, r29	; 62
 12a:	cd bf       	out	0x3d, r28	; 61

0000012c <__do_copy_data>:
 12c:	12 e0       	ldi	r17, 0x02	; 2
 12e:	a0 e0       	ldi	r26, 0x00	; 0
 130:	b2 e0       	ldi	r27, 0x02	; 2
 132:	e8 e0       	ldi	r30, 0x08	; 8
 134:	fb e0       	ldi	r31, 0x0B	; 11
 136:	00 e0       	ldi	r16, 0x00	; 0
 138:	0b bf       	out	0x3b, r16	; 59
 13a:	02 c0       	rjmp	.+4      	; 0x140 <__do_copy_data+0x14>
 13c:	07 90       	elpm	r0, Z+
 13e:	0d 92       	st	X+, r0
 140:	ac 36       	cpi	r26, 0x6C	; 108
 142:	b1 07       	cpc	r27, r17
 144:	d9 f7       	brne	.-10     	; 0x13c <__do_copy_data+0x10>

00000146 <__do_clear_bss>:
 146:	12 e0       	ldi	r17, 0x02	; 2
 148:	ac e6       	ldi	r26, 0x6C	; 108
 14a:	b2 e0       	ldi	r27, 0x02	; 2
 14c:	01 c0       	rjmp	.+2      	; 0x150 <.do_clear_bss_start>

0000014e <.do_clear_bss_loop>:
 14e:	1d 92       	st	X+, r1

00000150 <.do_clear_bss_start>:
 150:	a0 37       	cpi	r26, 0x70	; 112
 152:	b1 07       	cpc	r27, r17
 154:	e1 f7       	brne	.-8      	; 0x14e <.do_clear_bss_loop>
 156:	f1 d0       	rcall	.+482    	; 0x33a <main>
 158:	d6 c4       	rjmp	.+2476   	; 0xb06 <_exit>

0000015a <__bad_interrupt>:
 15a:	a9 c0       	rjmp	.+338    	; 0x2ae <__vector_default>

0000015c <printStr>:
 15c:	ac 01       	movw	r20, r24
 15e:	20 e0       	ldi	r18, 0x00	; 0
 160:	0b c0       	rjmp	.+22     	; 0x178 <printStr+0x1c>
 162:	fa 01       	movw	r30, r20
 164:	e2 0f       	add	r30, r18
 166:	f1 1d       	adc	r31, r1
 168:	80 81       	ld	r24, Z
 16a:	80 93 ce 00 	sts	0x00CE, r24
 16e:	80 91 c8 00 	lds	r24, 0x00C8
 172:	85 ff       	sbrs	r24, 5
 174:	fc cf       	rjmp	.-8      	; 0x16e <printStr+0x12>
 176:	2f 5f       	subi	r18, 0xFF	; 255
 178:	26 17       	cp	r18, r22
 17a:	99 f7       	brne	.-26     	; 0x162 <printStr+0x6>
 17c:	08 95       	ret

0000017e <setupSerial>:
 17e:	e8 ec       	ldi	r30, 0xC8	; 200
 180:	f0 e0       	ldi	r31, 0x00	; 0
 182:	80 81       	ld	r24, Z
 184:	8f 77       	andi	r24, 0x7F	; 127
 186:	80 83       	st	Z, r24
 188:	80 81       	ld	r24, Z
 18a:	8f 7b       	andi	r24, 0xBF	; 191
 18c:	80 83       	st	Z, r24
 18e:	80 81       	ld	r24, Z
 190:	82 60       	ori	r24, 0x02	; 2
 192:	80 83       	st	Z, r24
 194:	e9 ec       	ldi	r30, 0xC9	; 201
 196:	f0 e0       	ldi	r31, 0x00	; 0
 198:	80 81       	ld	r24, Z
 19a:	8f 7d       	andi	r24, 0xDF	; 223
 19c:	80 83       	st	Z, r24
 19e:	80 81       	ld	r24, Z
 1a0:	8b 7f       	andi	r24, 0xFB	; 251
 1a2:	80 83       	st	Z, r24
 1a4:	80 81       	ld	r24, Z
 1a6:	80 68       	ori	r24, 0x80	; 128
 1a8:	80 83       	st	Z, r24
 1aa:	80 81       	ld	r24, Z
 1ac:	8f 7b       	andi	r24, 0xBF	; 191
 1ae:	80 83       	st	Z, r24
 1b0:	80 81       	ld	r24, Z
 1b2:	80 61       	ori	r24, 0x10	; 16
 1b4:	80 83       	st	Z, r24
 1b6:	80 81       	ld	r24, Z
 1b8:	88 60       	ori	r24, 0x08	; 8
 1ba:	80 83       	st	Z, r24
 1bc:	ea ec       	ldi	r30, 0xCA	; 202
 1be:	f0 e0       	ldi	r31, 0x00	; 0
 1c0:	80 81       	ld	r24, Z
 1c2:	8f 77       	andi	r24, 0x7F	; 127
 1c4:	80 83       	st	Z, r24
 1c6:	80 81       	ld	r24, Z
 1c8:	8f 7b       	andi	r24, 0xBF	; 191
 1ca:	80 83       	st	Z, r24
 1cc:	80 81       	ld	r24, Z
 1ce:	8f 7d       	andi	r24, 0xDF	; 223
 1d0:	80 83       	st	Z, r24
 1d2:	80 81       	ld	r24, Z
 1d4:	8f 7e       	andi	r24, 0xEF	; 239
 1d6:	80 83       	st	Z, r24
 1d8:	80 81       	ld	r24, Z
 1da:	8e 7f       	andi	r24, 0xFE	; 254
 1dc:	80 83       	st	Z, r24
 1de:	80 81       	ld	r24, Z
 1e0:	84 60       	ori	r24, 0x04	; 4
 1e2:	80 83       	st	Z, r24
 1e4:	80 81       	ld	r24, Z
 1e6:	82 60       	ori	r24, 0x02	; 2
 1e8:	80 83       	st	Z, r24
 1ea:	10 92 cd 00 	sts	0x00CD, r1
 1ee:	80 e1       	ldi	r24, 0x10	; 16
 1f0:	80 93 cc 00 	sts	0x00CC, r24
 1f4:	08 95       	ret

000001f6 <setupClock>:
 1f6:	10 92 61 00 	sts	0x0061, r1
 1fa:	80 e8       	ldi	r24, 0x80	; 128
 1fc:	80 93 61 00 	sts	0x0061, r24
 200:	10 92 61 00 	sts	0x0061, r1
 204:	80 91 61 00 	lds	r24, 0x0061
 208:	87 fd       	sbrc	r24, 7
 20a:	fc cf       	rjmp	.-8      	; 0x204 <setupClock+0xe>
 20c:	08 95       	ret

0000020e <setupIO>:
 20e:	6a 9a       	sbi	0x0d, 2	; 13
 210:	52 98       	cbi	0x0a, 2	; 10
 212:	53 9a       	sbi	0x0a, 3	; 10
 214:	80 98       	cbi	0x10, 0	; 16
 216:	85 b7       	in	r24, 0x35	; 53
 218:	80 68       	ori	r24, 0x80	; 128
 21a:	85 bf       	out	0x35, r24	; 53
 21c:	85 b7       	in	r24, 0x35	; 53
 21e:	80 68       	ori	r24, 0x80	; 128
 220:	85 bf       	out	0x35, r24	; 53
 222:	08 95       	ret

00000224 <setupAdc>:
 224:	10 92 7b 00 	sts	0x007B, r1
 228:	80 ec       	ldi	r24, 0xC0	; 192
 22a:	80 93 7c 00 	sts	0x007C, r24
 22e:	8f e8       	ldi	r24, 0x8F	; 143
 230:	80 93 7a 00 	sts	0x007A, r24
 234:	63 e1       	ldi	r22, 0x13	; 19
 236:	80 e0       	ldi	r24, 0x00	; 0
 238:	92 e0       	ldi	r25, 0x02	; 2
 23a:	90 df       	rcall	.-224    	; 0x15c <printStr>
 23c:	80 91 7b 00 	lds	r24, 0x007B
 240:	87 ff       	sbrs	r24, 7
 242:	f8 cf       	rjmp	.-16     	; 0x234 <setupAdc+0x10>
 244:	62 e1       	ldi	r22, 0x12	; 18
 246:	84 e1       	ldi	r24, 0x14	; 20
 248:	92 e0       	ldi	r25, 0x02	; 2
 24a:	88 df       	rcall	.-240    	; 0x15c <printStr>
 24c:	80 91 7b 00 	lds	r24, 0x007B
 250:	85 ff       	sbrs	r24, 5
 252:	f8 cf       	rjmp	.-16     	; 0x244 <setupAdc+0x20>
 254:	08 95       	ret

00000256 <__vector_29>:
  SET_BIT(ADCSRA, ADEN);

  SET_BIT(ADMUX, REFS1);
  SET_BIT(ADMUX, REFS0);
  CLR_BIT(ADMUX, ADLAR);
   
  CLR_BIT(ADCSRB, MUX5);
  CLR_BIT(ADMUX, MUX4);
  CLR_BIT(ADMUX, MUX3);
  CLR_BIT(ADMUX, MUX2);
  CLR_BIT(ADMUX, MUX1);
  CLR_BIT(ADMUX, MUX0);

  CLR_BIT(ADCSRB, ACME);
  CLR_BIT(ADCSRB, ADTS2);
  CLR_BIT(ADCSRB, ADTS1);
  CLR_BIT(ADCSRB, ADTS0);

  CLR_BIT(ADCSRA, ADATE);
  CLR_BIT(ADCSRA, ADIF);
  SET_BIT(ADCSRA, ADIE);
  SET_BIT(ADCSRA, ADPS2);
  SET_BIT(ADCSRA, ADPS1);
  SET_BIT(ADCSRA, ADPS0);

  SET_BIT(ADCSRB, ACCH);
  while(READ_BIT(ADCSRB, ACCH));

  
  /*
  SET_BIT(ADCSRC, ADTHT1);
  SET_BIT(ADCSRC, ADTHT0);
  SET_BIT(ADCSRC, ADSUT4);
  SET_BIT(ADCSRC, ADSUT3);
  SET_BIT(ADCSRC, ADSUT2);
  SET_BIT(ADCSRC, ADSUT1);
  SET_BIT(ADCSRC, ADSUT0);
  */
  
  do
    {
      printStr("waiting for AVDDOK\n", STRLEN("waiting for AVDDOK\n"));
    }
  while(!READ_BIT(ADCSRB, AVDDOK));
  
  do
    {
      printStr("waiting for REFOK\n", STRLEN("waiting for REFOK\n")); 
    }
  while(!READ_BIT(ADCSRB, REFOK));

  //  UDR1 = (uint8_t)(ADMUX);
  //while(!READ_BIT(UCSR1A, UDRE1));
  //UDR1 = (uint8_t)(ADCSRA);
  //while(!READ_BIT(UCSR1A, UDRE1));
  //UDR1 = (uint8_t)(ADCSRB);
  //while(!READ_BIT(UCSR1A, UDRE1));
	  
}
 
int main(void) 
{
  uint8_t msgBuffer[128];
  uint8_t msgLen = 0;
  uint32_t voltage = 0;
  setupClock();
  setupSerial();
  setupIO();
  setupAdc();
  sei();
  SET_BIT(ADCSRA, ADSC);
  while(1) 
    {
      PRINT_REG(MCUCR);
      PRINT_REG(ADMUX);
      PRINT_REG(ADCSRB);
      PRINT_REG(SMCR);
      PRINT_REG(PRR0);
      if(serial_flag)
	{
	  UDR1 = (uint8_t)(myByte);
	  while(!READ_BIT(UCSR1A, UDRE1));
	  
	  FLIP_BIT(PORTE, PORTE2);
	  serial_flag = 0;
	}
      if(adc_flag)
	{
	  printStr("ADC = ",STRLEN("ADC = "));
	  print_uint16(adcVal);
	  msgLen = sprintf(msgBuffer, "ADC = %d\n", adcVal);
	  printStr(msgBuffer, msgLen);
	  voltage = ((uint32_t)adcVal*1600)/1024;
	  msgLen = sprintf(msgBuffer, "ADC = %d mV\n", voltage);
	  printStr(msgBuffer, msgLen);
	  adc_flag = 0;
	  _delay_ms(1000);
	  SET_BIT(ADCSRA, ADSC);
	}
      //UDR1 = myByte;
      //while(!READ_BIT(UCSR1A, UDRE1)){}
      //CLR_BIT(UCSR1A, TXC1);

      //while(!READ_BIT(UCSR1A, RXC1)){}
      //myByte = UDR1;
      //CLR_BIT(UCSR1A, RXC1);

    }
  return 0;
}

ISR(ADC_vect, ISR_BLOCK)
{
 256:	1f 92       	push	r1
 258:	0f 92       	push	r0
 25a:	0f b6       	in	r0, 0x3f	; 63
 25c:	0f 92       	push	r0
 25e:	11 24       	eor	r1, r1
 260:	8f 93       	push	r24
 262:	9f 93       	push	r25
  adc_flag = 1;
 264:	81 e0       	ldi	r24, 0x01	; 1
 266:	80 93 6e 02 	sts	0x026E, r24
  //adcVal = ADCL;
  //adcVal |= ((uint16_t)ADCH)<<8;
  adcVal = ADC;
 26a:	80 91 78 00 	lds	r24, 0x0078
 26e:	90 91 79 00 	lds	r25, 0x0079
 272:	90 93 6d 02 	sts	0x026D, r25
 276:	80 93 6c 02 	sts	0x026C, r24
 27a:	9f 91       	pop	r25
 27c:	8f 91       	pop	r24
 27e:	0f 90       	pop	r0
 280:	0f be       	out	0x3f, r0	; 63
 282:	0f 90       	pop	r0
 284:	1f 90       	pop	r1
 286:	18 95       	reti

00000288 <__vector_36>:
  //adcVal = ADCH;
}

ISR(USART1_RX_vect, ISR_BLOCK)
{
 288:	1f 92       	push	r1
 28a:	0f 92       	push	r0
 28c:	0f b6       	in	r0, 0x3f	; 63
 28e:	0f 92       	push	r0
 290:	11 24       	eor	r1, r1
 292:	8f 93       	push	r24
  myByte = UDR1;
 294:	80 91 ce 00 	lds	r24, 0x00CE
 298:	80 93 6a 02 	sts	0x026A, r24
  serial_flag = 1;
 29c:	81 e0       	ldi	r24, 0x01	; 1
 29e:	80 93 6f 02 	sts	0x026F, r24
 2a2:	8f 91       	pop	r24
 2a4:	0f 90       	pop	r0
 2a6:	0f be       	out	0x3f, r0	; 63
 2a8:	0f 90       	pop	r0
 2aa:	1f 90       	pop	r1
 2ac:	18 95       	reti

000002ae <__vector_default>:
}

ISR(BADISR_vect)
{
 2ae:	1f 92       	push	r1
 2b0:	0f 92       	push	r0
 2b2:	0f b6       	in	r0, 0x3f	; 63
 2b4:	0f 92       	push	r0
 2b6:	11 24       	eor	r1, r1
 2b8:	8f 93       	push	r24
 2ba:	9f 93       	push	r25
  FLIP_BIT(PORTE, PORTE4);
 2bc:	8e b1       	in	r24, 0x0e	; 14
 2be:	90 e1       	ldi	r25, 0x10	; 16
 2c0:	89 27       	eor	r24, r25
 2c2:	8e b9       	out	0x0e, r24	; 14
 2c4:	9f 91       	pop	r25
 2c6:	8f 91       	pop	r24
 2c8:	0f 90       	pop	r0
 2ca:	0f be       	out	0x3f, r0	; 63
 2cc:	0f 90       	pop	r0
 2ce:	1f 90       	pop	r1
 2d0:	18 95       	reti

000002d2 <print_uint16>:
 2d2:	0f 93       	push	r16
 2d4:	1f 93       	push	r17
 2d6:	cf 93       	push	r28
 2d8:	df 93       	push	r29
 2da:	cd b7       	in	r28, 0x3d	; 61
 2dc:	de b7       	in	r29, 0x3e	; 62
 2de:	60 97       	sbiw	r28, 0x10	; 16
 2e0:	0f b6       	in	r0, 0x3f	; 63
 2e2:	f8 94       	cli
 2e4:	de bf       	out	0x3e, r29	; 62
 2e6:	0f be       	out	0x3f, r0	; 63
 2e8:	cd bf       	out	0x3d, r28	; 61
 2ea:	8e 01       	movw	r16, r28
 2ec:	0f 5f       	subi	r16, 0xFF	; 255
 2ee:	1f 4f       	sbci	r17, 0xFF	; 255
 2f0:	9c 01       	movw	r18, r24
 2f2:	30 70       	andi	r19, 0x00	; 0
 2f4:	3f 93       	push	r19
 2f6:	2f 93       	push	r18
 2f8:	89 2f       	mov	r24, r25
 2fa:	99 27       	eor	r25, r25
 2fc:	9f 93       	push	r25
 2fe:	8f 93       	push	r24
 300:	87 e2       	ldi	r24, 0x27	; 39
 302:	92 e0       	ldi	r25, 0x02	; 2
 304:	9f 93       	push	r25
 306:	8f 93       	push	r24
 308:	1f 93       	push	r17
 30a:	0f 93       	push	r16
 30c:	21 d1       	rcall	.+578    	; 0x550 <sprintf>
 30e:	68 2f       	mov	r22, r24
 310:	c8 01       	movw	r24, r16
 312:	24 df       	rcall	.-440    	; 0x15c <printStr>
 314:	8d b7       	in	r24, 0x3d	; 61
 316:	9e b7       	in	r25, 0x3e	; 62
 318:	08 96       	adiw	r24, 0x08	; 8
 31a:	0f b6       	in	r0, 0x3f	; 63
 31c:	f8 94       	cli
 31e:	9e bf       	out	0x3e, r25	; 62
 320:	0f be       	out	0x3f, r0	; 63
 322:	8d bf       	out	0x3d, r24	; 61
 324:	60 96       	adiw	r28, 0x10	; 16
 326:	0f b6       	in	r0, 0x3f	; 63
 328:	f8 94       	cli
 32a:	de bf       	out	0x3e, r29	; 62
 32c:	0f be       	out	0x3f, r0	; 63
 32e:	cd bf       	out	0x3d, r28	; 61
 330:	df 91       	pop	r29
 332:	cf 91       	pop	r28
 334:	1f 91       	pop	r17
 336:	0f 91       	pop	r16
 338:	08 95       	ret

0000033a <main>:
 33a:	ef 92       	push	r14
 33c:	ff 92       	push	r15
 33e:	0f 93       	push	r16
 340:	1f 93       	push	r17
 342:	cf 93       	push	r28
 344:	df 93       	push	r29
 346:	cd b7       	in	r28, 0x3d	; 61
 348:	de b7       	in	r29, 0x3e	; 62
 34a:	c0 58       	subi	r28, 0x80	; 128
 34c:	d0 40       	sbci	r29, 0x00	; 0
 34e:	0f b6       	in	r0, 0x3f	; 63
 350:	f8 94       	cli
 352:	de bf       	out	0x3e, r29	; 62
 354:	0f be       	out	0x3f, r0	; 63
 356:	cd bf       	out	0x3d, r28	; 61
 358:	4e df       	rcall	.-356    	; 0x1f6 <setupClock>
 35a:	11 df       	rcall	.-478    	; 0x17e <setupSerial>
 35c:	58 df       	rcall	.-336    	; 0x20e <setupIO>
 35e:	62 df       	rcall	.-316    	; 0x224 <setupAdc>
 360:	78 94       	sei
 362:	80 91 7a 00 	lds	r24, 0x007A
 366:	80 64       	ori	r24, 0x40	; 64
 368:	80 93 7a 00 	sts	0x007A, r24
 36c:	85 b7       	in	r24, 0x35	; 53
 36e:	7e 01       	movw	r14, r28
 370:	08 94       	sec
 372:	e1 1c       	adc	r14, r1
 374:	f1 1c       	adc	r15, r1
 376:	99 27       	eor	r25, r25
 378:	9f 93       	push	r25
 37a:	8f 93       	push	r24
 37c:	85 e5       	ldi	r24, 0x55	; 85
 37e:	90 e0       	ldi	r25, 0x00	; 0
 380:	9f 93       	push	r25
 382:	8f 93       	push	r24
 384:	0f e2       	ldi	r16, 0x2F	; 47
 386:	12 e0       	ldi	r17, 0x02	; 2
 388:	1f 93       	push	r17
 38a:	0f 93       	push	r16
 38c:	ff 92       	push	r15
 38e:	ef 92       	push	r14
 390:	df d0       	rcall	.+446    	; 0x550 <sprintf>
 392:	68 2f       	mov	r22, r24
 394:	c7 01       	movw	r24, r14
 396:	e2 de       	rcall	.-572    	; 0x15c <printStr>
 398:	80 91 7c 00 	lds	r24, 0x007C
 39c:	99 27       	eor	r25, r25
 39e:	9f 93       	push	r25
 3a0:	8f 93       	push	r24
 3a2:	8c e7       	ldi	r24, 0x7C	; 124
 3a4:	90 e0       	ldi	r25, 0x00	; 0
 3a6:	9f 93       	push	r25
 3a8:	8f 93       	push	r24
 3aa:	1f 93       	push	r17
 3ac:	0f 93       	push	r16
 3ae:	ff 92       	push	r15
 3b0:	ef 92       	push	r14
 3b2:	ce d0       	rcall	.+412    	; 0x550 <sprintf>
 3b4:	68 2f       	mov	r22, r24
 3b6:	c7 01       	movw	r24, r14
 3b8:	d1 de       	rcall	.-606    	; 0x15c <printStr>
 3ba:	80 91 7b 00 	lds	r24, 0x007B
 3be:	99 27       	eor	r25, r25
 3c0:	9f 93       	push	r25
 3c2:	8f 93       	push	r24
 3c4:	8b e7       	ldi	r24, 0x7B	; 123
 3c6:	90 e0       	ldi	r25, 0x00	; 0
 3c8:	9f 93       	push	r25
 3ca:	8f 93       	push	r24
 3cc:	1f 93       	push	r17
 3ce:	0f 93       	push	r16
 3d0:	ff 92       	push	r15
 3d2:	ef 92       	push	r14
 3d4:	bd d0       	rcall	.+378    	; 0x550 <sprintf>
 3d6:	68 2f       	mov	r22, r24
 3d8:	c7 01       	movw	r24, r14
 3da:	c0 de       	rcall	.-640    	; 0x15c <printStr>
 3dc:	83 b7       	in	r24, 0x33	; 51
 3de:	99 27       	eor	r25, r25
 3e0:	9f 93       	push	r25
 3e2:	8f 93       	push	r24
 3e4:	83 e5       	ldi	r24, 0x53	; 83
 3e6:	90 e0       	ldi	r25, 0x00	; 0
 3e8:	9f 93       	push	r25
 3ea:	8f 93       	push	r24
 3ec:	1f 93       	push	r17
 3ee:	0f 93       	push	r16
 3f0:	ff 92       	push	r15
 3f2:	ef 92       	push	r14
 3f4:	ad d0       	rcall	.+346    	; 0x550 <sprintf>
 3f6:	2d b7       	in	r18, 0x3d	; 61
 3f8:	3e b7       	in	r19, 0x3e	; 62
 3fa:	20 5e       	subi	r18, 0xE0	; 224
 3fc:	3f 4f       	sbci	r19, 0xFF	; 255
 3fe:	0f b6       	in	r0, 0x3f	; 63
 400:	f8 94       	cli
 402:	3e bf       	out	0x3e, r19	; 62
 404:	0f be       	out	0x3f, r0	; 63
 406:	2d bf       	out	0x3d, r18	; 61
 408:	68 2f       	mov	r22, r24
 40a:	c7 01       	movw	r24, r14
 40c:	a7 de       	rcall	.-690    	; 0x15c <printStr>
 40e:	80 91 64 00 	lds	r24, 0x0064
 412:	99 27       	eor	r25, r25
 414:	9f 93       	push	r25
 416:	8f 93       	push	r24
 418:	84 e6       	ldi	r24, 0x64	; 100
 41a:	90 e0       	ldi	r25, 0x00	; 0
 41c:	9f 93       	push	r25
 41e:	8f 93       	push	r24
 420:	1f 93       	push	r17
 422:	0f 93       	push	r16
 424:	ff 92       	push	r15
 426:	ef 92       	push	r14
 428:	93 d0       	rcall	.+294    	; 0x550 <sprintf>
 42a:	68 2f       	mov	r22, r24
 42c:	c7 01       	movw	r24, r14
 42e:	96 de       	rcall	.-724    	; 0x15c <printStr>
 430:	80 91 6f 02 	lds	r24, 0x026F
 434:	2d b7       	in	r18, 0x3d	; 61
 436:	3e b7       	in	r19, 0x3e	; 62
 438:	28 5f       	subi	r18, 0xF8	; 248
 43a:	3f 4f       	sbci	r19, 0xFF	; 255
 43c:	0f b6       	in	r0, 0x3f	; 63
 43e:	f8 94       	cli
 440:	3e bf       	out	0x3e, r19	; 62
 442:	0f be       	out	0x3f, r0	; 63
 444:	2d bf       	out	0x3d, r18	; 61
 446:	88 23       	and	r24, r24
 448:	71 f0       	breq	.+28     	; 0x466 <main+0x12c>
 44a:	80 91 6a 02 	lds	r24, 0x026A
 44e:	80 93 ce 00 	sts	0x00CE, r24
 452:	80 91 c8 00 	lds	r24, 0x00C8
 456:	85 ff       	sbrs	r24, 5
 458:	fc cf       	rjmp	.-8      	; 0x452 <main+0x118>
 45a:	8e b1       	in	r24, 0x0e	; 14
 45c:	94 e0       	ldi	r25, 0x04	; 4
 45e:	89 27       	eor	r24, r25
 460:	8e b9       	out	0x0e, r24	; 14
 462:	10 92 6f 02 	sts	0x026F, r1
 466:	80 91 6e 02 	lds	r24, 0x026E
 46a:	88 23       	and	r24, r24
 46c:	09 f4       	brne	.+2      	; 0x470 <main+0x136>
 46e:	7e cf       	rjmp	.-260    	; 0x36c <main+0x32>
 470:	66 e0       	ldi	r22, 0x06	; 6
 472:	8c e3       	ldi	r24, 0x3C	; 60
 474:	92 e0       	ldi	r25, 0x02	; 2
 476:	72 de       	rcall	.-796    	; 0x15c <printStr>
 478:	80 91 6c 02 	lds	r24, 0x026C
 47c:	90 91 6d 02 	lds	r25, 0x026D
 480:	28 df       	rcall	.-432    	; 0x2d2 <print_uint16>
 482:	80 91 6c 02 	lds	r24, 0x026C
 486:	90 91 6d 02 	lds	r25, 0x026D
 48a:	9f 93       	push	r25
 48c:	8f 93       	push	r24
 48e:	83 e4       	ldi	r24, 0x43	; 67
 490:	92 e0       	ldi	r25, 0x02	; 2
 492:	9f 93       	push	r25
 494:	8f 93       	push	r24
 496:	ff 92       	push	r15
 498:	ef 92       	push	r14
 49a:	5a d0       	rcall	.+180    	; 0x550 <sprintf>
 49c:	68 2f       	mov	r22, r24
 49e:	8e 01       	movw	r16, r28
 4a0:	0f 5f       	subi	r16, 0xFF	; 255
 4a2:	1f 4f       	sbci	r17, 0xFF	; 255
 4a4:	c8 01       	movw	r24, r16
 4a6:	5a de       	rcall	.-844    	; 0x15c <printStr>
 4a8:	60 91 6c 02 	lds	r22, 0x026C
 4ac:	70 91 6d 02 	lds	r23, 0x026D
 4b0:	88 27       	eor	r24, r24
 4b2:	99 27       	eor	r25, r25
 4b4:	20 e4       	ldi	r18, 0x40	; 64
 4b6:	36 e0       	ldi	r19, 0x06	; 6
 4b8:	40 e0       	ldi	r20, 0x00	; 0
 4ba:	50 e0       	ldi	r21, 0x00	; 0
 4bc:	2a d0       	rcall	.+84     	; 0x512 <__mulsi3>
 4be:	3a e0       	ldi	r19, 0x0A	; 10
 4c0:	96 95       	lsr	r25
 4c2:	87 95       	ror	r24
 4c4:	77 95       	ror	r23
 4c6:	67 95       	ror	r22
 4c8:	3a 95       	dec	r19
 4ca:	d1 f7       	brne	.-12     	; 0x4c0 <main+0x186>
 4cc:	9f 93       	push	r25
 4ce:	8f 93       	push	r24
 4d0:	7f 93       	push	r23
 4d2:	6f 93       	push	r22
 4d4:	8d e4       	ldi	r24, 0x4D	; 77
 4d6:	92 e0       	ldi	r25, 0x02	; 2
 4d8:	9f 93       	push	r25
 4da:	8f 93       	push	r24
 4dc:	ff 92       	push	r15
 4de:	ef 92       	push	r14
 4e0:	37 d0       	rcall	.+110    	; 0x550 <sprintf>
 4e2:	68 2f       	mov	r22, r24
 4e4:	c8 01       	movw	r24, r16
 4e6:	3a de       	rcall	.-908    	; 0x15c <printStr>
 4e8:	10 92 6e 02 	sts	0x026E, r1
 4ec:	20 e1       	ldi	r18, 0x10	; 16
 4ee:	37 e2       	ldi	r19, 0x27	; 39
 4f0:	8d b7       	in	r24, 0x3d	; 61
 4f2:	9e b7       	in	r25, 0x3e	; 62
 4f4:	0e 96       	adiw	r24, 0x0e	; 14
 4f6:	0f b6       	in	r0, 0x3f	; 63
 4f8:	f8 94       	cli
 4fa:	9e bf       	out	0x3e, r25	; 62
 4fc:	0f be       	out	0x3f, r0	; 63
 4fe:	8d bf       	out	0x3d, r24	; 61
 500:	e8 ec       	ldi	r30, 0xC8	; 200
 502:	f0 e0       	ldi	r31, 0x00	; 0
 504:	cf 01       	movw	r24, r30
 506:	01 97       	sbiw	r24, 0x01	; 1
 508:	f1 f7       	brne	.-4      	; 0x506 <main+0x1cc>
 50a:	21 50       	subi	r18, 0x01	; 1
 50c:	30 40       	sbci	r19, 0x00	; 0
 50e:	d1 f7       	brne	.-12     	; 0x504 <main+0x1ca>
 510:	28 cf       	rjmp	.-432    	; 0x362 <main+0x28>

00000512 <__mulsi3>:
 512:	62 9f       	mul	r22, r18
 514:	d0 01       	movw	r26, r0
 516:	73 9f       	mul	r23, r19
 518:	f0 01       	movw	r30, r0
 51a:	82 9f       	mul	r24, r18
 51c:	e0 0d       	add	r30, r0
 51e:	f1 1d       	adc	r31, r1
 520:	64 9f       	mul	r22, r20
 522:	e0 0d       	add	r30, r0
 524:	f1 1d       	adc	r31, r1
 526:	92 9f       	mul	r25, r18
 528:	f0 0d       	add	r31, r0
 52a:	83 9f       	mul	r24, r19
 52c:	f0 0d       	add	r31, r0
 */
void
_delay_loop_2(uint16_t __count)
{
	__asm__ volatile (
 52e:	74 9f       	mul	r23, r20
 530:	f0 0d       	add	r31, r0
 532:	65 9f       	mul	r22, r21
		while(__ticks)
		{
			// wait 1/10 ms
			_delay_loop_2(((F_CPU) / 4e3) / 10);
			__ticks --;
 534:	f0 0d       	add	r31, r0
 536:	99 27       	eor	r25, r25
 538:	72 9f       	mul	r23, r18
 53a:	b0 0d       	add	r27, r0
 53c:	e1 1d       	adc	r30, r1
 53e:	f9 1f       	adc	r31, r25
 540:	63 9f       	mul	r22, r19
 542:	b0 0d       	add	r27, r0
 544:	e1 1d       	adc	r30, r1
 546:	f9 1f       	adc	r31, r25
 548:	bd 01       	movw	r22, r26
 54a:	cf 01       	movw	r24, r30
 54c:	11 24       	eor	r1, r1
 54e:	08 95       	ret

00000550 <sprintf>:
 550:	a0 e1       	ldi	r26, 0x10	; 16
 552:	b0 e0       	ldi	r27, 0x00	; 0
 554:	ed ea       	ldi	r30, 0xAD	; 173
 556:	f2 e0       	ldi	r31, 0x02	; 2
 558:	ad c2       	rjmp	.+1370   	; 0xab4 <__prologue_saves__+0x1c>
 55a:	0f 89       	ldd	r16, Y+23	; 0x17
 55c:	18 8d       	ldd	r17, Y+24	; 0x18
 55e:	86 e0       	ldi	r24, 0x06	; 6
 560:	8e 83       	std	Y+6, r24	; 0x06
 562:	1c 83       	std	Y+4, r17	; 0x04
 564:	0b 83       	std	Y+3, r16	; 0x03
 566:	8f ef       	ldi	r24, 0xFF	; 255
 568:	9f e7       	ldi	r25, 0x7F	; 127
 56a:	98 87       	std	Y+8, r25	; 0x08
 56c:	8f 83       	std	Y+7, r24	; 0x07
 56e:	ae 01       	movw	r20, r28
 570:	45 5e       	subi	r20, 0xE5	; 229
 572:	5f 4f       	sbci	r21, 0xFF	; 255
 574:	5a 83       	std	Y+2, r21	; 0x02
 576:	49 83       	std	Y+1, r20	; 0x01
 578:	69 8d       	ldd	r22, Y+25	; 0x19
 57a:	7a 8d       	ldd	r23, Y+26	; 0x1a
 57c:	ce 01       	movw	r24, r28
 57e:	03 96       	adiw	r24, 0x03	; 3
 580:	09 d0       	rcall	.+18     	; 0x594 <vfprintf>
 582:	29 85       	ldd	r18, Y+9	; 0x09
 584:	3a 85       	ldd	r19, Y+10	; 0x0a
 586:	02 0f       	add	r16, r18
 588:	13 1f       	adc	r17, r19
 58a:	f8 01       	movw	r30, r16
 58c:	10 82       	st	Z, r1
 58e:	e4 e0       	ldi	r30, 0x04	; 4
 590:	60 96       	adiw	r28, 0x10	; 16
 592:	ac c2       	rjmp	.+1368   	; 0xaec <__epilogue_restores__+0x1c>

00000594 <vfprintf>:
 594:	ab e0       	ldi	r26, 0x0B	; 11
 596:	b0 e0       	ldi	r27, 0x00	; 0
 598:	ef ec       	ldi	r30, 0xCF	; 207
 59a:	f2 e0       	ldi	r31, 0x02	; 2
 59c:	7f c2       	rjmp	.+1278   	; 0xa9c <__prologue_saves__+0x4>
 59e:	3c 01       	movw	r6, r24
 5a0:	4b 01       	movw	r8, r22
 5a2:	6a 01       	movw	r12, r20
 5a4:	fc 01       	movw	r30, r24
 5a6:	17 82       	std	Z+7, r1	; 0x07
 5a8:	16 82       	std	Z+6, r1	; 0x06
 5aa:	83 81       	ldd	r24, Z+3	; 0x03
 5ac:	81 fd       	sbrc	r24, 1
 5ae:	03 c0       	rjmp	.+6      	; 0x5b6 <vfprintf+0x22>
 5b0:	8f ef       	ldi	r24, 0xFF	; 255
 5b2:	9f ef       	ldi	r25, 0xFF	; 255
 5b4:	cd c1       	rjmp	.+922    	; 0x950 <vfprintf+0x3bc>
 5b6:	f3 01       	movw	r30, r6
 5b8:	33 81       	ldd	r19, Z+3	; 0x03
 5ba:	f4 01       	movw	r30, r8
 5bc:	33 fd       	sbrc	r19, 3
 5be:	85 91       	lpm	r24, Z+
 5c0:	33 ff       	sbrs	r19, 3
 5c2:	81 91       	ld	r24, Z+
 5c4:	4f 01       	movw	r8, r30
 5c6:	88 23       	and	r24, r24
 5c8:	09 f4       	brne	.+2      	; 0x5cc <vfprintf+0x38>
 5ca:	bf c1       	rjmp	.+894    	; 0x94a <vfprintf+0x3b6>
 5cc:	85 32       	cpi	r24, 0x25	; 37
 5ce:	39 f4       	brne	.+14     	; 0x5de <vfprintf+0x4a>
 5d0:	33 fd       	sbrc	r19, 3
 5d2:	85 91       	lpm	r24, Z+
 5d4:	33 ff       	sbrs	r19, 3
 5d6:	81 91       	ld	r24, Z+
 5d8:	4f 01       	movw	r8, r30
 5da:	85 32       	cpi	r24, 0x25	; 37
 5dc:	21 f4       	brne	.+8      	; 0x5e6 <vfprintf+0x52>
 5de:	b3 01       	movw	r22, r6
 5e0:	99 27       	eor	r25, r25
 5e2:	cf d1       	rcall	.+926    	; 0x982 <fputc>
 5e4:	e8 cf       	rjmp	.-48     	; 0x5b6 <vfprintf+0x22>
 5e6:	00 e0       	ldi	r16, 0x00	; 0
 5e8:	44 24       	eor	r4, r4
 5ea:	55 24       	eor	r5, r5
 5ec:	4a e0       	ldi	r20, 0x0A	; 10
 5ee:	00 32       	cpi	r16, 0x20	; 32
 5f0:	b0 f4       	brcc	.+44     	; 0x61e <vfprintf+0x8a>
 5f2:	8b 32       	cpi	r24, 0x2B	; 43
 5f4:	69 f0       	breq	.+26     	; 0x610 <vfprintf+0x7c>
 5f6:	8c 32       	cpi	r24, 0x2C	; 44
 5f8:	28 f4       	brcc	.+10     	; 0x604 <vfprintf+0x70>
 5fa:	80 32       	cpi	r24, 0x20	; 32
 5fc:	51 f0       	breq	.+20     	; 0x612 <vfprintf+0x7e>
 5fe:	83 32       	cpi	r24, 0x23	; 35
 600:	71 f4       	brne	.+28     	; 0x61e <vfprintf+0x8a>
 602:	0b c0       	rjmp	.+22     	; 0x61a <vfprintf+0x86>
 604:	8d 32       	cpi	r24, 0x2D	; 45
 606:	39 f0       	breq	.+14     	; 0x616 <vfprintf+0x82>
 608:	80 33       	cpi	r24, 0x30	; 48
 60a:	49 f4       	brne	.+18     	; 0x61e <vfprintf+0x8a>
 60c:	01 60       	ori	r16, 0x01	; 1
 60e:	28 c0       	rjmp	.+80     	; 0x660 <vfprintf+0xcc>
 610:	02 60       	ori	r16, 0x02	; 2
 612:	04 60       	ori	r16, 0x04	; 4
 614:	25 c0       	rjmp	.+74     	; 0x660 <vfprintf+0xcc>
 616:	08 60       	ori	r16, 0x08	; 8
 618:	23 c0       	rjmp	.+70     	; 0x660 <vfprintf+0xcc>
 61a:	00 61       	ori	r16, 0x10	; 16
 61c:	21 c0       	rjmp	.+66     	; 0x660 <vfprintf+0xcc>
 61e:	07 fd       	sbrc	r16, 7
 620:	29 c0       	rjmp	.+82     	; 0x674 <vfprintf+0xe0>
 622:	28 2f       	mov	r18, r24
 624:	20 53       	subi	r18, 0x30	; 48
 626:	2a 30       	cpi	r18, 0x0A	; 10
 628:	78 f4       	brcc	.+30     	; 0x648 <vfprintf+0xb4>
 62a:	06 ff       	sbrs	r16, 6
 62c:	06 c0       	rjmp	.+12     	; 0x63a <vfprintf+0xa6>
 62e:	54 9e       	mul	r5, r20
 630:	c0 01       	movw	r24, r0
 632:	11 24       	eor	r1, r1
 634:	52 2e       	mov	r5, r18
 636:	58 0e       	add	r5, r24
 638:	13 c0       	rjmp	.+38     	; 0x660 <vfprintf+0xcc>
 63a:	44 9e       	mul	r4, r20
 63c:	c0 01       	movw	r24, r0
 63e:	11 24       	eor	r1, r1
 640:	42 2e       	mov	r4, r18
 642:	48 0e       	add	r4, r24
 644:	00 62       	ori	r16, 0x20	; 32
 646:	0c c0       	rjmp	.+24     	; 0x660 <vfprintf+0xcc>
 648:	8e 32       	cpi	r24, 0x2E	; 46
 64a:	21 f4       	brne	.+8      	; 0x654 <vfprintf+0xc0>
 64c:	06 fd       	sbrc	r16, 6
 64e:	7d c1       	rjmp	.+762    	; 0x94a <vfprintf+0x3b6>
 650:	00 64       	ori	r16, 0x40	; 64
 652:	06 c0       	rjmp	.+12     	; 0x660 <vfprintf+0xcc>
 654:	8c 36       	cpi	r24, 0x6C	; 108
 656:	11 f4       	brne	.+4      	; 0x65c <vfprintf+0xc8>
 658:	00 68       	ori	r16, 0x80	; 128
 65a:	02 c0       	rjmp	.+4      	; 0x660 <vfprintf+0xcc>
 65c:	88 36       	cpi	r24, 0x68	; 104
 65e:	51 f4       	brne	.+20     	; 0x674 <vfprintf+0xe0>
 660:	f4 01       	movw	r30, r8
 662:	33 fd       	sbrc	r19, 3
 664:	85 91       	lpm	r24, Z+
 666:	33 ff       	sbrs	r19, 3
 668:	81 91       	ld	r24, Z+
 66a:	4f 01       	movw	r8, r30
 66c:	88 23       	and	r24, r24
 66e:	09 f4       	brne	.+2      	; 0x672 <vfprintf+0xde>
 670:	6b c0       	rjmp	.+214    	; 0x748 <vfprintf+0x1b4>
 672:	bd cf       	rjmp	.-134    	; 0x5ee <vfprintf+0x5a>
 674:	98 2f       	mov	r25, r24
 676:	85 54       	subi	r24, 0x45	; 69
 678:	83 30       	cpi	r24, 0x03	; 3
 67a:	18 f0       	brcs	.+6      	; 0x682 <vfprintf+0xee>
 67c:	80 52       	subi	r24, 0x20	; 32
 67e:	83 30       	cpi	r24, 0x03	; 3
 680:	38 f4       	brcc	.+14     	; 0x690 <vfprintf+0xfc>
 682:	24 e0       	ldi	r18, 0x04	; 4
 684:	30 e0       	ldi	r19, 0x00	; 0
 686:	c2 0e       	add	r12, r18
 688:	d3 1e       	adc	r13, r19
 68a:	8f e3       	ldi	r24, 0x3F	; 63
 68c:	89 83       	std	Y+1, r24	; 0x01
 68e:	0f c0       	rjmp	.+30     	; 0x6ae <vfprintf+0x11a>
 690:	93 36       	cpi	r25, 0x63	; 99
 692:	31 f0       	breq	.+12     	; 0x6a0 <vfprintf+0x10c>
 694:	93 37       	cpi	r25, 0x73	; 115
 696:	99 f0       	breq	.+38     	; 0x6be <vfprintf+0x12a>
 698:	93 35       	cpi	r25, 0x53	; 83
 69a:	09 f0       	breq	.+2      	; 0x69e <vfprintf+0x10a>
 69c:	57 c0       	rjmp	.+174    	; 0x74c <vfprintf+0x1b8>
 69e:	22 c0       	rjmp	.+68     	; 0x6e4 <vfprintf+0x150>
 6a0:	f6 01       	movw	r30, r12
 6a2:	80 81       	ld	r24, Z
 6a4:	89 83       	std	Y+1, r24	; 0x01
 6a6:	22 e0       	ldi	r18, 0x02	; 2
 6a8:	30 e0       	ldi	r19, 0x00	; 0
 6aa:	c2 0e       	add	r12, r18
 6ac:	d3 1e       	adc	r13, r19
 6ae:	7e 01       	movw	r14, r28
 6b0:	08 94       	sec
 6b2:	e1 1c       	adc	r14, r1
 6b4:	f1 1c       	adc	r15, r1
 6b6:	51 e0       	ldi	r21, 0x01	; 1
 6b8:	a5 2e       	mov	r10, r21
 6ba:	b1 2c       	mov	r11, r1
 6bc:	11 c0       	rjmp	.+34     	; 0x6e0 <vfprintf+0x14c>
 6be:	f6 01       	movw	r30, r12
 6c0:	e0 80       	ld	r14, Z
 6c2:	f1 80       	ldd	r15, Z+1	; 0x01
 6c4:	06 fd       	sbrc	r16, 6
 6c6:	03 c0       	rjmp	.+6      	; 0x6ce <vfprintf+0x13a>
 6c8:	6f ef       	ldi	r22, 0xFF	; 255
 6ca:	7f ef       	ldi	r23, 0xFF	; 255
 6cc:	02 c0       	rjmp	.+4      	; 0x6d2 <vfprintf+0x13e>
 6ce:	65 2d       	mov	r22, r5
 6d0:	77 27       	eor	r23, r23
 6d2:	22 e0       	ldi	r18, 0x02	; 2
 6d4:	30 e0       	ldi	r19, 0x00	; 0
 6d6:	c2 0e       	add	r12, r18
 6d8:	d3 1e       	adc	r13, r19
 6da:	c7 01       	movw	r24, r14
 6dc:	47 d1       	rcall	.+654    	; 0x96c <strnlen>
 6de:	5c 01       	movw	r10, r24
 6e0:	0f 77       	andi	r16, 0x7F	; 127
 6e2:	12 c0       	rjmp	.+36     	; 0x708 <vfprintf+0x174>
 6e4:	f6 01       	movw	r30, r12
 6e6:	e0 80       	ld	r14, Z
 6e8:	f1 80       	ldd	r15, Z+1	; 0x01
 6ea:	06 fd       	sbrc	r16, 6
 6ec:	03 c0       	rjmp	.+6      	; 0x6f4 <vfprintf+0x160>
 6ee:	6f ef       	ldi	r22, 0xFF	; 255
 6f0:	7f ef       	ldi	r23, 0xFF	; 255
 6f2:	02 c0       	rjmp	.+4      	; 0x6f8 <vfprintf+0x164>
 6f4:	65 2d       	mov	r22, r5
 6f6:	77 27       	eor	r23, r23
 6f8:	22 e0       	ldi	r18, 0x02	; 2
 6fa:	30 e0       	ldi	r19, 0x00	; 0
 6fc:	c2 0e       	add	r12, r18
 6fe:	d3 1e       	adc	r13, r19
 700:	c7 01       	movw	r24, r14
 702:	29 d1       	rcall	.+594    	; 0x956 <strnlen_P>
 704:	5c 01       	movw	r10, r24
 706:	00 68       	ori	r16, 0x80	; 128
 708:	03 ff       	sbrs	r16, 3
 70a:	06 c0       	rjmp	.+12     	; 0x718 <vfprintf+0x184>
 70c:	19 c0       	rjmp	.+50     	; 0x740 <vfprintf+0x1ac>
 70e:	b3 01       	movw	r22, r6
 710:	80 e2       	ldi	r24, 0x20	; 32
 712:	90 e0       	ldi	r25, 0x00	; 0
 714:	36 d1       	rcall	.+620    	; 0x982 <fputc>
 716:	4a 94       	dec	r4
 718:	84 2d       	mov	r24, r4
 71a:	99 27       	eor	r25, r25
 71c:	a8 16       	cp	r10, r24
 71e:	b9 06       	cpc	r11, r25
 720:	b0 f3       	brcs	.-20     	; 0x70e <vfprintf+0x17a>
 722:	0e c0       	rjmp	.+28     	; 0x740 <vfprintf+0x1ac>
 724:	f7 01       	movw	r30, r14
 726:	07 fd       	sbrc	r16, 7
 728:	85 91       	lpm	r24, Z+
 72a:	07 ff       	sbrs	r16, 7
 72c:	81 91       	ld	r24, Z+
 72e:	7f 01       	movw	r14, r30
 730:	b3 01       	movw	r22, r6
 732:	99 27       	eor	r25, r25
 734:	26 d1       	rcall	.+588    	; 0x982 <fputc>
 736:	41 10       	cpse	r4, r1
 738:	4a 94       	dec	r4
 73a:	08 94       	sec
 73c:	a1 08       	sbc	r10, r1
 73e:	b1 08       	sbc	r11, r1
 740:	a1 14       	cp	r10, r1
 742:	b1 04       	cpc	r11, r1
 744:	79 f7       	brne	.-34     	; 0x724 <vfprintf+0x190>
 746:	fe c0       	rjmp	.+508    	; 0x944 <vfprintf+0x3b0>
 748:	90 e0       	ldi	r25, 0x00	; 0
 74a:	3d c0       	rjmp	.+122    	; 0x7c6 <vfprintf+0x232>
 74c:	94 36       	cpi	r25, 0x64	; 100
 74e:	11 f0       	breq	.+4      	; 0x754 <vfprintf+0x1c0>
 750:	99 36       	cpi	r25, 0x69	; 105
 752:	89 f5       	brne	.+98     	; 0x7b6 <vfprintf+0x222>
 754:	07 ff       	sbrs	r16, 7
 756:	0a c0       	rjmp	.+20     	; 0x76c <vfprintf+0x1d8>
 758:	f6 01       	movw	r30, r12
 75a:	60 81       	ld	r22, Z
 75c:	71 81       	ldd	r23, Z+1	; 0x01
 75e:	82 81       	ldd	r24, Z+2	; 0x02
 760:	93 81       	ldd	r25, Z+3	; 0x03
 762:	24 e0       	ldi	r18, 0x04	; 4
 764:	30 e0       	ldi	r19, 0x00	; 0
 766:	c2 0e       	add	r12, r18
 768:	d3 1e       	adc	r13, r19
 76a:	0d c0       	rjmp	.+26     	; 0x786 <vfprintf+0x1f2>
 76c:	f6 01       	movw	r30, r12
 76e:	80 81       	ld	r24, Z
 770:	91 81       	ldd	r25, Z+1	; 0x01
 772:	9c 01       	movw	r18, r24
 774:	b9 01       	movw	r22, r18
 776:	88 27       	eor	r24, r24
 778:	77 fd       	sbrc	r23, 7
 77a:	80 95       	com	r24
 77c:	98 2f       	mov	r25, r24
 77e:	42 e0       	ldi	r20, 0x02	; 2
 780:	50 e0       	ldi	r21, 0x00	; 0
 782:	c4 0e       	add	r12, r20
 784:	d5 1e       	adc	r13, r21
 786:	4f e6       	ldi	r20, 0x6F	; 111
 788:	b4 2e       	mov	r11, r20
 78a:	b0 22       	and	r11, r16
 78c:	97 ff       	sbrs	r25, 7
 78e:	09 c0       	rjmp	.+18     	; 0x7a2 <vfprintf+0x20e>
 790:	90 95       	com	r25
 792:	80 95       	com	r24
 794:	70 95       	com	r23
 796:	61 95       	neg	r22
 798:	7f 4f       	sbci	r23, 0xFF	; 255
 79a:	8f 4f       	sbci	r24, 0xFF	; 255
 79c:	9f 4f       	sbci	r25, 0xFF	; 255
 79e:	50 e8       	ldi	r21, 0x80	; 128
 7a0:	b5 2a       	or	r11, r21
 7a2:	8e 01       	movw	r16, r28
 7a4:	0f 5f       	subi	r16, 0xFF	; 255
 7a6:	1f 4f       	sbci	r17, 0xFF	; 255
 7a8:	2a e0       	ldi	r18, 0x0A	; 10
 7aa:	30 e0       	ldi	r19, 0x00	; 0
 7ac:	a8 01       	movw	r20, r16
 7ae:	16 d1       	rcall	.+556    	; 0x9dc <__ultoa_invert>
 7b0:	a8 2e       	mov	r10, r24
 7b2:	a0 1a       	sub	r10, r16
 7b4:	4c c0       	rjmp	.+152    	; 0x84e <vfprintf+0x2ba>
 7b6:	95 37       	cpi	r25, 0x75	; 117
 7b8:	31 f4       	brne	.+12     	; 0x7c6 <vfprintf+0x232>
 7ba:	3f ee       	ldi	r19, 0xEF	; 239
 7bc:	f3 2e       	mov	r15, r19
 7be:	f0 22       	and	r15, r16
 7c0:	2a e0       	ldi	r18, 0x0A	; 10
 7c2:	30 e0       	ldi	r19, 0x00	; 0
 7c4:	23 c0       	rjmp	.+70     	; 0x80c <vfprintf+0x278>
 7c6:	29 ef       	ldi	r18, 0xF9	; 249
 7c8:	f2 2e       	mov	r15, r18
 7ca:	f0 22       	and	r15, r16
 7cc:	9f 36       	cpi	r25, 0x6F	; 111
 7ce:	61 f0       	breq	.+24     	; 0x7e8 <vfprintf+0x254>
 7d0:	90 37       	cpi	r25, 0x70	; 112
 7d2:	20 f4       	brcc	.+8      	; 0x7dc <vfprintf+0x248>
 7d4:	98 35       	cpi	r25, 0x58	; 88
 7d6:	09 f0       	breq	.+2      	; 0x7da <vfprintf+0x246>
 7d8:	b8 c0       	rjmp	.+368    	; 0x94a <vfprintf+0x3b6>
 7da:	12 c0       	rjmp	.+36     	; 0x800 <vfprintf+0x26c>
 7dc:	90 37       	cpi	r25, 0x70	; 112
 7de:	39 f0       	breq	.+14     	; 0x7ee <vfprintf+0x25a>
 7e0:	98 37       	cpi	r25, 0x78	; 120
 7e2:	09 f0       	breq	.+2      	; 0x7e6 <vfprintf+0x252>
 7e4:	b2 c0       	rjmp	.+356    	; 0x94a <vfprintf+0x3b6>
 7e6:	05 c0       	rjmp	.+10     	; 0x7f2 <vfprintf+0x25e>
 7e8:	28 e0       	ldi	r18, 0x08	; 8
 7ea:	30 e0       	ldi	r19, 0x00	; 0
 7ec:	0f c0       	rjmp	.+30     	; 0x80c <vfprintf+0x278>
 7ee:	80 e1       	ldi	r24, 0x10	; 16
 7f0:	f8 2a       	or	r15, r24
 7f2:	f4 fe       	sbrs	r15, 4
 7f4:	02 c0       	rjmp	.+4      	; 0x7fa <vfprintf+0x266>
 7f6:	94 e0       	ldi	r25, 0x04	; 4
 7f8:	f9 2a       	or	r15, r25
 7fa:	20 e1       	ldi	r18, 0x10	; 16
 7fc:	30 e0       	ldi	r19, 0x00	; 0
 7fe:	06 c0       	rjmp	.+12     	; 0x80c <vfprintf+0x278>
 800:	f4 fe       	sbrs	r15, 4
 802:	02 c0       	rjmp	.+4      	; 0x808 <vfprintf+0x274>
 804:	e6 e0       	ldi	r30, 0x06	; 6
 806:	fe 2a       	or	r15, r30
 808:	20 e1       	ldi	r18, 0x10	; 16
 80a:	32 e0       	ldi	r19, 0x02	; 2
 80c:	f7 fe       	sbrs	r15, 7
 80e:	0a c0       	rjmp	.+20     	; 0x824 <vfprintf+0x290>
 810:	f6 01       	movw	r30, r12
 812:	60 81       	ld	r22, Z
 814:	71 81       	ldd	r23, Z+1	; 0x01
 816:	82 81       	ldd	r24, Z+2	; 0x02
 818:	93 81       	ldd	r25, Z+3	; 0x03
 81a:	44 e0       	ldi	r20, 0x04	; 4
 81c:	50 e0       	ldi	r21, 0x00	; 0
 81e:	c4 0e       	add	r12, r20
 820:	d5 1e       	adc	r13, r21
 822:	0b c0       	rjmp	.+22     	; 0x83a <vfprintf+0x2a6>
 824:	f6 01       	movw	r30, r12
 826:	80 81       	ld	r24, Z
 828:	91 81       	ldd	r25, Z+1	; 0x01
 82a:	ac 01       	movw	r20, r24
 82c:	ba 01       	movw	r22, r20
 82e:	88 27       	eor	r24, r24
 830:	99 27       	eor	r25, r25
 832:	e2 e0       	ldi	r30, 0x02	; 2
 834:	f0 e0       	ldi	r31, 0x00	; 0
 836:	ce 0e       	add	r12, r30
 838:	df 1e       	adc	r13, r31
 83a:	8e 01       	movw	r16, r28
 83c:	0f 5f       	subi	r16, 0xFF	; 255
 83e:	1f 4f       	sbci	r17, 0xFF	; 255
 840:	a8 01       	movw	r20, r16
 842:	cc d0       	rcall	.+408    	; 0x9dc <__ultoa_invert>
 844:	a8 2e       	mov	r10, r24
 846:	a0 1a       	sub	r10, r16
 848:	8f e7       	ldi	r24, 0x7F	; 127
 84a:	b8 2e       	mov	r11, r24
 84c:	bf 20       	and	r11, r15
 84e:	b6 fe       	sbrs	r11, 6
 850:	10 c0       	rjmp	.+32     	; 0x872 <vfprintf+0x2de>
 852:	fe ef       	ldi	r31, 0xFE	; 254
 854:	bf 22       	and	r11, r31
 856:	a5 14       	cp	r10, r5
 858:	60 f4       	brcc	.+24     	; 0x872 <vfprintf+0x2de>
 85a:	2b 2d       	mov	r18, r11
 85c:	33 27       	eor	r19, r19
 85e:	24 ff       	sbrs	r18, 4
 860:	1a c0       	rjmp	.+52     	; 0x896 <vfprintf+0x302>
 862:	22 ff       	sbrs	r18, 2
 864:	02 c0       	rjmp	.+4      	; 0x86a <vfprintf+0x2d6>
 866:	05 2d       	mov	r16, r5
 868:	09 c0       	rjmp	.+18     	; 0x87c <vfprintf+0x2e8>
 86a:	2f ee       	ldi	r18, 0xEF	; 239
 86c:	b2 22       	and	r11, r18
 86e:	05 2d       	mov	r16, r5
 870:	01 c0       	rjmp	.+2      	; 0x874 <vfprintf+0x2e0>
 872:	0a 2d       	mov	r16, r10
 874:	2b 2d       	mov	r18, r11
 876:	33 27       	eor	r19, r19
 878:	24 ff       	sbrs	r18, 4
 87a:	0e c0       	rjmp	.+28     	; 0x898 <vfprintf+0x304>
 87c:	fe 01       	movw	r30, r28
 87e:	ea 0d       	add	r30, r10
 880:	f1 1d       	adc	r31, r1
 882:	80 81       	ld	r24, Z
 884:	80 33       	cpi	r24, 0x30	; 48
 886:	19 f4       	brne	.+6      	; 0x88e <vfprintf+0x2fa>
 888:	39 ee       	ldi	r19, 0xE9	; 233
 88a:	b3 22       	and	r11, r19
 88c:	09 c0       	rjmp	.+18     	; 0x8a0 <vfprintf+0x30c>
 88e:	0f 5f       	subi	r16, 0xFF	; 255
 890:	22 ff       	sbrs	r18, 2
 892:	06 c0       	rjmp	.+12     	; 0x8a0 <vfprintf+0x30c>
 894:	04 c0       	rjmp	.+8      	; 0x89e <vfprintf+0x30a>
 896:	05 2d       	mov	r16, r5
 898:	82 2f       	mov	r24, r18
 89a:	86 78       	andi	r24, 0x86	; 134
 89c:	09 f0       	breq	.+2      	; 0x8a0 <vfprintf+0x30c>
 89e:	0f 5f       	subi	r16, 0xFF	; 255
 8a0:	eb 2c       	mov	r14, r11
 8a2:	ff 24       	eor	r15, r15
 8a4:	e3 fc       	sbrc	r14, 3
 8a6:	13 c0       	rjmp	.+38     	; 0x8ce <vfprintf+0x33a>
 8a8:	e0 fe       	sbrs	r14, 0
 8aa:	0e c0       	rjmp	.+28     	; 0x8c8 <vfprintf+0x334>
 8ac:	04 15       	cp	r16, r4
 8ae:	10 f0       	brcs	.+4      	; 0x8b4 <vfprintf+0x320>
 8b0:	5a 2c       	mov	r5, r10
 8b2:	0a c0       	rjmp	.+20     	; 0x8c8 <vfprintf+0x334>
 8b4:	54 2c       	mov	r5, r4
 8b6:	50 1a       	sub	r5, r16
 8b8:	5a 0c       	add	r5, r10
 8ba:	04 2d       	mov	r16, r4
 8bc:	05 c0       	rjmp	.+10     	; 0x8c8 <vfprintf+0x334>
 8be:	b3 01       	movw	r22, r6
 8c0:	80 e2       	ldi	r24, 0x20	; 32
 8c2:	90 e0       	ldi	r25, 0x00	; 0
 8c4:	5e d0       	rcall	.+188    	; 0x982 <fputc>
 8c6:	0f 5f       	subi	r16, 0xFF	; 255
 8c8:	04 15       	cp	r16, r4
 8ca:	c8 f3       	brcs	.-14     	; 0x8be <vfprintf+0x32a>
 8cc:	04 c0       	rjmp	.+8      	; 0x8d6 <vfprintf+0x342>
 8ce:	04 15       	cp	r16, r4
 8d0:	10 f4       	brcc	.+4      	; 0x8d6 <vfprintf+0x342>
 8d2:	40 1a       	sub	r4, r16
 8d4:	01 c0       	rjmp	.+2      	; 0x8d8 <vfprintf+0x344>
 8d6:	44 24       	eor	r4, r4
 8d8:	e4 fe       	sbrs	r14, 4
 8da:	0f c0       	rjmp	.+30     	; 0x8fa <vfprintf+0x366>
 8dc:	b3 01       	movw	r22, r6
 8de:	80 e3       	ldi	r24, 0x30	; 48
 8e0:	90 e0       	ldi	r25, 0x00	; 0
 8e2:	4f d0       	rcall	.+158    	; 0x982 <fputc>
 8e4:	e2 fe       	sbrs	r14, 2
 8e6:	1c c0       	rjmp	.+56     	; 0x920 <vfprintf+0x38c>
 8e8:	e1 fe       	sbrs	r14, 1
 8ea:	03 c0       	rjmp	.+6      	; 0x8f2 <vfprintf+0x35e>
 8ec:	88 e5       	ldi	r24, 0x58	; 88
 8ee:	90 e0       	ldi	r25, 0x00	; 0
 8f0:	02 c0       	rjmp	.+4      	; 0x8f6 <vfprintf+0x362>
 8f2:	88 e7       	ldi	r24, 0x78	; 120
 8f4:	90 e0       	ldi	r25, 0x00	; 0
 8f6:	b3 01       	movw	r22, r6
 8f8:	0c c0       	rjmp	.+24     	; 0x912 <vfprintf+0x37e>
 8fa:	8e 2d       	mov	r24, r14
 8fc:	86 78       	andi	r24, 0x86	; 134
 8fe:	81 f0       	breq	.+32     	; 0x920 <vfprintf+0x38c>
 900:	e1 fe       	sbrs	r14, 1
 902:	02 c0       	rjmp	.+4      	; 0x908 <vfprintf+0x374>
 904:	8b e2       	ldi	r24, 0x2B	; 43
 906:	01 c0       	rjmp	.+2      	; 0x90a <vfprintf+0x376>
 908:	80 e2       	ldi	r24, 0x20	; 32
 90a:	b7 fc       	sbrc	r11, 7
 90c:	8d e2       	ldi	r24, 0x2D	; 45
 90e:	b3 01       	movw	r22, r6
 910:	99 27       	eor	r25, r25
 912:	37 d0       	rcall	.+110    	; 0x982 <fputc>
 914:	05 c0       	rjmp	.+10     	; 0x920 <vfprintf+0x38c>
 916:	b3 01       	movw	r22, r6
 918:	80 e3       	ldi	r24, 0x30	; 48
 91a:	90 e0       	ldi	r25, 0x00	; 0
 91c:	32 d0       	rcall	.+100    	; 0x982 <fputc>
 91e:	5a 94       	dec	r5
 920:	a5 14       	cp	r10, r5
 922:	c8 f3       	brcs	.-14     	; 0x916 <vfprintf+0x382>
 924:	aa 94       	dec	r10
 926:	fe 01       	movw	r30, r28
 928:	ea 0d       	add	r30, r10
 92a:	f1 1d       	adc	r31, r1
 92c:	81 81       	ldd	r24, Z+1	; 0x01
 92e:	b3 01       	movw	r22, r6
 930:	99 27       	eor	r25, r25
 932:	27 d0       	rcall	.+78     	; 0x982 <fputc>
 934:	aa 20       	and	r10, r10
 936:	31 f0       	breq	.+12     	; 0x944 <vfprintf+0x3b0>
 938:	f5 cf       	rjmp	.-22     	; 0x924 <vfprintf+0x390>
 93a:	b3 01       	movw	r22, r6
 93c:	80 e2       	ldi	r24, 0x20	; 32
 93e:	90 e0       	ldi	r25, 0x00	; 0
 940:	20 d0       	rcall	.+64     	; 0x982 <fputc>
 942:	4a 94       	dec	r4
 944:	44 20       	and	r4, r4
 946:	c9 f7       	brne	.-14     	; 0x93a <vfprintf+0x3a6>
 948:	36 ce       	rjmp	.-916    	; 0x5b6 <vfprintf+0x22>
 94a:	f3 01       	movw	r30, r6
 94c:	86 81       	ldd	r24, Z+6	; 0x06
 94e:	97 81       	ldd	r25, Z+7	; 0x07
 950:	e0 e1       	ldi	r30, 0x10	; 16
 952:	2b 96       	adiw	r28, 0x0b	; 11
 954:	bf c0       	rjmp	.+382    	; 0xad4 <__epilogue_restores__+0x4>

00000956 <strnlen_P>:
 956:	fc 01       	movw	r30, r24
 958:	05 90       	lpm	r0, Z+
 95a:	61 50       	subi	r22, 0x01	; 1
 95c:	70 40       	sbci	r23, 0x00	; 0
 95e:	01 10       	cpse	r0, r1
 960:	d8 f7       	brcc	.-10     	; 0x958 <strnlen_P+0x2>
 962:	80 95       	com	r24
 964:	90 95       	com	r25
 966:	8e 0f       	add	r24, r30
 968:	9f 1f       	adc	r25, r31
 96a:	08 95       	ret

0000096c <strnlen>:
 96c:	fc 01       	movw	r30, r24
 96e:	61 50       	subi	r22, 0x01	; 1
 970:	70 40       	sbci	r23, 0x00	; 0
 972:	01 90       	ld	r0, Z+
 974:	01 10       	cpse	r0, r1
 976:	d8 f7       	brcc	.-10     	; 0x96e <strnlen+0x2>
 978:	80 95       	com	r24
 97a:	90 95       	com	r25
 97c:	8e 0f       	add	r24, r30
 97e:	9f 1f       	adc	r25, r31
 980:	08 95       	ret

00000982 <fputc>:
 982:	0f 93       	push	r16
 984:	1f 93       	push	r17
 986:	cf 93       	push	r28
 988:	df 93       	push	r29
 98a:	8c 01       	movw	r16, r24
 98c:	eb 01       	movw	r28, r22
 98e:	8b 81       	ldd	r24, Y+3	; 0x03
 990:	99 27       	eor	r25, r25
 992:	81 ff       	sbrs	r24, 1
 994:	1b c0       	rjmp	.+54     	; 0x9cc <fputc+0x4a>
 996:	82 ff       	sbrs	r24, 2
 998:	0d c0       	rjmp	.+26     	; 0x9b4 <fputc+0x32>
 99a:	2e 81       	ldd	r18, Y+6	; 0x06
 99c:	3f 81       	ldd	r19, Y+7	; 0x07
 99e:	8c 81       	ldd	r24, Y+4	; 0x04
 9a0:	9d 81       	ldd	r25, Y+5	; 0x05
 9a2:	28 17       	cp	r18, r24
 9a4:	39 07       	cpc	r19, r25
 9a6:	64 f4       	brge	.+24     	; 0x9c0 <fputc+0x3e>
 9a8:	e8 81       	ld	r30, Y
 9aa:	f9 81       	ldd	r31, Y+1	; 0x01
 9ac:	01 93       	st	Z+, r16
 9ae:	f9 83       	std	Y+1, r31	; 0x01
 9b0:	e8 83       	st	Y, r30
 9b2:	06 c0       	rjmp	.+12     	; 0x9c0 <fputc+0x3e>
 9b4:	e8 85       	ldd	r30, Y+8	; 0x08
 9b6:	f9 85       	ldd	r31, Y+9	; 0x09
 9b8:	80 2f       	mov	r24, r16
 9ba:	09 95       	icall
 9bc:	89 2b       	or	r24, r25
 9be:	31 f4       	brne	.+12     	; 0x9cc <fputc+0x4a>
 9c0:	8e 81       	ldd	r24, Y+6	; 0x06
 9c2:	9f 81       	ldd	r25, Y+7	; 0x07
 9c4:	01 96       	adiw	r24, 0x01	; 1
 9c6:	9f 83       	std	Y+7, r25	; 0x07
 9c8:	8e 83       	std	Y+6, r24	; 0x06
 9ca:	02 c0       	rjmp	.+4      	; 0x9d0 <fputc+0x4e>
 9cc:	0f ef       	ldi	r16, 0xFF	; 255
 9ce:	1f ef       	ldi	r17, 0xFF	; 255
 9d0:	c8 01       	movw	r24, r16
 9d2:	df 91       	pop	r29
 9d4:	cf 91       	pop	r28
 9d6:	1f 91       	pop	r17
 9d8:	0f 91       	pop	r16
 9da:	08 95       	ret

000009dc <__ultoa_invert>:
 9dc:	fa 01       	movw	r30, r20
 9de:	aa 27       	eor	r26, r26
 9e0:	28 30       	cpi	r18, 0x08	; 8
 9e2:	51 f1       	breq	.+84     	; 0xa38 <__ultoa_invert+0x5c>
 9e4:	20 31       	cpi	r18, 0x10	; 16
 9e6:	81 f1       	breq	.+96     	; 0xa48 <__ultoa_invert+0x6c>
 9e8:	e8 94       	clt
 9ea:	6f 93       	push	r22
 9ec:	6e 7f       	andi	r22, 0xFE	; 254
 9ee:	6e 5f       	subi	r22, 0xFE	; 254
 9f0:	7f 4f       	sbci	r23, 0xFF	; 255
 9f2:	8f 4f       	sbci	r24, 0xFF	; 255
 9f4:	9f 4f       	sbci	r25, 0xFF	; 255
 9f6:	af 4f       	sbci	r26, 0xFF	; 255
 9f8:	b1 e0       	ldi	r27, 0x01	; 1
 9fa:	3e d0       	rcall	.+124    	; 0xa78 <__ultoa_invert+0x9c>
 9fc:	b4 e0       	ldi	r27, 0x04	; 4
 9fe:	3c d0       	rcall	.+120    	; 0xa78 <__ultoa_invert+0x9c>
 a00:	67 0f       	add	r22, r23
 a02:	78 1f       	adc	r23, r24
 a04:	89 1f       	adc	r24, r25
 a06:	9a 1f       	adc	r25, r26
 a08:	a1 1d       	adc	r26, r1
 a0a:	68 0f       	add	r22, r24
 a0c:	79 1f       	adc	r23, r25
 a0e:	8a 1f       	adc	r24, r26
 a10:	91 1d       	adc	r25, r1
 a12:	a1 1d       	adc	r26, r1
 a14:	6a 0f       	add	r22, r26
 a16:	71 1d       	adc	r23, r1
 a18:	81 1d       	adc	r24, r1
 a1a:	91 1d       	adc	r25, r1
 a1c:	a1 1d       	adc	r26, r1
 a1e:	20 d0       	rcall	.+64     	; 0xa60 <__ultoa_invert+0x84>
 a20:	09 f4       	brne	.+2      	; 0xa24 <__ultoa_invert+0x48>
 a22:	68 94       	set
 a24:	3f 91       	pop	r19
 a26:	2a e0       	ldi	r18, 0x0A	; 10
 a28:	26 9f       	mul	r18, r22
 a2a:	11 24       	eor	r1, r1
 a2c:	30 19       	sub	r19, r0
 a2e:	30 5d       	subi	r19, 0xD0	; 208
 a30:	31 93       	st	Z+, r19
 a32:	de f6       	brtc	.-74     	; 0x9ea <__ultoa_invert+0xe>
 a34:	cf 01       	movw	r24, r30
 a36:	08 95       	ret
 a38:	46 2f       	mov	r20, r22
 a3a:	47 70       	andi	r20, 0x07	; 7
 a3c:	40 5d       	subi	r20, 0xD0	; 208
 a3e:	41 93       	st	Z+, r20
 a40:	b3 e0       	ldi	r27, 0x03	; 3
 a42:	0f d0       	rcall	.+30     	; 0xa62 <__ultoa_invert+0x86>
 a44:	c9 f7       	brne	.-14     	; 0xa38 <__ultoa_invert+0x5c>
 a46:	f6 cf       	rjmp	.-20     	; 0xa34 <__ultoa_invert+0x58>
 a48:	46 2f       	mov	r20, r22
 a4a:	4f 70       	andi	r20, 0x0F	; 15
 a4c:	40 5d       	subi	r20, 0xD0	; 208
 a4e:	4a 33       	cpi	r20, 0x3A	; 58
 a50:	18 f0       	brcs	.+6      	; 0xa58 <__ultoa_invert+0x7c>
 a52:	49 5d       	subi	r20, 0xD9	; 217
 a54:	31 fd       	sbrc	r19, 1
 a56:	40 52       	subi	r20, 0x20	; 32
 a58:	41 93       	st	Z+, r20
 a5a:	02 d0       	rcall	.+4      	; 0xa60 <__ultoa_invert+0x84>
 a5c:	a9 f7       	brne	.-22     	; 0xa48 <__ultoa_invert+0x6c>
 a5e:	ea cf       	rjmp	.-44     	; 0xa34 <__ultoa_invert+0x58>
 a60:	b4 e0       	ldi	r27, 0x04	; 4
 a62:	a6 95       	lsr	r26
 a64:	97 95       	ror	r25
 a66:	87 95       	ror	r24
 a68:	77 95       	ror	r23
 a6a:	67 95       	ror	r22
 a6c:	ba 95       	dec	r27
 a6e:	c9 f7       	brne	.-14     	; 0xa62 <__ultoa_invert+0x86>
 a70:	00 97       	sbiw	r24, 0x00	; 0
 a72:	61 05       	cpc	r22, r1
 a74:	71 05       	cpc	r23, r1
 a76:	08 95       	ret
 a78:	9b 01       	movw	r18, r22
 a7a:	ac 01       	movw	r20, r24
 a7c:	0a 2e       	mov	r0, r26
 a7e:	06 94       	lsr	r0
 a80:	57 95       	ror	r21
 a82:	47 95       	ror	r20
 a84:	37 95       	ror	r19
 a86:	27 95       	ror	r18
 a88:	ba 95       	dec	r27
 a8a:	c9 f7       	brne	.-14     	; 0xa7e <__ultoa_invert+0xa2>
 a8c:	62 0f       	add	r22, r18
 a8e:	73 1f       	adc	r23, r19
 a90:	84 1f       	adc	r24, r20
 a92:	95 1f       	adc	r25, r21
 a94:	a0 1d       	adc	r26, r0
 a96:	08 95       	ret

00000a98 <__prologue_saves__>:
 a98:	2f 92       	push	r2
 a9a:	3f 92       	push	r3
 a9c:	4f 92       	push	r4
 a9e:	5f 92       	push	r5
 aa0:	6f 92       	push	r6
 aa2:	7f 92       	push	r7
 aa4:	8f 92       	push	r8
 aa6:	9f 92       	push	r9
 aa8:	af 92       	push	r10
 aaa:	bf 92       	push	r11
 aac:	cf 92       	push	r12
 aae:	df 92       	push	r13
 ab0:	ef 92       	push	r14
 ab2:	ff 92       	push	r15
 ab4:	0f 93       	push	r16
 ab6:	1f 93       	push	r17
 ab8:	cf 93       	push	r28
 aba:	df 93       	push	r29
 abc:	cd b7       	in	r28, 0x3d	; 61
 abe:	de b7       	in	r29, 0x3e	; 62
 ac0:	ca 1b       	sub	r28, r26
 ac2:	db 0b       	sbc	r29, r27
 ac4:	0f b6       	in	r0, 0x3f	; 63
 ac6:	f8 94       	cli
 ac8:	de bf       	out	0x3e, r29	; 62
 aca:	0f be       	out	0x3f, r0	; 63
 acc:	cd bf       	out	0x3d, r28	; 61
 ace:	09 94       	ijmp

00000ad0 <__epilogue_restores__>:
 ad0:	2a 88       	ldd	r2, Y+18	; 0x12
 ad2:	39 88       	ldd	r3, Y+17	; 0x11
 ad4:	48 88       	ldd	r4, Y+16	; 0x10
 ad6:	5f 84       	ldd	r5, Y+15	; 0x0f
 ad8:	6e 84       	ldd	r6, Y+14	; 0x0e
 ada:	7d 84       	ldd	r7, Y+13	; 0x0d
 adc:	8c 84       	ldd	r8, Y+12	; 0x0c
 ade:	9b 84       	ldd	r9, Y+11	; 0x0b
 ae0:	aa 84       	ldd	r10, Y+10	; 0x0a
 ae2:	b9 84       	ldd	r11, Y+9	; 0x09
 ae4:	c8 84       	ldd	r12, Y+8	; 0x08
 ae6:	df 80       	ldd	r13, Y+7	; 0x07
 ae8:	ee 80       	ldd	r14, Y+6	; 0x06
 aea:	fd 80       	ldd	r15, Y+5	; 0x05
 aec:	0c 81       	ldd	r16, Y+4	; 0x04
 aee:	1b 81       	ldd	r17, Y+3	; 0x03
 af0:	aa 81       	ldd	r26, Y+2	; 0x02
 af2:	b9 81       	ldd	r27, Y+1	; 0x01
 af4:	ce 0f       	add	r28, r30
 af6:	d1 1d       	adc	r29, r1
 af8:	0f b6       	in	r0, 0x3f	; 63
 afa:	f8 94       	cli
 afc:	de bf       	out	0x3e, r29	; 62
 afe:	0f be       	out	0x3f, r0	; 63
 b00:	cd bf       	out	0x3d, r28	; 61
 b02:	ed 01       	movw	r28, r26
 b04:	08 95       	ret

00000b06 <_exit>:
 b06:	ff cf       	rjmp	.-2      	; 0xb06 <_exit>
